Archive member included to satisfy reference by file (symbol)

c:/devkitPro/portlibs/armv6k/lib\libconfig.a(libconfig_la-libconfig.o)
                              config.o (config_read_file)
c:/devkitPro/portlibs/armv6k/lib\libconfig.a(libconfig_la-scanner.o)
                              c:/devkitPro/portlibs/armv6k/lib\libconfig.a(libconfig_la-libconfig.o) (libconfig_yyrestart)
c:/devkitPro/portlibs/armv6k/lib\libconfig.a(libconfig_la-grammar.o)
                              c:/devkitPro/portlibs/armv6k/lib\libconfig.a(libconfig_la-libconfig.o) (libconfig_yyparse)
c:/devkitPro/portlibs/armv6k/lib\libconfig.a(libconfig_la-scanctx.o)
                              c:/devkitPro/portlibs/armv6k/lib\libconfig.a(libconfig_la-libconfig.o) (scanctx_init)
c:/devkitPro/portlibs/armv6k/lib\libconfig.a(libconfig_la-strbuf.o)
                              c:/devkitPro/portlibs/armv6k/lib\libconfig.a(libconfig_la-libconfig.o) (strbuf_release)
c:/devkitPro/libctru/lib\libctru.a(linear.o)
                              khaxinit.o (linearMemAlign)
c:/devkitPro/libctru/lib\libctru.a(mem_pool.o)
                              c:/devkitPro/libctru/lib\libctru.a(linear.o) (MemPool::Allocate(MemChunk&, unsigned long, int))
c:/devkitPro/libctru/lib\libctru.a(gfx.o)
                              main.o (gfxInitDefault)
c:/devkitPro/libctru/lib\libctru.a(os.o)
                              khaxinit.o (osConvertVirtToPhys)
c:/devkitPro/libctru/lib\libctru.a(sdmc_dev.o)
                              main.o (sdmcInit)
c:/devkitPro/libctru/lib\libctru.a(srv.o)
                              khaxinit.o (srvExit)
c:/devkitPro/libctru/lib\libctru.a(ac.o)
                              main.o (acInit)
c:/devkitPro/libctru/lib\libctru.a(am.o)
                              main.o (amInit)
c:/devkitPro/libctru/lib\libctru.a(apt.o)
                              main.o (aptOpenSession)
c:/devkitPro/libctru/lib\libctru.a(fs.o)
                              boot.o (FS_makePath)
c:/devkitPro/libctru/lib\libctru.a(gsp.o)
                              c:/devkitPro/libctru/lib\libctru.a(gfx.o) (gspInit)
c:/devkitPro/libctru/lib\libctru.a(gx.o)
                              c:/devkitPro/libctru/lib\libctru.a(gfx.o) (gxCmdBuf)
c:/devkitPro/libctru/lib\libctru.a(hb.o)
                              boot.o (hbInit)
c:/devkitPro/libctru/lib\libctru.a(hid.o)
                              loader.o (hidExit)
c:/devkitPro/libctru/lib\libctru.a(irrst.o)
                              c:/devkitPro/libctru/lib\libctru.a(hid.o) (irrstScanInput)
c:/devkitPro/libctru/lib\libctru.a(ptm.o)
                              main.o (ptmInit)
c:/devkitPro/libctru/lib\libctru.a(soc_accept.o)
                              menu_netloader.o (accept)
c:/devkitPro/libctru/lib\libctru.a(soc_bind.o)
                              menu_netloader.o (bind)
c:/devkitPro/libctru/lib\libctru.a(soc_closesocket.o)
                              menu_netloader.o (closesocket)
c:/devkitPro/libctru/lib\libctru.a(soc_common.o)
                              c:/devkitPro/libctru/lib\libctru.a(soc_accept.o) (_net_convert_error)
c:/devkitPro/libctru/lib\libctru.a(soc_fcntl.o)
                              menu_netloader.o (fcntl)
c:/devkitPro/libctru/lib\libctru.a(soc_gethostid.o)
                              menu_netloader.o (gethostid)
c:/devkitPro/libctru/lib\libctru.a(soc_inet_ntoa.o)
                              brahma.o (inet_ntoa)
c:/devkitPro/libctru/lib\libctru.a(soc_init.o)
                              menu_netloader.o (SOC_Initialize)
c:/devkitPro/libctru/lib\libctru.a(soc_listen.o)
                              menu_netloader.o (listen)
c:/devkitPro/libctru/lib\libctru.a(soc_recv.o)
                              menu_netloader.o (recv)
c:/devkitPro/libctru/lib\libctru.a(soc_recvfrom.o)
                              c:/devkitPro/libctru/lib\libctru.a(soc_init.o) (soc_recvfrom)
c:/devkitPro/libctru/lib\libctru.a(soc_send.o)
                              menu_netloader.o (send)
c:/devkitPro/libctru/lib\libctru.a(soc_sendto.o)
                              c:/devkitPro/libctru/lib\libctru.a(soc_init.o) (soc_sendto)
c:/devkitPro/libctru/lib\libctru.a(soc_socket.o)
                              menu_netloader.o (socket)
c:/devkitPro/libctru/lib\libctru.a(rbtree_find.o)
                              c:/devkitPro/libctru/lib\libctru.a(linear.o) (rbtree_find)
c:/devkitPro/libctru/lib\libctru.a(rbtree_init.o)
                              c:/devkitPro/libctru/lib\libctru.a(linear.o) (rbtree_init)
c:/devkitPro/libctru/lib\libctru.a(rbtree_insert.o)
                              c:/devkitPro/libctru/lib\libctru.a(linear.o) (rbtree_insert)
c:/devkitPro/libctru/lib\libctru.a(rbtree_remove.o)
                              c:/devkitPro/libctru/lib\libctru.a(linear.o) (rbtree_remove)
c:/devkitPro/libctru/lib\libctru.a(rbtree_rotate.o)
                              c:/devkitPro/libctru/lib\libctru.a(rbtree_insert.o) (rbtree_rotate)
c:/devkitPro/libctru/lib\libctru.a(decode_utf8.o)
                              c:/devkitPro/libctru/lib\libctru.a(sdmc_dev.o) (decode_utf8)
c:/devkitPro/libctru/lib\libctru.a(utf16_to_utf8.o)
                              c:/devkitPro/libctru/lib\libctru.a(sdmc_dev.o) (utf16_to_utf8)
c:/devkitPro/libctru/lib\libctru.a(utf8_to_utf16.o)
                              c:/devkitPro/libctru/lib\libctru.a(sdmc_dev.o) (utf8_to_utf16)
c:/devkitPro/libctru/lib\libctru.a(allocateHeaps.o)
                              c:/devkitPro/libctru/lib\libctru.a(linear.o) (__linear_heap)
c:/devkitPro/libctru/lib\libctru.a(initArgv.o)
                              c:/devkitpro/devkitarm/bin/../lib/gcc/arm-none-eabi/4.9.2/../../../../arm-none-eabi/lib/armv6k/fpu/3dsx_crt0.o (__system_argc)
c:/devkitPro/libctru/lib\libctru.a(initSystem.o)
                              boot.o (__system_retAddr)
c:/devkitPro/libctru/lib\libctru.a(svc.o)
                              khaxinit.o (svcControlMemory)
c:/devkitPro/libctru/lib\libctru.a(stack_adjust.o)
                              c:/devkitpro/devkitarm/bin/../lib/gcc/arm-none-eabi/4.9.2/../../../../arm-none-eabi/lib/armv6k/fpu/3dsx_crt0.o (initSystem)
c:/devkitPro/libctru/lib\libctru.a(mappable.o)
                              c:/devkitPro/libctru/lib\libctru.a(gfx.o) (mappableAlloc)
c:/devkitPro/libctru/lib\libctru.a(vram.o)
                              c:/devkitPro/libctru/lib\libctru.a(gfx.o) (vramAlloc)
c:/devkitPro/libctru/lib\libctru.a(rbtree_iterator.o)
                              c:/devkitPro/libctru/lib\libctru.a(rbtree_remove.o) (rbtree_node_next)
c:/devkitPro/libctru/lib\libctru.a(decode_utf16.o)
                              c:/devkitPro/libctru/lib\libctru.a(utf16_to_utf8.o) (decode_utf16)
c:/devkitPro/libctru/lib\libctru.a(encode_utf16.o)
                              c:/devkitPro/libctru/lib\libctru.a(utf8_to_utf16.o) (encode_utf16)
c:/devkitPro/libctru/lib\libctru.a(encode_utf8.o)
                              c:/devkitPro/libctru/lib\libctru.a(utf16_to_utf8.o) (encode_utf8)
c:/devkitPro/libctru/lib\libctru.a(appExit.o)
                              c:/devkitPro/libctru/lib\libctru.a(stack_adjust.o) (__appExit)
c:/devkitPro/libctru/lib\libctru.a(appInit.o)
                              c:/devkitPro/libctru/lib\libctru.a(stack_adjust.o) (__appInit)
c:/devkitPro/libctru/lib\libctru.a(ctru_exit.o)
                              c:/devkitPro/libctru/lib\libctru.a(stack_adjust.o) (__libctru_exit)
c:/devkitPro/portlibs/armv6k/lib\libz.a(inflate.o)
                              menu_netloader.o (inflateInit_)
c:/devkitPro/portlibs/armv6k/lib\libz.a(inftrees.o)
                              c:/devkitPro/portlibs/armv6k/lib\libz.a(inflate.o) (inflate_table)
c:/devkitPro/portlibs/armv6k/lib\libz.a(zutil.o)
                              c:/devkitPro/portlibs/armv6k/lib\libz.a(inflate.o) (zcalloc)
c:/devkitPro/portlibs/armv6k/lib\libz.a(adler32.o)
                              c:/devkitPro/portlibs/armv6k/lib\libz.a(inflate.o) (adler32)
c:/devkitPro/portlibs/armv6k/lib\libz.a(crc32.o)
                              c:/devkitPro/portlibs/armv6k/lib\libz.a(inflate.o) (crc32)
c:/devkitPro/portlibs/armv6k/lib\libz.a(inffast.o)
                              c:/devkitPro/portlibs/armv6k/lib\libz.a(inflate.o) (inflate_fast)
c:/devkitpro/devkitarm/bin/../lib/gcc/arm-none-eabi/4.9.2/../../../../arm-none-eabi/lib/armv6k/fpu\libstdc++.a(new_handler.o)
                              khaxinit.o (std::nothrow)
c:/devkitpro/devkitarm/bin/../lib/gcc/arm-none-eabi/4.9.2/../../../../arm-none-eabi/lib/armv6k/fpu\libstdc++.a(del_opv.o)
                              tinyxml2.o (operator delete[](void*))
c:/devkitpro/devkitarm/bin/../lib/gcc/arm-none-eabi/4.9.2/../../../../arm-none-eabi/lib/armv6k/fpu\libstdc++.a(new_opv.o)
                              tinyxml2.o (operator new[](unsigned int))
c:/devkitpro/devkitarm/bin/../lib/gcc/arm-none-eabi/4.9.2/../../../../arm-none-eabi/lib/armv6k/fpu\libstdc++.a(eh_arm.o)
                              c:/devkitpro/devkitarm/bin/../lib/gcc/arm-none-eabi/4.9.2/../../../../arm-none-eabi/lib/armv6k/fpu\libstdc++.a(new_opv.o) (__cxa_end_cleanup)
c:/devkitpro/devkitarm/bin/../lib/gcc/arm-none-eabi/4.9.2/../../../../arm-none-eabi/lib/armv6k/fpu\libstdc++.a(eh_exception.o)
                              c:/devkitpro/devkitarm/bin/../lib/gcc/arm-none-eabi/4.9.2/../../../../arm-none-eabi/lib/armv6k/fpu\libstdc++.a(eh_arm.o) (typeinfo for __cxxabiv1::__forced_unwind)
c:/devkitpro/devkitarm/bin/../lib/gcc/arm-none-eabi/4.9.2/../../../../arm-none-eabi/lib/armv6k/fpu\libstdc++.a(si_class_type_info.o)
                              c:/devkitpro/devkitarm/bin/../lib/gcc/arm-none-eabi/4.9.2/../../../../arm-none-eabi/lib/armv6k/fpu\libstdc++.a(eh_exception.o) (vtable for __cxxabiv1::__si_class_type_info)
c:/devkitpro/devkitarm/bin/../lib/gcc/arm-none-eabi/4.9.2/../../../../arm-none-eabi/lib/armv6k/fpu\libstdc++.a(eh_call.o)
                              c:/devkitpro/devkitarm/bin/../lib/gcc/arm-none-eabi/4.9.2/../../../../arm-none-eabi/lib/armv6k/fpu\libstdc++.a(new_opv.o) (__cxa_call_unexpected)
c:/devkitpro/devkitarm/bin/../lib/gcc/arm-none-eabi/4.9.2/../../../../arm-none-eabi/lib/armv6k/fpu\libstdc++.a(eh_globals.o)
                              c:/devkitpro/devkitarm/bin/../lib/gcc/arm-none-eabi/4.9.2/../../../../arm-none-eabi/lib/armv6k/fpu\libstdc++.a(eh_call.o) (__cxa_get_globals_fast)
c:/devkitpro/devkitarm/bin/../lib/gcc/arm-none-eabi/4.9.2/../../../../arm-none-eabi/lib/armv6k/fpu\libstdc++.a(eh_catch.o)
                              c:/devkitpro/devkitarm/bin/../lib/gcc/arm-none-eabi/4.9.2/../../../../arm-none-eabi/lib/armv6k/fpu\libstdc++.a(eh_call.o) (__cxa_begin_catch)
c:/devkitpro/devkitarm/bin/../lib/gcc/arm-none-eabi/4.9.2/../../../../arm-none-eabi/lib/armv6k/fpu\libstdc++.a(tinfo.o)
                              c:/devkitpro/devkitarm/bin/../lib/gcc/arm-none-eabi/4.9.2/../../../../arm-none-eabi/lib/armv6k/fpu\libstdc++.a(si_class_type_info.o) (std::type_info::__is_pointer_p() const)
c:/devkitpro/devkitarm/bin/../lib/gcc/arm-none-eabi/4.9.2/../../../../arm-none-eabi/lib/armv6k/fpu\libstdc++.a(pure.o)
                              tinyxml2.o (__cxa_pure_virtual)
c:/devkitpro/devkitarm/bin/../lib/gcc/arm-none-eabi/4.9.2/../../../../arm-none-eabi/lib/armv6k/fpu\libstdc++.a(eh_personality.o)
                              c:/devkitpro/devkitarm/bin/../lib/gcc/arm-none-eabi/4.9.2/../../../../arm-none-eabi/lib/armv6k/fpu\libstdc++.a(new_opv.o) (__gxx_personality_v0)
c:/devkitpro/devkitarm/bin/../lib/gcc/arm-none-eabi/4.9.2/../../../../arm-none-eabi/lib/armv6k/fpu\libstdc++.a(del_op.o)
                              tinyxml2.o (operator delete(void*))
c:/devkitpro/devkitarm/bin/../lib/gcc/arm-none-eabi/4.9.2/../../../../arm-none-eabi/lib/armv6k/fpu\libstdc++.a(new_op.o)
                              tinyxml2.o (operator new(unsigned int))
c:/devkitpro/devkitarm/bin/../lib/gcc/arm-none-eabi/4.9.2/../../../../arm-none-eabi/lib/armv6k/fpu\libstdc++.a(new_opvnt.o)
                              khaxinit.o (operator new[](unsigned int, std::nothrow_t const&))
c:/devkitpro/devkitarm/bin/../lib/gcc/arm-none-eabi/4.9.2/../../../../arm-none-eabi/lib/armv6k/fpu\libstdc++.a(eh_alloc.o)
                              c:/devkitpro/devkitarm/bin/../lib/gcc/arm-none-eabi/4.9.2/../../../../arm-none-eabi/lib/armv6k/fpu\libstdc++.a(eh_call.o) (__cxa_allocate_exception)
c:/devkitpro/devkitarm/bin/../lib/gcc/arm-none-eabi/4.9.2/../../../../arm-none-eabi/lib/armv6k/fpu\libstdc++.a(class_type_info.o)
                              c:/devkitpro/devkitarm/bin/../lib/gcc/arm-none-eabi/4.9.2/../../../../arm-none-eabi/lib/armv6k/fpu\libstdc++.a(si_class_type_info.o) (__cxxabiv1::__class_type_info::__do_upcast(__cxxabiv1::__class_type_info const*, void**) const)
c:/devkitpro/devkitarm/bin/../lib/gcc/arm-none-eabi/4.9.2/../../../../arm-none-eabi/lib/armv6k/fpu\libstdc++.a(eh_terminate.o)
                              c:/devkitpro/devkitarm/bin/../lib/gcc/arm-none-eabi/4.9.2/../../../../arm-none-eabi/lib/armv6k/fpu\libstdc++.a(eh_call.o) (__cxxabiv1::__terminate(void (*)()))
c:/devkitpro/devkitarm/bin/../lib/gcc/arm-none-eabi/4.9.2/../../../../arm-none-eabi/lib/armv6k/fpu\libstdc++.a(eh_unex_handler.o)
                              c:/devkitpro/devkitarm/bin/../lib/gcc/arm-none-eabi/4.9.2/../../../../arm-none-eabi/lib/armv6k/fpu\libstdc++.a(eh_terminate.o) (__cxxabiv1::__unexpected_handler)
c:/devkitpro/devkitarm/bin/../lib/gcc/arm-none-eabi/4.9.2/../../../../arm-none-eabi/lib/armv6k/fpu\libstdc++.a(bad_alloc.o)
                              c:/devkitpro/devkitarm/bin/../lib/gcc/arm-none-eabi/4.9.2/../../../../arm-none-eabi/lib/armv6k/fpu\libstdc++.a(new_op.o) (std::bad_alloc::~bad_alloc())
c:/devkitpro/devkitarm/bin/../lib/gcc/arm-none-eabi/4.9.2/../../../../arm-none-eabi/lib/armv6k/fpu\libstdc++.a(eh_throw.o)
                              c:/devkitpro/devkitarm/bin/../lib/gcc/arm-none-eabi/4.9.2/../../../../arm-none-eabi/lib/armv6k/fpu\libstdc++.a(eh_call.o) (__cxa_throw)
c:/devkitpro/devkitarm/bin/../lib/gcc/arm-none-eabi/4.9.2/../../../../arm-none-eabi/lib/armv6k/fpu\libstdc++.a(new_opnt.o)
                              c:/devkitpro/devkitarm/bin/../lib/gcc/arm-none-eabi/4.9.2/../../../../arm-none-eabi/lib/armv6k/fpu\libstdc++.a(new_opvnt.o) (operator new(unsigned int, std::nothrow_t const&))
c:/devkitpro/devkitarm/bin/../lib/gcc/arm-none-eabi/4.9.2/../../../../arm-none-eabi/lib/armv6k/fpu\libstdc++.a(eh_term_handler.o)
                              c:/devkitpro/devkitarm/bin/../lib/gcc/arm-none-eabi/4.9.2/../../../../arm-none-eabi/lib/armv6k/fpu\libstdc++.a(eh_terminate.o) (__cxxabiv1::__terminate_handler)
c:/devkitpro/devkitarm/bin/../lib/gcc/arm-none-eabi/4.9.2/../../../../arm-none-eabi/lib/armv6k/fpu\libstdc++.a(vterminate.o)
                              c:/devkitpro/devkitarm/bin/../lib/gcc/arm-none-eabi/4.9.2/../../../../arm-none-eabi/lib/armv6k/fpu\libstdc++.a(eh_term_handler.o) (__gnu_cxx::__verbose_terminate_handler())
c:/devkitpro/devkitarm/bin/../lib/gcc/arm-none-eabi/4.9.2/../../../../arm-none-eabi/lib/armv6k/fpu\libstdc++.a(eh_type.o)
                              c:/devkitpro/devkitarm/bin/../lib/gcc/arm-none-eabi/4.9.2/../../../../arm-none-eabi/lib/armv6k/fpu\libstdc++.a(vterminate.o) (__cxa_current_exception_type)
c:/devkitpro/devkitarm/bin/../lib/gcc/arm-none-eabi/4.9.2/../../../../arm-none-eabi/lib/armv6k/fpu\libstdc++.a(cp-demangle.o)
                              c:/devkitpro/devkitarm/bin/../lib/gcc/arm-none-eabi/4.9.2/../../../../arm-none-eabi/lib/armv6k/fpu\libstdc++.a(vterminate.o) (__cxa_demangle)
c:/devkitpro/devkitarm/bin/../lib/gcc/arm-none-eabi/4.9.2/armv6k/fpu\libgcc.a(_udivsi3.o)
                              menu_netloader.o (__aeabi_uidiv)
c:/devkitpro/devkitarm/bin/../lib/gcc/arm-none-eabi/4.9.2/armv6k/fpu\libgcc.a(_dvmd_tls.o)
                              c:/devkitpro/devkitarm/bin/../lib/gcc/arm-none-eabi/4.9.2/armv6k/fpu\libgcc.a(_udivsi3.o) (__aeabi_idiv0)
c:/devkitpro/devkitarm/bin/../lib/gcc/arm-none-eabi/4.9.2/armv6k/fpu\libgcc.a(_arm_addsubdf3.o)
                              c:/devkitPro/portlibs/armv6k/lib\libconfig.a(libconfig_la-libconfig.o) (__aeabi_l2d)
c:/devkitpro/devkitarm/bin/../lib/gcc/arm-none-eabi/4.9.2/armv6k/fpu\libgcc.a(_arm_addsubsf3.o)
                              c:/devkitPro/portlibs/armv6k/lib\libconfig.a(libconfig_la-libconfig.o) (__aeabi_l2f)
c:/devkitpro/devkitarm/bin/../lib/gcc/arm-none-eabi/4.9.2/armv6k/fpu\libgcc.a(_fixdfdi.o)
                              c:/devkitPro/portlibs/armv6k/lib\libconfig.a(libconfig_la-libconfig.o) (__aeabi_d2lz)
c:/devkitpro/devkitarm/bin/../lib/gcc/arm-none-eabi/4.9.2/armv6k/fpu\libgcc.a(_fixunsdfdi.o)
                              c:/devkitpro/devkitarm/bin/../lib/gcc/arm-none-eabi/4.9.2/armv6k/fpu\libgcc.a(_fixdfdi.o) (__aeabi_d2ulz)
c:/devkitpro/devkitarm/bin/../lib/gcc/arm-none-eabi/4.9.2/armv6k/fpu\libgcc.a(unwind-arm.o)
                              c:/devkitpro/devkitarm/bin/../lib/gcc/arm-none-eabi/4.9.2/../../../../arm-none-eabi/lib/armv6k/fpu\libstdc++.a(eh_arm.o) (__aeabi_unwind_cpp_pr0)
c:/devkitpro/devkitarm/bin/../lib/gcc/arm-none-eabi/4.9.2/armv6k/fpu\libgcc.a(libunwind.o)
                              c:/devkitpro/devkitarm/bin/../lib/gcc/arm-none-eabi/4.9.2/armv6k/fpu\libgcc.a(unwind-arm.o) (restore_core_regs)
c:/devkitpro/devkitarm/bin/../lib/gcc/arm-none-eabi/4.9.2/armv6k/fpu\libgcc.a(pr-support.o)
                              c:/devkitpro/devkitarm/bin/../lib/gcc/arm-none-eabi/4.9.2/armv6k/fpu\libgcc.a(unwind-arm.o) (__gnu_unwind_execute)
c:/devkitpro/devkitarm/bin/../lib/gcc/arm-none-eabi/4.9.2/../../../../arm-none-eabi/lib/armv6k/fpu\libg.a(lib_a-abort.o)
                              c:/devkitpro/devkitarm/bin/../lib/gcc/arm-none-eabi/4.9.2/../../../../arm-none-eabi/lib/armv6k/fpu\libstdc++.a(eh_personality.o) (abort)
c:/devkitpro/devkitarm/bin/../lib/gcc/arm-none-eabi/4.9.2/../../../../arm-none-eabi/lib/armv6k/fpu\libg.a(lib_a-atof.o)
                              c:/devkitPro/portlibs/armv6k/lib\libconfig.a(libconfig_la-scanner.o) (atof)
c:/devkitpro/devkitarm/bin/../lib/gcc/arm-none-eabi/4.9.2/../../../../arm-none-eabi/lib/armv6k/fpu\libg.a(lib_a-atoi.o)
                              c:/devkitPro/portlibs/armv6k/lib\libconfig.a(libconfig_la-libconfig.o) (atoi)
c:/devkitpro/devkitarm/bin/../lib/gcc/arm-none-eabi/4.9.2/../../../../arm-none-eabi/lib/armv6k/fpu\libg.a(lib_a-atoll.o)
                              c:/devkitPro/portlibs/armv6k/lib\libconfig.a(libconfig_la-scanner.o) (atoll)
c:/devkitpro/devkitarm/bin/../lib/gcc/arm-none-eabi/4.9.2/../../../../arm-none-eabi/lib/armv6k/fpu\libg.a(lib_a-bsearch.o)
                              c:/devkitPro/libctru/lib\libctru.a(sdmc_dev.o) (bsearch)
c:/devkitpro/devkitarm/bin/../lib/gcc/arm-none-eabi/4.9.2/../../../../arm-none-eabi/lib/armv6k/fpu\libg.a(lib_a-calloc.o)
                              c:/devkitPro/portlibs/armv6k/lib\libconfig.a(libconfig_la-libconfig.o) (calloc)
c:/devkitpro/devkitarm/bin/../lib/gcc/arm-none-eabi/4.9.2/../../../../arm-none-eabi/lib/armv6k/fpu\libg.a(lib_a-callocr.o)
                              c:/devkitpro/devkitarm/bin/../lib/gcc/arm-none-eabi/4.9.2/../../../../arm-none-eabi/lib/armv6k/fpu\libg.a(lib_a-calloc.o) (_calloc_r)
c:/devkitpro/devkitarm/bin/../lib/gcc/arm-none-eabi/4.9.2/../../../../arm-none-eabi/lib/armv6k/fpu\libg.a(lib_a-ctype_.o)
                              c:/devkitPro/portlibs/armv6k/lib\libconfig.a(libconfig_la-libconfig.o) (__ctype_ptr__)
c:/devkitpro/devkitarm/bin/../lib/gcc/arm-none-eabi/4.9.2/../../../../arm-none-eabi/lib/armv6k/fpu\libg.a(lib_a-errno.o)
                              menu_netloader.o (__errno)
c:/devkitpro/devkitarm/bin/../lib/gcc/arm-none-eabi/4.9.2/../../../../arm-none-eabi/lib/armv6k/fpu\libg.a(lib_a-exit.o)
                              c:/devkitPro/portlibs/armv6k/lib\libconfig.a(libconfig_la-scanner.o) (exit)
c:/devkitpro/devkitarm/bin/../lib/gcc/arm-none-eabi/4.9.2/../../../../arm-none-eabi/lib/armv6k/fpu\libg.a(lib_a-fclose.o)
                              tinyxml2.o (fclose)
c:/devkitpro/devkitarm/bin/../lib/gcc/arm-none-eabi/4.9.2/../../../../arm-none-eabi/lib/armv6k/fpu\libg.a(lib_a-ferror.o)
                              tinyxml2.o (ferror)
c:/devkitpro/devkitarm/bin/../lib/gcc/arm-none-eabi/4.9.2/../../../../arm-none-eabi/lib/armv6k/fpu\libg.a(lib_a-fflush.o)
                              c:/devkitpro/devkitarm/bin/../lib/gcc/arm-none-eabi/4.9.2/../../../../arm-none-eabi/lib/armv6k/fpu\libg.a(lib_a-fclose.o) (__sflush_r)
c:/devkitpro/devkitarm/bin/../lib/gcc/arm-none-eabi/4.9.2/../../../../arm-none-eabi/lib/armv6k/fpu\libg.a(lib_a-fgetc.o)
                              tinyxml2.o (fgetc)
c:/devkitpro/devkitarm/bin/../lib/gcc/arm-none-eabi/4.9.2/../../../../arm-none-eabi/lib/armv6k/fpu\libg.a(lib_a-fileno.o)
                              c:/devkitPro/portlibs/armv6k/lib\libconfig.a(libconfig_la-libconfig.o) (fileno)
c:/devkitpro/devkitarm/bin/../lib/gcc/arm-none-eabi/4.9.2/../../../../arm-none-eabi/lib/armv6k/fpu\libg.a(lib_a-findfp.o)
                              c:/devkitpro/devkitarm/bin/../lib/gcc/arm-none-eabi/4.9.2/../../../../arm-none-eabi/lib/armv6k/fpu\libg.a(lib_a-fclose.o) (__sinit)
c:/devkitpro/devkitarm/bin/../lib/gcc/arm-none-eabi/4.9.2/../../../../arm-none-eabi/lib/armv6k/fpu\libg.a(lib_a-fini.o)
                              c:/devkitPro/libctru/lib\libctru.a(stack_adjust.o) (__libc_fini_array)
c:/devkitpro/devkitarm/bin/../lib/gcc/arm-none-eabi/4.9.2/../../../../arm-none-eabi/lib/armv6k/fpu\libg.a(lib_a-fopen.o)
                              tinyxml2.o (fopen)
c:/devkitpro/devkitarm/bin/../lib/gcc/arm-none-eabi/4.9.2/../../../../arm-none-eabi/lib/armv6k/fpu\libg.a(lib_a-fprintf.o)
                              c:/devkitPro/portlibs/armv6k/lib\libconfig.a(libconfig_la-libconfig.o) (fprintf)
c:/devkitpro/devkitarm/bin/../lib/gcc/arm-none-eabi/4.9.2/../../../../arm-none-eabi/lib/armv6k/fpu\libg.a(lib_a-fputc.o)
                              c:/devkitPro/portlibs/armv6k/lib\libconfig.a(libconfig_la-libconfig.o) (fputc)
c:/devkitpro/devkitarm/bin/../lib/gcc/arm-none-eabi/4.9.2/../../../../arm-none-eabi/lib/armv6k/fpu\libg.a(lib_a-fputs.o)
                              c:/devkitPro/portlibs/armv6k/lib\libconfig.a(libconfig_la-libconfig.o) (fputs)
c:/devkitpro/devkitarm/bin/../lib/gcc/arm-none-eabi/4.9.2/../../../../arm-none-eabi/lib/armv6k/fpu\libg.a(lib_a-fread.o)
                              tinyxml2.o (fread)
c:/devkitpro/devkitarm/bin/../lib/gcc/arm-none-eabi/4.9.2/../../../../arm-none-eabi/lib/armv6k/fpu\libg.a(lib_a-freer.o)
                              c:/devkitpro/devkitarm/bin/../lib/gcc/arm-none-eabi/4.9.2/../../../../arm-none-eabi/lib/armv6k/fpu\libg.a(lib_a-fclose.o) (_free_r)
c:/devkitpro/devkitarm/bin/../lib/gcc/arm-none-eabi/4.9.2/../../../../arm-none-eabi/lib/armv6k/fpu\libg.a(lib_a-fseek.o)
                              c:/devkitpro/devkitarm/bin/../lib/gcc/arm-none-eabi/4.9.2/../../../../arm-none-eabi/lib/armv6k/fpu\libg.a(lib_a-fopen.o) (_fseek_r)
c:/devkitpro/devkitarm/bin/../lib/gcc/arm-none-eabi/4.9.2/../../../../arm-none-eabi/lib/armv6k/fpu\libg.a(lib_a-fseeko.o)
                              c:/devkitpro/devkitarm/bin/../lib/gcc/arm-none-eabi/4.9.2/../../../../arm-none-eabi/lib/armv6k/fpu\libg.a(lib_a-fseek.o) (_fseeko_r)
c:/devkitpro/devkitarm/bin/../lib/gcc/arm-none-eabi/4.9.2/../../../../arm-none-eabi/lib/armv6k/fpu\libg.a(lib_a-ftell.o)
                              tinyxml2.o (ftell)
c:/devkitpro/devkitarm/bin/../lib/gcc/arm-none-eabi/4.9.2/../../../../arm-none-eabi/lib/armv6k/fpu\libg.a(lib_a-ftello.o)
                              c:/devkitpro/devkitarm/bin/../lib/gcc/arm-none-eabi/4.9.2/../../../../arm-none-eabi/lib/armv6k/fpu\libg.a(lib_a-ftell.o) (_ftello_r)
c:/devkitpro/devkitarm/bin/../lib/gcc/arm-none-eabi/4.9.2/../../../../arm-none-eabi/lib/armv6k/fpu\libg.a(lib_a-fvwrite.o)
                              c:/devkitpro/devkitarm/bin/../lib/gcc/arm-none-eabi/4.9.2/../../../../arm-none-eabi/lib/armv6k/fpu\libg.a(lib_a-fputs.o) (__sfvwrite_r)
c:/devkitpro/devkitarm/bin/../lib/gcc/arm-none-eabi/4.9.2/../../../../arm-none-eabi/lib/armv6k/fpu\libg.a(lib_a-fwalk.o)
                              c:/devkitpro/devkitarm/bin/../lib/gcc/arm-none-eabi/4.9.2/../../../../arm-none-eabi/lib/armv6k/fpu\libg.a(lib_a-findfp.o) (_fwalk)
c:/devkitpro/devkitarm/bin/../lib/gcc/arm-none-eabi/4.9.2/../../../../arm-none-eabi/lib/armv6k/fpu\libg.a(lib_a-fwrite.o)
                              menu_netloader.o (fwrite)
c:/devkitpro/devkitarm/bin/../lib/gcc/arm-none-eabi/4.9.2/../../../../arm-none-eabi/lib/armv6k/fpu\libg.a(lib_a-impure.o)
                              c:/devkitpro/devkitarm/bin/../lib/gcc/arm-none-eabi/4.9.2/../../../../arm-none-eabi/lib/armv6k/fpu\libg.a(lib_a-exit.o) (_global_impure_ptr)
c:/devkitpro/devkitarm/bin/../lib/gcc/arm-none-eabi/4.9.2/../../../../arm-none-eabi/lib/armv6k/fpu\libg.a(lib_a-init.o)
                              c:/devkitPro/libctru/lib\libctru.a(stack_adjust.o) (__libc_init_array)
c:/devkitpro/devkitarm/bin/../lib/gcc/arm-none-eabi/4.9.2/../../../../arm-none-eabi/lib/armv6k/fpu\libg.a(lib_a-isalpha.o)
                              tinyxml2.o (isalpha)
c:/devkitpro/devkitarm/bin/../lib/gcc/arm-none-eabi/4.9.2/../../../../arm-none-eabi/lib/armv6k/fpu\libg.a(lib_a-isspace.o)
                              tinyxml2.o (isspace)
c:/devkitpro/devkitarm/bin/../lib/gcc/arm-none-eabi/4.9.2/../../../../arm-none-eabi/lib/armv6k/fpu\libg.a(lib_a-makebuf.o)
                              c:/devkitpro/devkitarm/bin/../lib/gcc/arm-none-eabi/4.9.2/../../../../arm-none-eabi/lib/armv6k/fpu\libg.a(lib_a-fseeko.o) (__smakebuf_r)
c:/devkitpro/devkitarm/bin/../lib/gcc/arm-none-eabi/4.9.2/../../../../arm-none-eabi/lib/armv6k/fpu\libg.a(lib_a-malign.o)
                              menu_netloader.o (memalign)
c:/devkitpro/devkitarm/bin/../lib/gcc/arm-none-eabi/4.9.2/../../../../arm-none-eabi/lib/armv6k/fpu\libg.a(lib_a-malignr.o)
                              c:/devkitpro/devkitarm/bin/../lib/gcc/arm-none-eabi/4.9.2/../../../../arm-none-eabi/lib/armv6k/fpu\libg.a(lib_a-malign.o) (_memalign_r)
c:/devkitpro/devkitarm/bin/../lib/gcc/arm-none-eabi/4.9.2/../../../../arm-none-eabi/lib/armv6k/fpu\libg.a(lib_a-malloc.o)
                              descriptor.o (malloc)
c:/devkitpro/devkitarm/bin/../lib/gcc/arm-none-eabi/4.9.2/../../../../arm-none-eabi/lib/armv6k/fpu\libg.a(lib_a-mallocr.o)
                              c:/devkitpro/devkitarm/bin/../lib/gcc/arm-none-eabi/4.9.2/../../../../arm-none-eabi/lib/armv6k/fpu\libg.a(lib_a-callocr.o) (_malloc_r)
c:/devkitpro/devkitarm/bin/../lib/gcc/arm-none-eabi/4.9.2/../../../../arm-none-eabi/lib/armv6k/fpu\libg.a(lib_a-memchr.o)
                              c:/devkitpro/devkitarm/bin/../lib/gcc/arm-none-eabi/4.9.2/../../../../arm-none-eabi/lib/armv6k/fpu\libg.a(lib_a-fvwrite.o) (memchr)
c:/devkitpro/devkitarm/bin/../lib/gcc/arm-none-eabi/4.9.2/../../../../arm-none-eabi/lib/armv6k/fpu\libg.a(lib_a-memcmp.o)
                              c:/devkitpro/devkitarm/bin/../lib/gcc/arm-none-eabi/4.9.2/../../../../arm-none-eabi/lib/armv6k/fpu\libstdc++.a(cp-demangle.o) (memcmp)
c:/devkitpro/devkitarm/bin/../lib/gcc/arm-none-eabi/4.9.2/../../../../arm-none-eabi/lib/armv6k/fpu\libg.a(lib_a-memcpy.o)
                              tinyxml2.o (memcpy)
c:/devkitpro/devkitarm/bin/../lib/gcc/arm-none-eabi/4.9.2/../../../../arm-none-eabi/lib/armv6k/fpu\libg.a(lib_a-memmove.o)
                              c:/devkitPro/portlibs/armv6k/lib\libconfig.a(libconfig_la-libconfig.o) (memmove)
c:/devkitpro/devkitarm/bin/../lib/gcc/arm-none-eabi/4.9.2/../../../../arm-none-eabi/lib/armv6k/fpu\libg.a(lib_a-memset.o)
                              tinyxml2.o (memset)
c:/devkitpro/devkitarm/bin/../lib/gcc/arm-none-eabi/4.9.2/../../../../arm-none-eabi/lib/armv6k/fpu\libg.a(lib_a-mlock.o)
                              c:/devkitpro/devkitarm/bin/../lib/gcc/arm-none-eabi/4.9.2/../../../../arm-none-eabi/lib/armv6k/fpu\libg.a(lib_a-freer.o) (__malloc_lock)
c:/devkitpro/devkitarm/bin/../lib/gcc/arm-none-eabi/4.9.2/../../../../arm-none-eabi/lib/armv6k/fpu\libg.a(lib_a-printf.o)
                              tinyxml2.o (printf)
c:/devkitpro/devkitarm/bin/../lib/gcc/arm-none-eabi/4.9.2/../../../../arm-none-eabi/lib/armv6k/fpu\libg.a(lib_a-putchar.o)
                              brahma.o (putchar)
c:/devkitpro/devkitarm/bin/../lib/gcc/arm-none-eabi/4.9.2/../../../../arm-none-eabi/lib/armv6k/fpu\libg.a(lib_a-putc.o)
                              c:/devkitpro/devkitarm/bin/../lib/gcc/arm-none-eabi/4.9.2/../../../../arm-none-eabi/lib/armv6k/fpu\libg.a(lib_a-fputc.o) (_putc_r)
c:/devkitpro/devkitarm/bin/../lib/gcc/arm-none-eabi/4.9.2/../../../../arm-none-eabi/lib/armv6k/fpu\libg.a(lib_a-puts.o)
                              brahma.o (puts)
c:/devkitpro/devkitarm/bin/../lib/gcc/arm-none-eabi/4.9.2/../../../../arm-none-eabi/lib/armv6k/fpu\libg.a(lib_a-qsort.o)
                              menu_picker.o (qsort)
c:/devkitpro/devkitarm/bin/../lib/gcc/arm-none-eabi/4.9.2/../../../../arm-none-eabi/lib/armv6k/fpu\libg.a(lib_a-rand.o)
                              main.o (srand)
c:/devkitpro/devkitarm/bin/../lib/gcc/arm-none-eabi/4.9.2/../../../../arm-none-eabi/lib/armv6k/fpu\libg.a(lib_a-realloc.o)
                              c:/devkitPro/portlibs/armv6k/lib\libconfig.a(libconfig_la-libconfig.o) (realloc)
c:/devkitpro/devkitarm/bin/../lib/gcc/arm-none-eabi/4.9.2/../../../../arm-none-eabi/lib/armv6k/fpu\libg.a(lib_a-reallocr.o)
                              c:/devkitpro/devkitarm/bin/../lib/gcc/arm-none-eabi/4.9.2/../../../../arm-none-eabi/lib/armv6k/fpu\libg.a(lib_a-fvwrite.o) (_realloc_r)
c:/devkitpro/devkitarm/bin/../lib/gcc/arm-none-eabi/4.9.2/../../../../arm-none-eabi/lib/armv6k/fpu\libg.a(lib_a-refill.o)
                              c:/devkitpro/devkitarm/bin/../lib/gcc/arm-none-eabi/4.9.2/../../../../arm-none-eabi/lib/armv6k/fpu\libg.a(lib_a-fread.o) (__srefill_r)
c:/devkitpro/devkitarm/bin/../lib/gcc/arm-none-eabi/4.9.2/../../../../arm-none-eabi/lib/armv6k/fpu\libg.a(lib_a-rewind.o)
                              brahma.o (rewind)
c:/devkitpro/devkitarm/bin/../lib/gcc/arm-none-eabi/4.9.2/../../../../arm-none-eabi/lib/armv6k/fpu\libg.a(lib_a-rget.o)
                              c:/devkitPro/portlibs/armv6k/lib\libconfig.a(libconfig_la-scanner.o) (__srget_r)
c:/devkitpro/devkitarm/bin/../lib/gcc/arm-none-eabi/4.9.2/../../../../arm-none-eabi/lib/armv6k/fpu\libg.a(lib_a-setvbuf.o)
                              menu_netloader.o (setvbuf)
c:/devkitpro/devkitarm/bin/../lib/gcc/arm-none-eabi/4.9.2/../../../../arm-none-eabi/lib/armv6k/fpu\libg.a(lib_a-signal.o)
                              c:/devkitpro/devkitarm/bin/../lib/gcc/arm-none-eabi/4.9.2/../../../../arm-none-eabi/lib/armv6k/fpu\libg.a(lib_a-abort.o) (raise)
c:/devkitpro/devkitarm/bin/../lib/gcc/arm-none-eabi/4.9.2/../../../../arm-none-eabi/lib/armv6k/fpu\libg.a(lib_a-siprintf.o)
                              menu_netloader.o (siprintf)
c:/devkitpro/devkitarm/bin/../lib/gcc/arm-none-eabi/4.9.2/../../../../arm-none-eabi/lib/armv6k/fpu\libg.a(lib_a-snprintf.o)
                              tinyxml2.o (snprintf)
c:/devkitpro/devkitarm/bin/../lib/gcc/arm-none-eabi/4.9.2/../../../../arm-none-eabi/lib/armv6k/fpu\libg.a(lib_a-sprintf.o)
                              menu_netloader.o (sprintf)
c:/devkitpro/devkitarm/bin/../lib/gcc/arm-none-eabi/4.9.2/../../../../arm-none-eabi/lib/armv6k/fpu\libg.a(lib_a-sscanf.o)
                              tinyxml2.o (sscanf)
c:/devkitpro/devkitarm/bin/../lib/gcc/arm-none-eabi/4.9.2/../../../../arm-none-eabi/lib/armv6k/fpu\libg.a(lib_a-stdio.o)
                              c:/devkitpro/devkitarm/bin/../lib/gcc/arm-none-eabi/4.9.2/../../../../arm-none-eabi/lib/armv6k/fpu\libg.a(lib_a-findfp.o) (__sread)
c:/devkitpro/devkitarm/bin/../lib/gcc/arm-none-eabi/4.9.2/../../../../arm-none-eabi/lib/armv6k/fpu\libg.a(lib_a-strcasecmp.o)
                              loader.o (strcasecmp)
c:/devkitpro/devkitarm/bin/../lib/gcc/arm-none-eabi/4.9.2/../../../../arm-none-eabi/lib/armv6k/fpu\libg.a(lib_a-strcat.o)
                              menu_netloader.o (strcat)
c:/devkitpro/devkitarm/bin/../lib/gcc/arm-none-eabi/4.9.2/../../../../arm-none-eabi/lib/armv6k/fpu\libg.a(lib_a-strchr.o)
                              tinyxml2.o (strchr)
c:/devkitpro/devkitarm/bin/../lib/gcc/arm-none-eabi/4.9.2/../../../../arm-none-eabi/lib/armv6k/fpu\libg.a(lib_a-strcmp.o)
                              descriptor.o (strcmp)
c:/devkitpro/devkitarm/bin/../lib/gcc/arm-none-eabi/4.9.2/../../../../arm-none-eabi/lib/armv6k/fpu\libg.a(lib_a-strcpy.o)
                              boot.o (strcpy)
c:/devkitpro/devkitarm/bin/../lib/gcc/arm-none-eabi/4.9.2/../../../../arm-none-eabi/lib/armv6k/fpu\libg.a(lib_a-strdup.o)
                              c:/devkitPro/portlibs/armv6k/lib\libconfig.a(libconfig_la-libconfig.o) (strdup)
c:/devkitpro/devkitarm/bin/../lib/gcc/arm-none-eabi/4.9.2/../../../../arm-none-eabi/lib/armv6k/fpu\libg.a(lib_a-strdup_r.o)
                              c:/devkitpro/devkitarm/bin/../lib/gcc/arm-none-eabi/4.9.2/../../../../arm-none-eabi/lib/armv6k/fpu\libg.a(lib_a-strdup.o) (_strdup_r)
c:/devkitpro/devkitarm/bin/../lib/gcc/arm-none-eabi/4.9.2/../../../../arm-none-eabi/lib/armv6k/fpu\libg.a(lib_a-strlen.o)
                              tinyxml2.o (strlen)
c:/devkitpro/devkitarm/bin/../lib/gcc/arm-none-eabi/4.9.2/../../../../arm-none-eabi/lib/armv6k/fpu\libg.a(lib_a-strncat.o)
                              c:/devkitPro/libctru/lib\libctru.a(sdmc_dev.o) (strncat)
c:/devkitpro/devkitarm/bin/../lib/gcc/arm-none-eabi/4.9.2/../../../../arm-none-eabi/lib/armv6k/fpu\libg.a(lib_a-strncmp.o)
                              tinyxml2.o (strncmp)
c:/devkitpro/devkitarm/bin/../lib/gcc/arm-none-eabi/4.9.2/../../../../arm-none-eabi/lib/armv6k/fpu\libg.a(lib_a-strncpy.o)
                              descriptor.o (strncpy)
c:/devkitpro/devkitarm/bin/../lib/gcc/arm-none-eabi/4.9.2/../../../../arm-none-eabi/lib/armv6k/fpu\libg.a(lib_a-strrchr.o)
                              menu_picker.o (strrchr)
c:/devkitpro/devkitarm/bin/../lib/gcc/arm-none-eabi/4.9.2/../../../../arm-none-eabi/lib/armv6k/fpu\libg.a(lib_a-strtod.o)
                              c:/devkitpro/devkitarm/bin/../lib/gcc/arm-none-eabi/4.9.2/../../../../arm-none-eabi/lib/armv6k/fpu\libg.a(lib_a-atof.o) (strtod)
c:/devkitpro/devkitarm/bin/../lib/gcc/arm-none-eabi/4.9.2/../../../../arm-none-eabi/lib/armv6k/fpu\libg.a(lib_a-strtoll.o)
                              c:/devkitpro/devkitarm/bin/../lib/gcc/arm-none-eabi/4.9.2/../../../../arm-none-eabi/lib/armv6k/fpu\libg.a(lib_a-atoll.o) (strtoll)
c:/devkitpro/devkitarm/bin/../lib/gcc/arm-none-eabi/4.9.2/../../../../arm-none-eabi/lib/armv6k/fpu\libg.a(lib_a-strtoll_r.o)
                              c:/devkitpro/devkitarm/bin/../lib/gcc/arm-none-eabi/4.9.2/../../../../arm-none-eabi/lib/armv6k/fpu\libg.a(lib_a-atoll.o) (_strtoll_r)
c:/devkitpro/devkitarm/bin/../lib/gcc/arm-none-eabi/4.9.2/../../../../arm-none-eabi/lib/armv6k/fpu\libg.a(lib_a-strtol.o)
                              c:/devkitpro/devkitarm/bin/../lib/gcc/arm-none-eabi/4.9.2/../../../../arm-none-eabi/lib/armv6k/fpu\libg.a(lib_a-atoi.o) (_strtol_r)
c:/devkitpro/devkitarm/bin/../lib/gcc/arm-none-eabi/4.9.2/../../../../arm-none-eabi/lib/armv6k/fpu\libg.a(lib_a-strtoull.o)
                              descriptor.o (strtoull)
c:/devkitpro/devkitarm/bin/../lib/gcc/arm-none-eabi/4.9.2/../../../../arm-none-eabi/lib/armv6k/fpu\libg.a(lib_a-strtoull_r.o)
                              c:/devkitpro/devkitarm/bin/../lib/gcc/arm-none-eabi/4.9.2/../../../../arm-none-eabi/lib/armv6k/fpu\libg.a(lib_a-strtoull.o) (_strtoull_r)
c:/devkitpro/devkitarm/bin/../lib/gcc/arm-none-eabi/4.9.2/../../../../arm-none-eabi/lib/armv6k/fpu\libg.a(lib_a-strtoul.o)
                              config.o (strtoul)
c:/devkitpro/devkitarm/bin/../lib/gcc/arm-none-eabi/4.9.2/../../../../arm-none-eabi/lib/armv6k/fpu\libg.a(lib_a-svfiprintf.o)
                              c:/devkitpro/devkitarm/bin/../lib/gcc/arm-none-eabi/4.9.2/../../../../arm-none-eabi/lib/armv6k/fpu\libg.a(lib_a-siprintf.o) (_svfiprintf_r)
c:/devkitpro/devkitarm/bin/../lib/gcc/arm-none-eabi/4.9.2/../../../../arm-none-eabi/lib/armv6k/fpu\libg.a(lib_a-svfprintf.o)
                              c:/devkitpro/devkitarm/bin/../lib/gcc/arm-none-eabi/4.9.2/../../../../arm-none-eabi/lib/armv6k/fpu\libg.a(lib_a-snprintf.o) (_svfprintf_r)
c:/devkitpro/devkitarm/bin/../lib/gcc/arm-none-eabi/4.9.2/../../../../arm-none-eabi/lib/armv6k/fpu\libg.a(lib_a-svfscanf.o)
                              c:/devkitpro/devkitarm/bin/../lib/gcc/arm-none-eabi/4.9.2/../../../../arm-none-eabi/lib/armv6k/fpu\libg.a(lib_a-sscanf.o) (__ssvfscanf_r)
c:/devkitpro/devkitarm/bin/../lib/gcc/arm-none-eabi/4.9.2/../../../../arm-none-eabi/lib/armv6k/fpu\libg.a(lib_a-sysclose.o)
                              menu_netloader.o (close)
c:/devkitpro/devkitarm/bin/../lib/gcc/arm-none-eabi/4.9.2/../../../../arm-none-eabi/lib/armv6k/fpu\libg.a(lib_a-sysfstat.o)
                              c:/devkitPro/portlibs/armv6k/lib\libconfig.a(libconfig_la-libconfig.o) (fstat)
c:/devkitpro/devkitarm/bin/../lib/gcc/arm-none-eabi/4.9.2/../../../../arm-none-eabi/lib/armv6k/fpu\libg.a(lib_a-sysopen.o)
                              menu_netloader.o (open)
c:/devkitpro/devkitarm/bin/../lib/gcc/arm-none-eabi/4.9.2/../../../../arm-none-eabi/lib/armv6k/fpu\libg.a(lib_a-sysstat.o)
                              menu_picker.o (stat)
c:/devkitpro/devkitarm/bin/../lib/gcc/arm-none-eabi/4.9.2/../../../../arm-none-eabi/lib/armv6k/fpu\libg.a(lib_a-syswrite.o)
                              c:/devkitpro/devkitarm/bin/../lib/gcc/arm-none-eabi/4.9.2/../../../../arm-none-eabi/lib/armv6k/fpu\libstdc++.a(pure.o) (write)
c:/devkitpro/devkitarm/bin/../lib/gcc/arm-none-eabi/4.9.2/../../../../arm-none-eabi/lib/armv6k/fpu\libg.a(lib_a-time.o)
                              menu_boot.o (time)
c:/devkitpro/devkitarm/bin/../lib/gcc/arm-none-eabi/4.9.2/../../../../arm-none-eabi/lib/armv6k/fpu\libg.a(lib_a-vfprintf.o)
                              c:/devkitpro/devkitarm/bin/../lib/gcc/arm-none-eabi/4.9.2/../../../../arm-none-eabi/lib/armv6k/fpu\libg.a(lib_a-fprintf.o) (_vfprintf_r)
c:/devkitpro/devkitarm/bin/../lib/gcc/arm-none-eabi/4.9.2/../../../../arm-none-eabi/lib/armv6k/fpu\libg.a(lib_a-vsprintf.o)
                              gfx.o (vsprintf)
c:/devkitpro/devkitarm/bin/../lib/gcc/arm-none-eabi/4.9.2/../../../../arm-none-eabi/lib/armv6k/fpu\libg.a(lib_a-wbuf.o)
                              c:/devkitpro/devkitarm/bin/../lib/gcc/arm-none-eabi/4.9.2/../../../../arm-none-eabi/lib/armv6k/fpu\libg.a(lib_a-putc.o) (__swbuf_r)
c:/devkitpro/devkitarm/bin/../lib/gcc/arm-none-eabi/4.9.2/../../../../arm-none-eabi/lib/armv6k/fpu\libg.a(lib_a-wcrtomb.o)
                              c:/devkitpro/devkitarm/bin/../lib/gcc/arm-none-eabi/4.9.2/../../../../arm-none-eabi/lib/armv6k/fpu\libg.a(lib_a-svfiprintf.o) (_wcrtomb_r)
c:/devkitpro/devkitarm/bin/../lib/gcc/arm-none-eabi/4.9.2/../../../../arm-none-eabi/lib/armv6k/fpu\libg.a(lib_a-wcsrtombs.o)
                              c:/devkitpro/devkitarm/bin/../lib/gcc/arm-none-eabi/4.9.2/../../../../arm-none-eabi/lib/armv6k/fpu\libg.a(lib_a-svfiprintf.o) (_wcsrtombs_r)
c:/devkitpro/devkitarm/bin/../lib/gcc/arm-none-eabi/4.9.2/../../../../arm-none-eabi/lib/armv6k/fpu\libg.a(lib_a-wctomb_r.o)
                              c:/devkitpro/devkitarm/bin/../lib/gcc/arm-none-eabi/4.9.2/../../../../arm-none-eabi/lib/armv6k/fpu\libg.a(lib_a-wcrtomb.o) (__wctomb)
c:/devkitpro/devkitarm/bin/../lib/gcc/arm-none-eabi/4.9.2/../../../../arm-none-eabi/lib/armv6k/fpu\libg.a(lib_a-wsetup.o)
                              c:/devkitpro/devkitarm/bin/../lib/gcc/arm-none-eabi/4.9.2/../../../../arm-none-eabi/lib/armv6k/fpu\libg.a(lib_a-fvwrite.o) (__swsetup_r)
c:/devkitpro/devkitarm/bin/../lib/gcc/arm-none-eabi/4.9.2/../../../../arm-none-eabi/lib/armv6k/fpu\libg.a(lib_a-__call_atexit.o)
                              c:/devkitpro/devkitarm/bin/../lib/gcc/arm-none-eabi/4.9.2/../../../../arm-none-eabi/lib/armv6k/fpu\libg.a(lib_a-exit.o) (__call_exitprocs)
c:/devkitpro/devkitarm/bin/../lib/gcc/arm-none-eabi/4.9.2/../../../../arm-none-eabi/lib/armv6k/fpu\libg.a(lib_a-dtoa.o)
                              c:/devkitpro/devkitarm/bin/../lib/gcc/arm-none-eabi/4.9.2/../../../../arm-none-eabi/lib/armv6k/fpu\libg.a(lib_a-svfprintf.o) (_dtoa_r)
c:/devkitpro/devkitarm/bin/../lib/gcc/arm-none-eabi/4.9.2/../../../../arm-none-eabi/lib/armv6k/fpu\libg.a(lib_a-flags.o)
                              c:/devkitpro/devkitarm/bin/../lib/gcc/arm-none-eabi/4.9.2/../../../../arm-none-eabi/lib/armv6k/fpu\libg.a(lib_a-fopen.o) (__sflags)
c:/devkitpro/devkitarm/bin/../lib/gcc/arm-none-eabi/4.9.2/../../../../arm-none-eabi/lib/armv6k/fpu\libg.a(lib_a-gdtoa-gethex.o)
                              c:/devkitpro/devkitarm/bin/../lib/gcc/arm-none-eabi/4.9.2/../../../../arm-none-eabi/lib/armv6k/fpu\libg.a(lib_a-strtod.o) (__gethex)
c:/devkitpro/devkitarm/bin/../lib/gcc/arm-none-eabi/4.9.2/../../../../arm-none-eabi/lib/armv6k/fpu\libg.a(lib_a-gdtoa-hexnan.o)
                              c:/devkitpro/devkitarm/bin/../lib/gcc/arm-none-eabi/4.9.2/../../../../arm-none-eabi/lib/armv6k/fpu\libg.a(lib_a-strtod.o) (__hexnan)
c:/devkitpro/devkitarm/bin/../lib/gcc/arm-none-eabi/4.9.2/../../../../arm-none-eabi/lib/armv6k/fpu\libg.a(lib_a-iswspace.o)
                              c:/devkitpro/devkitarm/bin/../lib/gcc/arm-none-eabi/4.9.2/../../../../arm-none-eabi/lib/armv6k/fpu\libg.a(lib_a-svfscanf.o) (iswspace)
c:/devkitpro/devkitarm/bin/../lib/gcc/arm-none-eabi/4.9.2/../../../../arm-none-eabi/lib/armv6k/fpu\libg.a(lib_a-jp2uc.o)
                              c:/devkitpro/devkitarm/bin/../lib/gcc/arm-none-eabi/4.9.2/../../../../arm-none-eabi/lib/armv6k/fpu\libg.a(lib_a-iswspace.o) (_jp2uc)
c:/devkitpro/devkitarm/bin/../lib/gcc/arm-none-eabi/4.9.2/../../../../arm-none-eabi/lib/armv6k/fpu\libg.a(lib_a-locale.o)
                              c:/devkitpro/devkitarm/bin/../lib/gcc/arm-none-eabi/4.9.2/../../../../arm-none-eabi/lib/armv6k/fpu\libg.a(lib_a-svfiprintf.o) (__locale_charset)
c:/devkitpro/devkitarm/bin/../lib/gcc/arm-none-eabi/4.9.2/../../../../arm-none-eabi/lib/armv6k/fpu\libg.a(lib_a-mbrtowc.o)
                              c:/devkitpro/devkitarm/bin/../lib/gcc/arm-none-eabi/4.9.2/../../../../arm-none-eabi/lib/armv6k/fpu\libg.a(lib_a-svfscanf.o) (_mbrtowc_r)
c:/devkitpro/devkitarm/bin/../lib/gcc/arm-none-eabi/4.9.2/../../../../arm-none-eabi/lib/armv6k/fpu\libg.a(lib_a-mbtowc_r.o)
                              c:/devkitpro/devkitarm/bin/../lib/gcc/arm-none-eabi/4.9.2/../../../../arm-none-eabi/lib/armv6k/fpu\libg.a(lib_a-locale.o) (__utf8_mbtowc)
c:/devkitpro/devkitarm/bin/../lib/gcc/arm-none-eabi/4.9.2/../../../../arm-none-eabi/lib/armv6k/fpu\libg.a(lib_a-mprec.o)
                              c:/devkitpro/devkitarm/bin/../lib/gcc/arm-none-eabi/4.9.2/../../../../arm-none-eabi/lib/armv6k/fpu\libg.a(lib_a-strtod.o) (_Balloc)
c:/devkitpro/devkitarm/bin/../lib/gcc/arm-none-eabi/4.9.2/../../../../arm-none-eabi/lib/armv6k/fpu\libg.a(lib_a-sccl.o)
                              c:/devkitpro/devkitarm/bin/../lib/gcc/arm-none-eabi/4.9.2/../../../../arm-none-eabi/lib/armv6k/fpu\libg.a(lib_a-svfscanf.o) (__sccl)
c:/devkitpro/devkitarm/bin/../lib/gcc/arm-none-eabi/4.9.2/../../../../arm-none-eabi/lib/armv6k/fpu\libg.a(lib_a-sf_nan.o)
                              c:/devkitpro/devkitarm/bin/../lib/gcc/arm-none-eabi/4.9.2/../../../../arm-none-eabi/lib/armv6k/fpu\libg.a(lib_a-strtod.o) (nanf)
c:/devkitpro/devkitarm/bin/../lib/gcc/arm-none-eabi/4.9.2/../../../../arm-none-eabi/lib/armv6k/fpu\libg.a(lib_a-s_fpclassify.o)
                              c:/devkitpro/devkitarm/bin/../lib/gcc/arm-none-eabi/4.9.2/../../../../arm-none-eabi/lib/armv6k/fpu\libg.a(lib_a-strtod.o) (__fpclassifyd)
c:/devkitpro/devkitarm/bin/../lib/gcc/arm-none-eabi/4.9.2/../../../../arm-none-eabi/lib/armv6k/fpu\libg.a(lib_a-s_frexp.o)
                              c:/devkitpro/devkitarm/bin/../lib/gcc/arm-none-eabi/4.9.2/../../../../arm-none-eabi/lib/armv6k/fpu\libg.a(lib_a-svfprintf.o) (frexp)
c:/devkitpro/devkitarm/bin/../lib/gcc/arm-none-eabi/4.9.2/../../../../arm-none-eabi/lib/armv6k/fpu\libg.a(lib_a-stpncpy.o)
                              c:/devkitpro/devkitarm/bin/../lib/gcc/arm-none-eabi/4.9.2/../../../../arm-none-eabi/lib/armv6k/fpu\libg.a(lib_a-svfscanf.o) (stpncpy)
c:/devkitpro/devkitarm/bin/../lib/gcc/arm-none-eabi/4.9.2/../../../../arm-none-eabi/lib/armv6k/fpu\libg.a(lib_a-strlcpy.o)
                              c:/devkitpro/devkitarm/bin/../lib/gcc/arm-none-eabi/4.9.2/../../../../arm-none-eabi/lib/armv6k/fpu\libg.a(lib_a-locale.o) (strlcpy)
c:/devkitpro/devkitarm/bin/../lib/gcc/arm-none-eabi/4.9.2/../../../../arm-none-eabi/lib/armv6k/fpu\libg.a(lib_a-strncasecmp.o)
                              c:/devkitpro/devkitarm/bin/../lib/gcc/arm-none-eabi/4.9.2/../../../../arm-none-eabi/lib/armv6k/fpu\libg.a(lib_a-locale.o) (strncasecmp)
c:/devkitpro/devkitarm/bin/../lib/gcc/arm-none-eabi/4.9.2/../../../../arm-none-eabi/lib/armv6k/fpu\libg.a(lib_a-svfiscanf.o)
                              c:/devkitpro/devkitarm/bin/../lib/gcc/arm-none-eabi/4.9.2/../../../../arm-none-eabi/lib/armv6k/fpu\libg.a(lib_a-svfscanf.o) (_sungetc_r)
c:/devkitpro/devkitarm/bin/../lib/gcc/arm-none-eabi/4.9.2/../../../../arm-none-eabi/lib/armv6k/fpu\libg.a(lib_a-ungetc.o)
                              c:/devkitpro/devkitarm/bin/../lib/gcc/arm-none-eabi/4.9.2/../../../../arm-none-eabi/lib/armv6k/fpu\libg.a(lib_a-svfiscanf.o) (__submore)
c:/devkitpro/devkitarm/bin/../lib/gcc/arm-none-eabi/4.9.2/../../../../arm-none-eabi/lib/armv6k/fpu\libg.a(lib_a-vfiprintf.o)
                              c:/devkitpro/devkitarm/bin/../lib/gcc/arm-none-eabi/4.9.2/../../../../arm-none-eabi/lib/armv6k/fpu\libg.a(lib_a-vfprintf.o) (__sprint_r)
c:/devkitpro/devkitarm/bin/../lib/gcc/arm-none-eabi/4.9.2/../../../../arm-none-eabi/lib/armv6k/fpu\libg.a(lib_a-wcsnrtombs.o)
                              c:/devkitpro/devkitarm/bin/../lib/gcc/arm-none-eabi/4.9.2/../../../../arm-none-eabi/lib/armv6k/fpu\libg.a(lib_a-wcsrtombs.o) (_wcsnrtombs_r)
c:/devkitpro/devkitarm/bin/../lib/gcc/arm-none-eabi/4.9.2/../../../../arm-none-eabi/lib/armv6k/fpu\libg.a(lib_a-fputwc.o)
                              c:/devkitpro/devkitarm/bin/../lib/gcc/arm-none-eabi/4.9.2/../../../../arm-none-eabi/lib/armv6k/fpu\libg.a(lib_a-vfiprintf.o) (_fputwc_r)
c:/devkitpro/devkitarm/bin/../lib/gcc/arm-none-eabi/4.9.2/../../../../arm-none-eabi/lib/armv6k/fpu\libg.a(lib_a-getenv_r.o)
                              c:/devkitpro/devkitarm/bin/../lib/gcc/arm-none-eabi/4.9.2/../../../../arm-none-eabi/lib/armv6k/fpu\libg.a(lib_a-locale.o) (_getenv_r)
c:/devkitpro/devkitarm/bin/../lib/gcc/arm-none-eabi/4.9.2/../../../../arm-none-eabi/lib/armv6k/fpu\libg.a(lib_a-environ.o)
                              c:/devkitpro/devkitarm/bin/../lib/gcc/arm-none-eabi/4.9.2/../../../../arm-none-eabi/lib/armv6k/fpu\libg.a(lib_a-getenv_r.o) (environ)
c:/devkitpro/devkitarm/bin/../lib/gcc/arm-none-eabi/4.9.2/../../../../arm-none-eabi/lib/armv6k/fpu\libg.a(lib_a-envlock.o)
                              c:/devkitpro/devkitarm/bin/../lib/gcc/arm-none-eabi/4.9.2/../../../../arm-none-eabi/lib/armv6k/fpu\libg.a(lib_a-getenv_r.o) (__env_lock)
c:/devkitpro/devkitarm/bin/../lib/gcc/arm-none-eabi/4.9.2/../../../../arm-none-eabi/lib/armv6k/fpu\libsysbase.a(iosupport.o)
                              c:/devkitPro/libctru/lib\libctru.a(sdmc_dev.o) (setDefaultDevice)
c:/devkitpro/devkitarm/bin/../lib/gcc/arm-none-eabi/4.9.2/../../../../arm-none-eabi/lib/armv6k/fpu\libsysbase.a(close.o)
                              c:/devkitpro/devkitarm/bin/../lib/gcc/arm-none-eabi/4.9.2/../../../../arm-none-eabi/lib/armv6k/fpu\libg.a(lib_a-stdio.o) (_close_r)
c:/devkitpro/devkitarm/bin/../lib/gcc/arm-none-eabi/4.9.2/../../../../arm-none-eabi/lib/armv6k/fpu\libsysbase.a(fstat.o)
                              c:/devkitpro/devkitarm/bin/../lib/gcc/arm-none-eabi/4.9.2/../../../../arm-none-eabi/lib/armv6k/fpu\libg.a(lib_a-fseeko.o) (_fstat_r)
c:/devkitpro/devkitarm/bin/../lib/gcc/arm-none-eabi/4.9.2/../../../../arm-none-eabi/lib/armv6k/fpu\libsysbase.a(getpid.o)
                              c:/devkitpro/devkitarm/bin/../lib/gcc/arm-none-eabi/4.9.2/../../../../arm-none-eabi/lib/armv6k/fpu\libg.a(lib_a-signal.o) (_getpid_r)
c:/devkitpro/devkitarm/bin/../lib/gcc/arm-none-eabi/4.9.2/../../../../arm-none-eabi/lib/armv6k/fpu\libsysbase.a(gettod.o)
                              c:/devkitpro/devkitarm/bin/../lib/gcc/arm-none-eabi/4.9.2/../../../../arm-none-eabi/lib/armv6k/fpu\libg.a(lib_a-time.o) (_gettimeofday_r)
c:/devkitpro/devkitarm/bin/../lib/gcc/arm-none-eabi/4.9.2/../../../../arm-none-eabi/lib/armv6k/fpu\libsysbase.a(isatty.o)
                              c:/devkitpro/devkitarm/bin/../lib/gcc/arm-none-eabi/4.9.2/../../../../arm-none-eabi/lib/armv6k/fpu\libg.a(lib_a-makebuf.o) (_isatty_r)
c:/devkitpro/devkitarm/bin/../lib/gcc/arm-none-eabi/4.9.2/../../../../arm-none-eabi/lib/armv6k/fpu\libsysbase.a(kill.o)
                              c:/devkitpro/devkitarm/bin/../lib/gcc/arm-none-eabi/4.9.2/../../../../arm-none-eabi/lib/armv6k/fpu\libg.a(lib_a-signal.o) (_kill_r)
c:/devkitpro/devkitarm/bin/../lib/gcc/arm-none-eabi/4.9.2/../../../../arm-none-eabi/lib/armv6k/fpu\libsysbase.a(lseek.o)
                              c:/devkitpro/devkitarm/bin/../lib/gcc/arm-none-eabi/4.9.2/../../../../arm-none-eabi/lib/armv6k/fpu\libg.a(lib_a-stdio.o) (_lseek_r)
c:/devkitpro/devkitarm/bin/../lib/gcc/arm-none-eabi/4.9.2/../../../../arm-none-eabi/lib/armv6k/fpu\libsysbase.a(open.o)
                              c:/devkitpro/devkitarm/bin/../lib/gcc/arm-none-eabi/4.9.2/../../../../arm-none-eabi/lib/armv6k/fpu\libg.a(lib_a-fopen.o) (_open_r)
c:/devkitpro/devkitarm/bin/../lib/gcc/arm-none-eabi/4.9.2/../../../../arm-none-eabi/lib/armv6k/fpu\libsysbase.a(read.o)
                              c:/devkitpro/devkitarm/bin/../lib/gcc/arm-none-eabi/4.9.2/../../../../arm-none-eabi/lib/armv6k/fpu\libg.a(lib_a-stdio.o) (_read_r)
c:/devkitpro/devkitarm/bin/../lib/gcc/arm-none-eabi/4.9.2/../../../../arm-none-eabi/lib/armv6k/fpu\libsysbase.a(sbrk.o)
                              c:/devkitpro/devkitarm/bin/../lib/gcc/arm-none-eabi/4.9.2/../../../../arm-none-eabi/lib/armv6k/fpu\libg.a(lib_a-freer.o) (_sbrk_r)
c:/devkitpro/devkitarm/bin/../lib/gcc/arm-none-eabi/4.9.2/../../../../arm-none-eabi/lib/armv6k/fpu\libsysbase.a(stat.o)
                              c:/devkitpro/devkitarm/bin/../lib/gcc/arm-none-eabi/4.9.2/../../../../arm-none-eabi/lib/armv6k/fpu\libg.a(lib_a-sysstat.o) (_stat_r)
c:/devkitpro/devkitarm/bin/../lib/gcc/arm-none-eabi/4.9.2/../../../../arm-none-eabi/lib/armv6k/fpu\libsysbase.a(write.o)
                              c:/devkitpro/devkitarm/bin/../lib/gcc/arm-none-eabi/4.9.2/../../../../arm-none-eabi/lib/armv6k/fpu\libg.a(lib_a-stdio.o) (_write_r)
c:/devkitpro/devkitarm/bin/../lib/gcc/arm-none-eabi/4.9.2/../../../../arm-none-eabi/lib/armv6k/fpu\libsysbase.a(_exit.o)
                              c:/devkitpro/devkitarm/bin/../lib/gcc/arm-none-eabi/4.9.2/../../../../arm-none-eabi/lib/armv6k/fpu\libg.a(lib_a-abort.o) (_exit)
c:/devkitpro/devkitarm/bin/../lib/gcc/arm-none-eabi/4.9.2/../../../../arm-none-eabi/lib/armv6k/fpu\libsysbase.a(malloc_vars.o)
                              c:/devkitPro/libctru/lib\libctru.a(allocateHeaps.o) (fake_heap_start)
c:/devkitpro/devkitarm/bin/../lib/gcc/arm-none-eabi/4.9.2/../../../../arm-none-eabi/lib/armv6k/fpu\libsysbase.a(chdir.o)
                              menu_netloader.o (chdir)
c:/devkitpro/devkitarm/bin/../lib/gcc/arm-none-eabi/4.9.2/../../../../arm-none-eabi/lib/armv6k/fpu\libsysbase.a(flock.o)
                              c:/devkitpro/devkitarm/bin/../lib/gcc/arm-none-eabi/4.9.2/../../../../arm-none-eabi/lib/armv6k/fpu\libg.a(lib_a-fclose.o) (__flockfile)
c:/devkitpro/devkitarm/bin/../lib/gcc/arm-none-eabi/4.9.2/../../../../arm-none-eabi/lib/armv6k/fpu\libsysbase.a(syscall_support.o)
                              c:/devkitPro/libctru/lib\libctru.a(initSystem.o) (__syscalls)
c:/devkitpro/devkitarm/bin/../lib/gcc/arm-none-eabi/4.9.2/../../../../arm-none-eabi/lib/armv6k/fpu\libsysbase.a(handle_manager.o)
                              c:/devkitPro/libctru/lib\libctru.a(soc_accept.o) (__release_handle)
c:/devkitpro/devkitarm/bin/../lib/gcc/arm-none-eabi/4.9.2/../../../../arm-none-eabi/lib/armv6k/fpu\libsysbase.a(ftruncate.o)
                              menu_netloader.o (ftruncate)
c:/devkitpro/devkitarm/bin/../lib/gcc/arm-none-eabi/4.9.2/../../../../arm-none-eabi/lib/armv6k/fpu\libsysbase.a(dirent.o)
                              menu_picker.o (opendir)
c:/devkitpro/devkitarm/bin/../lib/gcc/arm-none-eabi/4.9.2/../../../../arm-none-eabi/lib/armv6k/fpu\libsysbase.a(getreent.o)
                              c:/devkitPro/portlibs/armv6k/lib\libconfig.a(libconfig_la-scanner.o) (__getreent)
c:/devkitpro/devkitarm/bin/../lib/gcc/arm-none-eabi/4.9.2/armv6k/fpu\libgcc.a(_divsi3.o)
                              c:/devkitpro/devkitarm/bin/../lib/gcc/arm-none-eabi/4.9.2/../../../../arm-none-eabi/lib/armv6k/fpu\libg.a(lib_a-fvwrite.o) (__aeabi_idiv)
c:/devkitpro/devkitarm/bin/../lib/gcc/arm-none-eabi/4.9.2/armv6k/fpu\libgcc.a(_aeabi_uldivmod.o)
                              c:/devkitpro/devkitarm/bin/../lib/gcc/arm-none-eabi/4.9.2/../../../../arm-none-eabi/lib/armv6k/fpu\libg.a(lib_a-strtoll_r.o) (__aeabi_uldivmod)
c:/devkitpro/devkitarm/bin/../lib/gcc/arm-none-eabi/4.9.2/armv6k/fpu\libgcc.a(bpabi.o)
                              c:/devkitpro/devkitarm/bin/../lib/gcc/arm-none-eabi/4.9.2/armv6k/fpu\libgcc.a(_aeabi_uldivmod.o) (__gnu_uldivmod_helper)
c:/devkitpro/devkitarm/bin/../lib/gcc/arm-none-eabi/4.9.2/armv6k/fpu\libgcc.a(_divdi3.o)
                              c:/devkitpro/devkitarm/bin/../lib/gcc/arm-none-eabi/4.9.2/armv6k/fpu\libgcc.a(bpabi.o) (__divdi3)
c:/devkitpro/devkitarm/bin/../lib/gcc/arm-none-eabi/4.9.2/armv6k/fpu\libgcc.a(_udivdi3.o)
                              c:/devkitpro/devkitarm/bin/../lib/gcc/arm-none-eabi/4.9.2/armv6k/fpu\libgcc.a(bpabi.o) (__udivdi3)
c:/devkitpro/devkitarm/bin/../lib/gcc/arm-none-eabi/4.9.2/../../../../arm-none-eabi/lib/armv6k/fpu\libg.a(lib_a-strnlen.o)
                              c:/devkitpro/devkitarm/bin/../lib/gcc/arm-none-eabi/4.9.2/../../../../arm-none-eabi/lib/armv6k/fpu\libsysbase.a(chdir.o) (strnlen)

Allocating common symbols
Common symbol       size              file

hidMemHandle        0x4               c:/devkitPro/libctru/lib\libctru.a(hid.o)
__heapBase          0x4               c:/devkitPro/libctru/lib\libctru.a(allocateHeaps.o)
aptEventHandlerThread
                    0x4               c:/devkitPro/libctru/lib\libctru.a(apt.o)
hidHandle           0x4               c:/devkitPro/libctru/lib\libctru.a(hid.o)
gspEventStack       0x1000            c:/devkitPro/libctru/lib\libctru.a(gsp.o)
in                  0x4000            menu_netloader.o
gfxBottomFramebuffers
                    0x8               c:/devkitPro/libctru/lib\libctru.a(gfx.o)
gspSharedMemHandle  0x4               c:/devkitPro/libctru/lib\libctru.a(gfx.o)
__system_argv       0x4               c:/devkitPro/libctru/lib\libctru.a(initArgv.o)
boot_app            0x200             loader.o
boot_app_enabled    0x1               loader.o
out                 0x4000            menu_netloader.o
hidSharedMem        0x4               c:/devkitPro/libctru/lib\libctru.a(hid.o)
__system_argc       0x4               c:/devkitPro/libctru/lib\libctru.a(initArgv.o)
bottomFramebufferInfo
                    0x1c              brahma.o
__linear_heap       0x4               c:/devkitPro/libctru/lib\libctru.a(allocateHeaps.o)
aptParameters       0x1000            c:/devkitPro/libctru/lib\libctru.a(apt.o)
aptEventHandlerStack
                    0x1000            c:/devkitPro/libctru/lib\libctru.a(apt.o)
aptuHandle          0x4               c:/devkitPro/libctru/lib\libctru.a(apt.o)
irrstHandle         0x4               c:/devkitPro/libctru/lib\libctru.a(irrst.o)
aptEvents           0xc               c:/devkitPro/libctru/lib\libctru.a(apt.o)
sdmcArchive         0x18              utility.o
gspEventThread      0x4               c:/devkitPro/libctru/lib\libctru.a(gsp.o)
gspEvent            0x4               c:/devkitPro/libctru/lib\libctru.a(gfx.o)
hidEvents           0x14              c:/devkitPro/libctru/lib\libctru.a(hid.o)
__system_retAddr    0x4               c:/devkitPro/libctru/lib\libctru.a(initSystem.o)
irrstEvent          0x4               c:/devkitPro/libctru/lib\libctru.a(irrst.o)
target_title        0x18              boot.o
picker              0x4               menu_picker.o
cfg                 0x2c              config.o
gspEventCounts      0x1c              c:/devkitPro/libctru/lib\libctru.a(gsp.o)
irrstMemHandle      0x4               c:/devkitPro/libctru/lib\libctru.a(irrst.o)
gfxTopLeftFramebuffers
                    0x8               c:/devkitPro/libctru/lib\libctru.a(gfx.o)
gfxTopRightFramebuffers
                    0x8               c:/devkitPro/libctru/lib\libctru.a(gfx.o)
topFramebufferInfo  0x1c              brahma.o
gspEvents           0x1c              c:/devkitPro/libctru/lib\libctru.a(gsp.o)
gfxThreadID         0x1               c:/devkitPro/libctru/lib\libctru.a(gfx.o)
gfxSharedMemory     0x4               c:/devkitPro/libctru/lib\libctru.a(gfx.o)
gspRunEvents        0x1               c:/devkitPro/libctru/lib\libctru.a(gsp.o)
callBootloader_1x   0x4               boot.o
setArgs_1x          0x4               boot.o
irrstSharedMem      0x4               c:/devkitPro/libctru/lib\libctru.a(irrst.o)
aptStatusMutex      0x4               c:/devkitPro/libctru/lib\libctru.a(apt.o)
gxCmdBuf            0x4               c:/devkitPro/libctru/lib\libctru.a(gx.o)
aptLockHandle       0x4               c:/devkitPro/libctru/lib\libctru.a(apt.o)
config              0x4               config.o
currentAppId        0x2               c:/devkitPro/libctru/lib\libctru.a(apt.o)

Discarded input sections

 .comment       0x00000000       0x23 c:/devkitpro/devkitarm/bin/../lib/gcc/arm-none-eabi/4.9.2/armv6k/fpu/crtbegin.o
 .comment       0x00000000       0x23 descriptor.o
 .group         0x00000000        0x8 tinyxml2.o
 .group         0x00000000        0x8 tinyxml2.o
 .group         0x00000000        0x8 tinyxml2.o
 .group         0x00000000        0x8 tinyxml2.o
 .group         0x00000000        0x8 tinyxml2.o
 .group         0x00000000        0x8 tinyxml2.o
 .group         0x00000000        0x8 tinyxml2.o
 .group         0x00000000        0x8 tinyxml2.o
 .group         0x00000000        0x8 tinyxml2.o
 .group         0x00000000        0x8 tinyxml2.o
 .group         0x00000000        0x8 tinyxml2.o
 .group         0x00000000        0x8 tinyxml2.o
 .group         0x00000000        0x8 tinyxml2.o
 .group         0x00000000        0x8 tinyxml2.o
 .group         0x00000000        0x8 tinyxml2.o
 .group         0x00000000        0x8 tinyxml2.o
 .group         0x00000000        0x8 tinyxml2.o
 .group         0x00000000        0x8 tinyxml2.o
 .group         0x00000000        0x8 tinyxml2.o
 .group         0x00000000        0x8 tinyxml2.o
 .group         0x00000000        0x8 tinyxml2.o
 .group         0x00000000        0x8 tinyxml2.o
 .group         0x00000000        0x8 tinyxml2.o
 .group         0x00000000        0x8 tinyxml2.o
 .group         0x00000000        0x8 tinyxml2.o
 .group         0x00000000        0x8 tinyxml2.o
 .group         0x00000000        0x8 tinyxml2.o
 .group         0x00000000        0x8 tinyxml2.o
 .group         0x00000000        0x8 tinyxml2.o
 .group         0x00000000        0x8 tinyxml2.o
 .group         0x00000000        0x8 tinyxml2.o
 .group         0x00000000        0x8 tinyxml2.o
 .group         0x00000000        0x8 tinyxml2.o
 .group         0x00000000        0x8 tinyxml2.o
 .group         0x00000000        0x8 tinyxml2.o
 .group         0x00000000        0x8 tinyxml2.o
 .group         0x00000000        0x8 tinyxml2.o
 .group         0x00000000        0x8 tinyxml2.o
 .group         0x00000000        0x8 tinyxml2.o
 .group         0x00000000        0x8 tinyxml2.o
 .group         0x00000000        0x8 tinyxml2.o
 .group         0x00000000        0x8 tinyxml2.o
 .group         0x00000000        0x8 tinyxml2.o
 .group         0x00000000        0x8 tinyxml2.o
 .group         0x00000000        0x8 tinyxml2.o
 .group         0x00000000        0x8 tinyxml2.o
 .group         0x00000000        0x8 tinyxml2.o
 .group         0x00000000        0x8 tinyxml2.o
 .group         0x00000000        0x8 tinyxml2.o
 .group         0x00000000        0x8 tinyxml2.o
 .group         0x00000000        0x8 tinyxml2.o
 .group         0x00000000        0x8 tinyxml2.o
 .group         0x00000000        0x8 tinyxml2.o
 .group         0x00000000        0x8 tinyxml2.o
 .group         0x00000000        0xc tinyxml2.o
 .group         0x00000000        0xc tinyxml2.o
 .group         0x00000000        0xc tinyxml2.o
 .group         0x00000000        0xc tinyxml2.o
 .group         0x00000000        0xc tinyxml2.o
 .group         0x00000000        0xc tinyxml2.o
 .group         0x00000000        0x8 tinyxml2.o
 .group         0x00000000        0x8 tinyxml2.o
 .group         0x00000000        0x8 tinyxml2.o
 .group         0x00000000        0x8 tinyxml2.o
 .group         0x00000000        0x8 tinyxml2.o
 .comment       0x00000000       0x23 tinyxml2.o
 .group         0x00000000        0x8 khaxinit.o
 .group         0x00000000        0x8 khaxinit.o
 .group         0x00000000        0x8 khaxinit.o
 .comment       0x00000000       0x23 khaxinit.o
 .comment       0x00000000       0x23 boot.o
 .comment       0x00000000       0x23 config.o
 .comment       0x00000000       0x23 font.o
 .comment       0x00000000       0x23 font1.o
 .comment       0x00000000       0x23 font2.o
 .comment       0x00000000       0x23 gfx.o
 .comment       0x00000000       0x23 loader.o
 .comment       0x00000000       0x23 main.o
 .comment       0x00000000       0x23 menu_boot.o
 .comment       0x00000000       0x23 menu_config.o
 .comment       0x00000000       0x23 menu_more.o
 .comment       0x00000000       0x23 menu_netloader.o
 .comment       0x00000000       0x23 menu_picker.o
 .comment       0x00000000       0x23 scanner.o
 .comment       0x00000000       0x23 text.o
 .comment       0x00000000       0x23 utility.o
 .comment       0x00000000       0x23 brahma.o
 .comment       0x00000000       0x23 c:/devkitPro/portlibs/armv6k/lib\libconfig.a(libconfig_la-libconfig.o)
 .comment       0x00000000       0x23 c:/devkitPro/portlibs/armv6k/lib\libconfig.a(libconfig_la-scanner.o)
 .comment       0x00000000       0x23 c:/devkitPro/portlibs/armv6k/lib\libconfig.a(libconfig_la-grammar.o)
 .comment       0x00000000       0x23 c:/devkitPro/portlibs/armv6k/lib\libconfig.a(libconfig_la-scanctx.o)
 .comment       0x00000000       0x23 c:/devkitPro/portlibs/armv6k/lib\libconfig.a(libconfig_la-strbuf.o)
 .comment       0x00000000       0x23 c:/devkitPro/libctru/lib\libctru.a(linear.o)
 .comment       0x00000000       0x23 c:/devkitPro/libctru/lib\libctru.a(mem_pool.o)
 .comment       0x00000000       0x23 c:/devkitPro/libctru/lib\libctru.a(gfx.o)
 .comment       0x00000000       0x23 c:/devkitPro/libctru/lib\libctru.a(os.o)
 .comment       0x00000000       0x23 c:/devkitPro/libctru/lib\libctru.a(sdmc_dev.o)
 .comment       0x00000000       0x23 c:/devkitPro/libctru/lib\libctru.a(srv.o)
 .comment       0x00000000       0x23 c:/devkitPro/libctru/lib\libctru.a(ac.o)
 .comment       0x00000000       0x23 c:/devkitPro/libctru/lib\libctru.a(am.o)
 .comment       0x00000000       0x23 c:/devkitPro/libctru/lib\libctru.a(apt.o)
 .comment       0x00000000       0x23 c:/devkitPro/libctru/lib\libctru.a(fs.o)
 .comment       0x00000000       0x23 c:/devkitPro/libctru/lib\libctru.a(gsp.o)
 .comment       0x00000000       0x23 c:/devkitPro/libctru/lib\libctru.a(gx.o)
 .comment       0x00000000       0x23 c:/devkitPro/libctru/lib\libctru.a(hb.o)
 .comment       0x00000000       0x23 c:/devkitPro/libctru/lib\libctru.a(hid.o)
 .comment       0x00000000       0x23 c:/devkitPro/libctru/lib\libctru.a(irrst.o)
 .comment       0x00000000       0x23 c:/devkitPro/libctru/lib\libctru.a(ptm.o)
 .comment       0x00000000       0x23 c:/devkitPro/libctru/lib\libctru.a(soc_accept.o)
 .comment       0x00000000       0x23 c:/devkitPro/libctru/lib\libctru.a(soc_bind.o)
 .comment       0x00000000       0x23 c:/devkitPro/libctru/lib\libctru.a(soc_closesocket.o)
 .comment       0x00000000       0x23 c:/devkitPro/libctru/lib\libctru.a(soc_common.o)
 .comment       0x00000000       0x23 c:/devkitPro/libctru/lib\libctru.a(soc_fcntl.o)
 .comment       0x00000000       0x23 c:/devkitPro/libctru/lib\libctru.a(soc_gethostid.o)
 .comment       0x00000000       0x23 c:/devkitPro/libctru/lib\libctru.a(soc_inet_ntoa.o)
 .comment       0x00000000       0x23 c:/devkitPro/libctru/lib\libctru.a(soc_init.o)
 .comment       0x00000000       0x23 c:/devkitPro/libctru/lib\libctru.a(soc_listen.o)
 .comment       0x00000000       0x23 c:/devkitPro/libctru/lib\libctru.a(soc_recv.o)
 .comment       0x00000000       0x23 c:/devkitPro/libctru/lib\libctru.a(soc_recvfrom.o)
 .comment       0x00000000       0x23 c:/devkitPro/libctru/lib\libctru.a(soc_send.o)
 .comment       0x00000000       0x23 c:/devkitPro/libctru/lib\libctru.a(soc_sendto.o)
 .comment       0x00000000       0x23 c:/devkitPro/libctru/lib\libctru.a(soc_socket.o)
 .comment       0x00000000       0x23 c:/devkitPro/libctru/lib\libctru.a(rbtree_find.o)
 .comment       0x00000000       0x23 c:/devkitPro/libctru/lib\libctru.a(rbtree_init.o)
 .comment       0x00000000       0x23 c:/devkitPro/libctru/lib\libctru.a(rbtree_insert.o)
 .comment       0x00000000       0x23 c:/devkitPro/libctru/lib\libctru.a(rbtree_remove.o)
 .comment       0x00000000       0x23 c:/devkitPro/libctru/lib\libctru.a(rbtree_rotate.o)
 .comment       0x00000000       0x23 c:/devkitPro/libctru/lib\libctru.a(decode_utf8.o)
 .comment       0x00000000       0x23 c:/devkitPro/libctru/lib\libctru.a(utf16_to_utf8.o)
 .comment       0x00000000       0x23 c:/devkitPro/libctru/lib\libctru.a(utf8_to_utf16.o)
 .comment       0x00000000       0x23 c:/devkitPro/libctru/lib\libctru.a(allocateHeaps.o)
 .comment       0x00000000       0x23 c:/devkitPro/libctru/lib\libctru.a(initArgv.o)
 .comment       0x00000000       0x23 c:/devkitPro/libctru/lib\libctru.a(initSystem.o)
 .comment       0x00000000       0x23 c:/devkitPro/libctru/lib\libctru.a(mappable.o)
 .comment       0x00000000       0x23 c:/devkitPro/libctru/lib\libctru.a(vram.o)
 .comment       0x00000000       0x23 c:/devkitPro/libctru/lib\libctru.a(rbtree_iterator.o)
 .comment       0x00000000       0x23 c:/devkitPro/libctru/lib\libctru.a(decode_utf16.o)
 .comment       0x00000000       0x23 c:/devkitPro/libctru/lib\libctru.a(encode_utf16.o)
 .comment       0x00000000       0x23 c:/devkitPro/libctru/lib\libctru.a(encode_utf8.o)
 .comment       0x00000000       0x23 c:/devkitPro/libctru/lib\libctru.a(appExit.o)
 .comment       0x00000000       0x23 c:/devkitPro/libctru/lib\libctru.a(appInit.o)
 .comment       0x00000000       0x23 c:/devkitPro/libctru/lib\libctru.a(ctru_exit.o)
 .comment       0x00000000       0x23 c:/devkitPro/portlibs/armv6k/lib\libz.a(inflate.o)
 .comment       0x00000000       0x23 c:/devkitPro/portlibs/armv6k/lib\libz.a(inftrees.o)
 .comment       0x00000000       0x23 c:/devkitPro/portlibs/armv6k/lib\libz.a(zutil.o)
 .comment       0x00000000       0x23 c:/devkitPro/portlibs/armv6k/lib\libz.a(adler32.o)
 .comment       0x00000000       0x23 c:/devkitPro/portlibs/armv6k/lib\libz.a(crc32.o)
 .comment       0x00000000       0x23 c:/devkitPro/portlibs/armv6k/lib\libz.a(inffast.o)
 .comment       0x00000000       0x23 c:/devkitpro/devkitarm/bin/../lib/gcc/arm-none-eabi/4.9.2/../../../../arm-none-eabi/lib/armv6k/fpu\libstdc++.a(new_handler.o)
 .comment       0x00000000       0x23 c:/devkitpro/devkitarm/bin/../lib/gcc/arm-none-eabi/4.9.2/../../../../arm-none-eabi/lib/armv6k/fpu\libstdc++.a(del_opv.o)
 .comment       0x00000000       0x23 c:/devkitpro/devkitarm/bin/../lib/gcc/arm-none-eabi/4.9.2/../../../../arm-none-eabi/lib/armv6k/fpu\libstdc++.a(new_opv.o)
 .comment       0x00000000       0x23 c:/devkitpro/devkitarm/bin/../lib/gcc/arm-none-eabi/4.9.2/../../../../arm-none-eabi/lib/armv6k/fpu\libstdc++.a(eh_arm.o)
 .comment       0x00000000       0x23 c:/devkitpro/devkitarm/bin/../lib/gcc/arm-none-eabi/4.9.2/../../../../arm-none-eabi/lib/armv6k/fpu\libstdc++.a(eh_exception.o)
 .comment       0x00000000       0x23 c:/devkitpro/devkitarm/bin/../lib/gcc/arm-none-eabi/4.9.2/../../../../arm-none-eabi/lib/armv6k/fpu\libstdc++.a(si_class_type_info.o)
 .comment       0x00000000       0x23 c:/devkitpro/devkitarm/bin/../lib/gcc/arm-none-eabi/4.9.2/../../../../arm-none-eabi/lib/armv6k/fpu\libstdc++.a(eh_call.o)
 .comment       0x00000000       0x23 c:/devkitpro/devkitarm/bin/../lib/gcc/arm-none-eabi/4.9.2/../../../../arm-none-eabi/lib/armv6k/fpu\libstdc++.a(eh_globals.o)
 .comment       0x00000000       0x23 c:/devkitpro/devkitarm/bin/../lib/gcc/arm-none-eabi/4.9.2/../../../../arm-none-eabi/lib/armv6k/fpu\libstdc++.a(eh_catch.o)
 .comment       0x00000000       0x23 c:/devkitpro/devkitarm/bin/../lib/gcc/arm-none-eabi/4.9.2/../../../../arm-none-eabi/lib/armv6k/fpu\libstdc++.a(tinfo.o)
 .comment       0x00000000       0x23 c:/devkitpro/devkitarm/bin/../lib/gcc/arm-none-eabi/4.9.2/../../../../arm-none-eabi/lib/armv6k/fpu\libstdc++.a(pure.o)
 .comment       0x00000000       0x23 c:/devkitpro/devkitarm/bin/../lib/gcc/arm-none-eabi/4.9.2/../../../../arm-none-eabi/lib/armv6k/fpu\libstdc++.a(eh_personality.o)
 .comment       0x00000000       0x23 c:/devkitpro/devkitarm/bin/../lib/gcc/arm-none-eabi/4.9.2/../../../../arm-none-eabi/lib/armv6k/fpu\libstdc++.a(del_op.o)
 .comment       0x00000000       0x23 c:/devkitpro/devkitarm/bin/../lib/gcc/arm-none-eabi/4.9.2/../../../../arm-none-eabi/lib/armv6k/fpu\libstdc++.a(new_op.o)
 .comment       0x00000000       0x23 c:/devkitpro/devkitarm/bin/../lib/gcc/arm-none-eabi/4.9.2/../../../../arm-none-eabi/lib/armv6k/fpu\libstdc++.a(new_opvnt.o)
 .comment       0x00000000       0x23 c:/devkitpro/devkitarm/bin/../lib/gcc/arm-none-eabi/4.9.2/../../../../arm-none-eabi/lib/armv6k/fpu\libstdc++.a(eh_alloc.o)
 .comment       0x00000000       0x23 c:/devkitpro/devkitarm/bin/../lib/gcc/arm-none-eabi/4.9.2/../../../../arm-none-eabi/lib/armv6k/fpu\libstdc++.a(class_type_info.o)
 .comment       0x00000000       0x23 c:/devkitpro/devkitarm/bin/../lib/gcc/arm-none-eabi/4.9.2/../../../../arm-none-eabi/lib/armv6k/fpu\libstdc++.a(eh_terminate.o)
 .comment       0x00000000       0x23 c:/devkitpro/devkitarm/bin/../lib/gcc/arm-none-eabi/4.9.2/../../../../arm-none-eabi/lib/armv6k/fpu\libstdc++.a(eh_unex_handler.o)
 .comment       0x00000000       0x23 c:/devkitpro/devkitarm/bin/../lib/gcc/arm-none-eabi/4.9.2/../../../../arm-none-eabi/lib/armv6k/fpu\libstdc++.a(bad_alloc.o)
 .comment       0x00000000       0x23 c:/devkitpro/devkitarm/bin/../lib/gcc/arm-none-eabi/4.9.2/../../../../arm-none-eabi/lib/armv6k/fpu\libstdc++.a(eh_throw.o)
 .comment       0x00000000       0x23 c:/devkitpro/devkitarm/bin/../lib/gcc/arm-none-eabi/4.9.2/../../../../arm-none-eabi/lib/armv6k/fpu\libstdc++.a(new_opnt.o)
 .comment       0x00000000       0x23 c:/devkitpro/devkitarm/bin/../lib/gcc/arm-none-eabi/4.9.2/../../../../arm-none-eabi/lib/armv6k/fpu\libstdc++.a(eh_term_handler.o)
 .comment       0x00000000       0x23 c:/devkitpro/devkitarm/bin/../lib/gcc/arm-none-eabi/4.9.2/../../../../arm-none-eabi/lib/armv6k/fpu\libstdc++.a(vterminate.o)
 .comment       0x00000000       0x23 c:/devkitpro/devkitarm/bin/../lib/gcc/arm-none-eabi/4.9.2/../../../../arm-none-eabi/lib/armv6k/fpu\libstdc++.a(eh_type.o)
 .comment       0x00000000       0x23 c:/devkitpro/devkitarm/bin/../lib/gcc/arm-none-eabi/4.9.2/../../../../arm-none-eabi/lib/armv6k/fpu\libstdc++.a(cp-demangle.o)
 .comment       0x00000000       0x23 c:/devkitpro/devkitarm/bin/../lib/gcc/arm-none-eabi/4.9.2/armv6k/fpu\libgcc.a(_fixdfdi.o)
 .comment       0x00000000       0x23 c:/devkitpro/devkitarm/bin/../lib/gcc/arm-none-eabi/4.9.2/armv6k/fpu\libgcc.a(_fixunsdfdi.o)
 .comment       0x00000000       0x23 c:/devkitpro/devkitarm/bin/../lib/gcc/arm-none-eabi/4.9.2/armv6k/fpu\libgcc.a(unwind-arm.o)
 .comment       0x00000000       0x23 c:/devkitpro/devkitarm/bin/../lib/gcc/arm-none-eabi/4.9.2/armv6k/fpu\libgcc.a(pr-support.o)
 .comment       0x00000000       0x23 c:/devkitpro/devkitarm/bin/../lib/gcc/arm-none-eabi/4.9.2/../../../../arm-none-eabi/lib/armv6k/fpu\libg.a(lib_a-abort.o)
 .comment       0x00000000       0x23 c:/devkitpro/devkitarm/bin/../lib/gcc/arm-none-eabi/4.9.2/../../../../arm-none-eabi/lib/armv6k/fpu\libg.a(lib_a-atof.o)
 .comment       0x00000000       0x23 c:/devkitpro/devkitarm/bin/../lib/gcc/arm-none-eabi/4.9.2/../../../../arm-none-eabi/lib/armv6k/fpu\libg.a(lib_a-atoi.o)
 .comment       0x00000000       0x23 c:/devkitpro/devkitarm/bin/../lib/gcc/arm-none-eabi/4.9.2/../../../../arm-none-eabi/lib/armv6k/fpu\libg.a(lib_a-atoll.o)
 .comment       0x00000000       0x23 c:/devkitpro/devkitarm/bin/../lib/gcc/arm-none-eabi/4.9.2/../../../../arm-none-eabi/lib/armv6k/fpu\libg.a(lib_a-bsearch.o)
 .comment       0x00000000       0x23 c:/devkitpro/devkitarm/bin/../lib/gcc/arm-none-eabi/4.9.2/../../../../arm-none-eabi/lib/armv6k/fpu\libg.a(lib_a-calloc.o)
 .comment       0x00000000       0x23 c:/devkitpro/devkitarm/bin/../lib/gcc/arm-none-eabi/4.9.2/../../../../arm-none-eabi/lib/armv6k/fpu\libg.a(lib_a-callocr.o)
 .comment       0x00000000       0x23 c:/devkitpro/devkitarm/bin/../lib/gcc/arm-none-eabi/4.9.2/../../../../arm-none-eabi/lib/armv6k/fpu\libg.a(lib_a-ctype_.o)
 .comment       0x00000000       0x23 c:/devkitpro/devkitarm/bin/../lib/gcc/arm-none-eabi/4.9.2/../../../../arm-none-eabi/lib/armv6k/fpu\libg.a(lib_a-errno.o)
 .comment       0x00000000       0x23 c:/devkitpro/devkitarm/bin/../lib/gcc/arm-none-eabi/4.9.2/../../../../arm-none-eabi/lib/armv6k/fpu\libg.a(lib_a-exit.o)
 .comment       0x00000000       0x23 c:/devkitpro/devkitarm/bin/../lib/gcc/arm-none-eabi/4.9.2/../../../../arm-none-eabi/lib/armv6k/fpu\libg.a(lib_a-fclose.o)
 .comment       0x00000000       0x23 c:/devkitpro/devkitarm/bin/../lib/gcc/arm-none-eabi/4.9.2/../../../../arm-none-eabi/lib/armv6k/fpu\libg.a(lib_a-ferror.o)
 .comment       0x00000000       0x23 c:/devkitpro/devkitarm/bin/../lib/gcc/arm-none-eabi/4.9.2/../../../../arm-none-eabi/lib/armv6k/fpu\libg.a(lib_a-fflush.o)
 .comment       0x00000000       0x23 c:/devkitpro/devkitarm/bin/../lib/gcc/arm-none-eabi/4.9.2/../../../../arm-none-eabi/lib/armv6k/fpu\libg.a(lib_a-fgetc.o)
 .comment       0x00000000       0x23 c:/devkitpro/devkitarm/bin/../lib/gcc/arm-none-eabi/4.9.2/../../../../arm-none-eabi/lib/armv6k/fpu\libg.a(lib_a-fileno.o)
 .comment       0x00000000       0x23 c:/devkitpro/devkitarm/bin/../lib/gcc/arm-none-eabi/4.9.2/../../../../arm-none-eabi/lib/armv6k/fpu\libg.a(lib_a-findfp.o)
 .comment       0x00000000       0x23 c:/devkitpro/devkitarm/bin/../lib/gcc/arm-none-eabi/4.9.2/../../../../arm-none-eabi/lib/armv6k/fpu\libg.a(lib_a-fini.o)
 .comment       0x00000000       0x23 c:/devkitpro/devkitarm/bin/../lib/gcc/arm-none-eabi/4.9.2/../../../../arm-none-eabi/lib/armv6k/fpu\libg.a(lib_a-fopen.o)
 .comment       0x00000000       0x23 c:/devkitpro/devkitarm/bin/../lib/gcc/arm-none-eabi/4.9.2/../../../../arm-none-eabi/lib/armv6k/fpu\libg.a(lib_a-fprintf.o)
 .comment       0x00000000       0x23 c:/devkitpro/devkitarm/bin/../lib/gcc/arm-none-eabi/4.9.2/../../../../arm-none-eabi/lib/armv6k/fpu\libg.a(lib_a-fputc.o)
 .comment       0x00000000       0x23 c:/devkitpro/devkitarm/bin/../lib/gcc/arm-none-eabi/4.9.2/../../../../arm-none-eabi/lib/armv6k/fpu\libg.a(lib_a-fputs.o)
 .comment       0x00000000       0x23 c:/devkitpro/devkitarm/bin/../lib/gcc/arm-none-eabi/4.9.2/../../../../arm-none-eabi/lib/armv6k/fpu\libg.a(lib_a-fread.o)
 .comment       0x00000000       0x23 c:/devkitpro/devkitarm/bin/../lib/gcc/arm-none-eabi/4.9.2/../../../../arm-none-eabi/lib/armv6k/fpu\libg.a(lib_a-freer.o)
 .comment       0x00000000       0x23 c:/devkitpro/devkitarm/bin/../lib/gcc/arm-none-eabi/4.9.2/../../../../arm-none-eabi/lib/armv6k/fpu\libg.a(lib_a-fseek.o)
 .comment       0x00000000       0x23 c:/devkitpro/devkitarm/bin/../lib/gcc/arm-none-eabi/4.9.2/../../../../arm-none-eabi/lib/armv6k/fpu\libg.a(lib_a-fseeko.o)
 .comment       0x00000000       0x23 c:/devkitpro/devkitarm/bin/../lib/gcc/arm-none-eabi/4.9.2/../../../../arm-none-eabi/lib/armv6k/fpu\libg.a(lib_a-ftell.o)
 .comment       0x00000000       0x23 c:/devkitpro/devkitarm/bin/../lib/gcc/arm-none-eabi/4.9.2/../../../../arm-none-eabi/lib/armv6k/fpu\libg.a(lib_a-ftello.o)
 .comment       0x00000000       0x23 c:/devkitpro/devkitarm/bin/../lib/gcc/arm-none-eabi/4.9.2/../../../../arm-none-eabi/lib/armv6k/fpu\libg.a(lib_a-fvwrite.o)
 .comment       0x00000000       0x23 c:/devkitpro/devkitarm/bin/../lib/gcc/arm-none-eabi/4.9.2/../../../../arm-none-eabi/lib/armv6k/fpu\libg.a(lib_a-fwalk.o)
 .comment       0x00000000       0x23 c:/devkitpro/devkitarm/bin/../lib/gcc/arm-none-eabi/4.9.2/../../../../arm-none-eabi/lib/armv6k/fpu\libg.a(lib_a-fwrite.o)
 .comment       0x00000000       0x23 c:/devkitpro/devkitarm/bin/../lib/gcc/arm-none-eabi/4.9.2/../../../../arm-none-eabi/lib/armv6k/fpu\libg.a(lib_a-impure.o)
 .comment       0x00000000       0x23 c:/devkitpro/devkitarm/bin/../lib/gcc/arm-none-eabi/4.9.2/../../../../arm-none-eabi/lib/armv6k/fpu\libg.a(lib_a-init.o)
 .comment       0x00000000       0x23 c:/devkitpro/devkitarm/bin/../lib/gcc/arm-none-eabi/4.9.2/../../../../arm-none-eabi/lib/armv6k/fpu\libg.a(lib_a-isalpha.o)
 .comment       0x00000000       0x23 c:/devkitpro/devkitarm/bin/../lib/gcc/arm-none-eabi/4.9.2/../../../../arm-none-eabi/lib/armv6k/fpu\libg.a(lib_a-isspace.o)
 .comment       0x00000000       0x23 c:/devkitpro/devkitarm/bin/../lib/gcc/arm-none-eabi/4.9.2/../../../../arm-none-eabi/lib/armv6k/fpu\libg.a(lib_a-makebuf.o)
 .comment       0x00000000       0x23 c:/devkitpro/devkitarm/bin/../lib/gcc/arm-none-eabi/4.9.2/../../../../arm-none-eabi/lib/armv6k/fpu\libg.a(lib_a-malign.o)
 .comment       0x00000000       0x23 c:/devkitpro/devkitarm/bin/../lib/gcc/arm-none-eabi/4.9.2/../../../../arm-none-eabi/lib/armv6k/fpu\libg.a(lib_a-malignr.o)
 .comment       0x00000000       0x23 c:/devkitpro/devkitarm/bin/../lib/gcc/arm-none-eabi/4.9.2/../../../../arm-none-eabi/lib/armv6k/fpu\libg.a(lib_a-malloc.o)
 .comment       0x00000000       0x23 c:/devkitpro/devkitarm/bin/../lib/gcc/arm-none-eabi/4.9.2/../../../../arm-none-eabi/lib/armv6k/fpu\libg.a(lib_a-mallocr.o)
 .comment       0x00000000       0x23 c:/devkitpro/devkitarm/bin/../lib/gcc/arm-none-eabi/4.9.2/../../../../arm-none-eabi/lib/armv6k/fpu\libg.a(lib_a-memchr.o)
 .comment       0x00000000       0x23 c:/devkitpro/devkitarm/bin/../lib/gcc/arm-none-eabi/4.9.2/../../../../arm-none-eabi/lib/armv6k/fpu\libg.a(lib_a-memcmp.o)
 .comment       0x00000000       0x23 c:/devkitpro/devkitarm/bin/../lib/gcc/arm-none-eabi/4.9.2/../../../../arm-none-eabi/lib/armv6k/fpu\libg.a(lib_a-memcpy.o)
 .comment       0x00000000       0x23 c:/devkitpro/devkitarm/bin/../lib/gcc/arm-none-eabi/4.9.2/../../../../arm-none-eabi/lib/armv6k/fpu\libg.a(lib_a-memmove.o)
 .comment       0x00000000       0x23 c:/devkitpro/devkitarm/bin/../lib/gcc/arm-none-eabi/4.9.2/../../../../arm-none-eabi/lib/armv6k/fpu\libg.a(lib_a-memset.o)
 .comment       0x00000000       0x23 c:/devkitpro/devkitarm/bin/../lib/gcc/arm-none-eabi/4.9.2/../../../../arm-none-eabi/lib/armv6k/fpu\libg.a(lib_a-mlock.o)
 .comment       0x00000000       0x23 c:/devkitpro/devkitarm/bin/../lib/gcc/arm-none-eabi/4.9.2/../../../../arm-none-eabi/lib/armv6k/fpu\libg.a(lib_a-printf.o)
 .comment       0x00000000       0x23 c:/devkitpro/devkitarm/bin/../lib/gcc/arm-none-eabi/4.9.2/../../../../arm-none-eabi/lib/armv6k/fpu\libg.a(lib_a-putchar.o)
 .comment       0x00000000       0x23 c:/devkitpro/devkitarm/bin/../lib/gcc/arm-none-eabi/4.9.2/../../../../arm-none-eabi/lib/armv6k/fpu\libg.a(lib_a-putc.o)
 .comment       0x00000000       0x23 c:/devkitpro/devkitarm/bin/../lib/gcc/arm-none-eabi/4.9.2/../../../../arm-none-eabi/lib/armv6k/fpu\libg.a(lib_a-puts.o)
 .comment       0x00000000       0x23 c:/devkitpro/devkitarm/bin/../lib/gcc/arm-none-eabi/4.9.2/../../../../arm-none-eabi/lib/armv6k/fpu\libg.a(lib_a-qsort.o)
 .comment       0x00000000       0x23 c:/devkitpro/devkitarm/bin/../lib/gcc/arm-none-eabi/4.9.2/../../../../arm-none-eabi/lib/armv6k/fpu\libg.a(lib_a-rand.o)
 .comment       0x00000000       0x23 c:/devkitpro/devkitarm/bin/../lib/gcc/arm-none-eabi/4.9.2/../../../../arm-none-eabi/lib/armv6k/fpu\libg.a(lib_a-realloc.o)
 .comment       0x00000000       0x23 c:/devkitpro/devkitarm/bin/../lib/gcc/arm-none-eabi/4.9.2/../../../../arm-none-eabi/lib/armv6k/fpu\libg.a(lib_a-reallocr.o)
 .comment       0x00000000       0x23 c:/devkitpro/devkitarm/bin/../lib/gcc/arm-none-eabi/4.9.2/../../../../arm-none-eabi/lib/armv6k/fpu\libg.a(lib_a-refill.o)
 .comment       0x00000000       0x23 c:/devkitpro/devkitarm/bin/../lib/gcc/arm-none-eabi/4.9.2/../../../../arm-none-eabi/lib/armv6k/fpu\libg.a(lib_a-rewind.o)
 .comment       0x00000000       0x23 c:/devkitpro/devkitarm/bin/../lib/gcc/arm-none-eabi/4.9.2/../../../../arm-none-eabi/lib/armv6k/fpu\libg.a(lib_a-rget.o)
 .comment       0x00000000       0x23 c:/devkitpro/devkitarm/bin/../lib/gcc/arm-none-eabi/4.9.2/../../../../arm-none-eabi/lib/armv6k/fpu\libg.a(lib_a-setvbuf.o)
 .comment       0x00000000       0x23 c:/devkitpro/devkitarm/bin/../lib/gcc/arm-none-eabi/4.9.2/../../../../arm-none-eabi/lib/armv6k/fpu\libg.a(lib_a-signal.o)
 .comment       0x00000000       0x23 c:/devkitpro/devkitarm/bin/../lib/gcc/arm-none-eabi/4.9.2/../../../../arm-none-eabi/lib/armv6k/fpu\libg.a(lib_a-siprintf.o)
 .comment       0x00000000       0x23 c:/devkitpro/devkitarm/bin/../lib/gcc/arm-none-eabi/4.9.2/../../../../arm-none-eabi/lib/armv6k/fpu\libg.a(lib_a-snprintf.o)
 .comment       0x00000000       0x23 c:/devkitpro/devkitarm/bin/../lib/gcc/arm-none-eabi/4.9.2/../../../../arm-none-eabi/lib/armv6k/fpu\libg.a(lib_a-sprintf.o)
 .comment       0x00000000       0x23 c:/devkitpro/devkitarm/bin/../lib/gcc/arm-none-eabi/4.9.2/../../../../arm-none-eabi/lib/armv6k/fpu\libg.a(lib_a-sscanf.o)
 .comment       0x00000000       0x23 c:/devkitpro/devkitarm/bin/../lib/gcc/arm-none-eabi/4.9.2/../../../../arm-none-eabi/lib/armv6k/fpu\libg.a(lib_a-stdio.o)
 .comment       0x00000000       0x23 c:/devkitpro/devkitarm/bin/../lib/gcc/arm-none-eabi/4.9.2/../../../../arm-none-eabi/lib/armv6k/fpu\libg.a(lib_a-strcasecmp.o)
 .comment       0x00000000       0x23 c:/devkitpro/devkitarm/bin/../lib/gcc/arm-none-eabi/4.9.2/../../../../arm-none-eabi/lib/armv6k/fpu\libg.a(lib_a-strcat.o)
 .comment       0x00000000       0x23 c:/devkitpro/devkitarm/bin/../lib/gcc/arm-none-eabi/4.9.2/../../../../arm-none-eabi/lib/armv6k/fpu\libg.a(lib_a-strchr.o)
 .comment       0x00000000       0x23 c:/devkitpro/devkitarm/bin/../lib/gcc/arm-none-eabi/4.9.2/../../../../arm-none-eabi/lib/armv6k/fpu\libg.a(lib_a-strcpy.o)
 .comment       0x00000000       0x23 c:/devkitpro/devkitarm/bin/../lib/gcc/arm-none-eabi/4.9.2/../../../../arm-none-eabi/lib/armv6k/fpu\libg.a(lib_a-strdup.o)
 .comment       0x00000000       0x23 c:/devkitpro/devkitarm/bin/../lib/gcc/arm-none-eabi/4.9.2/../../../../arm-none-eabi/lib/armv6k/fpu\libg.a(lib_a-strdup_r.o)
 .comment       0x00000000       0x23 c:/devkitpro/devkitarm/bin/../lib/gcc/arm-none-eabi/4.9.2/../../../../arm-none-eabi/lib/armv6k/fpu\libg.a(lib_a-strlen.o)
 .comment       0x00000000       0x23 c:/devkitpro/devkitarm/bin/../lib/gcc/arm-none-eabi/4.9.2/../../../../arm-none-eabi/lib/armv6k/fpu\libg.a(lib_a-strncat.o)
 .comment       0x00000000       0x23 c:/devkitpro/devkitarm/bin/../lib/gcc/arm-none-eabi/4.9.2/../../../../arm-none-eabi/lib/armv6k/fpu\libg.a(lib_a-strncmp.o)
 .comment       0x00000000       0x23 c:/devkitpro/devkitarm/bin/../lib/gcc/arm-none-eabi/4.9.2/../../../../arm-none-eabi/lib/armv6k/fpu\libg.a(lib_a-strncpy.o)
 .comment       0x00000000       0x23 c:/devkitpro/devkitarm/bin/../lib/gcc/arm-none-eabi/4.9.2/../../../../arm-none-eabi/lib/armv6k/fpu\libg.a(lib_a-strrchr.o)
 .comment       0x00000000       0x23 c:/devkitpro/devkitarm/bin/../lib/gcc/arm-none-eabi/4.9.2/../../../../arm-none-eabi/lib/armv6k/fpu\libg.a(lib_a-strtod.o)
 .comment       0x00000000       0x23 c:/devkitpro/devkitarm/bin/../lib/gcc/arm-none-eabi/4.9.2/../../../../arm-none-eabi/lib/armv6k/fpu\libg.a(lib_a-strtoll.o)
 .comment       0x00000000       0x23 c:/devkitpro/devkitarm/bin/../lib/gcc/arm-none-eabi/4.9.2/../../../../arm-none-eabi/lib/armv6k/fpu\libg.a(lib_a-strtoll_r.o)
 .comment       0x00000000       0x23 c:/devkitpro/devkitarm/bin/../lib/gcc/arm-none-eabi/4.9.2/../../../../arm-none-eabi/lib/armv6k/fpu\libg.a(lib_a-strtol.o)
 .comment       0x00000000       0x23 c:/devkitpro/devkitarm/bin/../lib/gcc/arm-none-eabi/4.9.2/../../../../arm-none-eabi/lib/armv6k/fpu\libg.a(lib_a-strtoull.o)
 .comment       0x00000000       0x23 c:/devkitpro/devkitarm/bin/../lib/gcc/arm-none-eabi/4.9.2/../../../../arm-none-eabi/lib/armv6k/fpu\libg.a(lib_a-strtoull_r.o)
 .comment       0x00000000       0x23 c:/devkitpro/devkitarm/bin/../lib/gcc/arm-none-eabi/4.9.2/../../../../arm-none-eabi/lib/armv6k/fpu\libg.a(lib_a-strtoul.o)
 .comment       0x00000000       0x23 c:/devkitpro/devkitarm/bin/../lib/gcc/arm-none-eabi/4.9.2/../../../../arm-none-eabi/lib/armv6k/fpu\libg.a(lib_a-svfiprintf.o)
 .comment       0x00000000       0x23 c:/devkitpro/devkitarm/bin/../lib/gcc/arm-none-eabi/4.9.2/../../../../arm-none-eabi/lib/armv6k/fpu\libg.a(lib_a-svfprintf.o)
 .comment       0x00000000       0x23 c:/devkitpro/devkitarm/bin/../lib/gcc/arm-none-eabi/4.9.2/../../../../arm-none-eabi/lib/armv6k/fpu\libg.a(lib_a-svfscanf.o)
 .comment       0x00000000       0x23 c:/devkitpro/devkitarm/bin/../lib/gcc/arm-none-eabi/4.9.2/../../../../arm-none-eabi/lib/armv6k/fpu\libg.a(lib_a-sysclose.o)
 .comment       0x00000000       0x23 c:/devkitpro/devkitarm/bin/../lib/gcc/arm-none-eabi/4.9.2/../../../../arm-none-eabi/lib/armv6k/fpu\libg.a(lib_a-sysfstat.o)
 .comment       0x00000000       0x23 c:/devkitpro/devkitarm/bin/../lib/gcc/arm-none-eabi/4.9.2/../../../../arm-none-eabi/lib/armv6k/fpu\libg.a(lib_a-sysopen.o)
 .comment       0x00000000       0x23 c:/devkitpro/devkitarm/bin/../lib/gcc/arm-none-eabi/4.9.2/../../../../arm-none-eabi/lib/armv6k/fpu\libg.a(lib_a-sysstat.o)
 .comment       0x00000000       0x23 c:/devkitpro/devkitarm/bin/../lib/gcc/arm-none-eabi/4.9.2/../../../../arm-none-eabi/lib/armv6k/fpu\libg.a(lib_a-syswrite.o)
 .comment       0x00000000       0x23 c:/devkitpro/devkitarm/bin/../lib/gcc/arm-none-eabi/4.9.2/../../../../arm-none-eabi/lib/armv6k/fpu\libg.a(lib_a-time.o)
 .comment       0x00000000       0x23 c:/devkitpro/devkitarm/bin/../lib/gcc/arm-none-eabi/4.9.2/../../../../arm-none-eabi/lib/armv6k/fpu\libg.a(lib_a-vfprintf.o)
 .comment       0x00000000       0x23 c:/devkitpro/devkitarm/bin/../lib/gcc/arm-none-eabi/4.9.2/../../../../arm-none-eabi/lib/armv6k/fpu\libg.a(lib_a-vsprintf.o)
 .comment       0x00000000       0x23 c:/devkitpro/devkitarm/bin/../lib/gcc/arm-none-eabi/4.9.2/../../../../arm-none-eabi/lib/armv6k/fpu\libg.a(lib_a-wbuf.o)
 .comment       0x00000000       0x23 c:/devkitpro/devkitarm/bin/../lib/gcc/arm-none-eabi/4.9.2/../../../../arm-none-eabi/lib/armv6k/fpu\libg.a(lib_a-wcrtomb.o)
 .comment       0x00000000       0x23 c:/devkitpro/devkitarm/bin/../lib/gcc/arm-none-eabi/4.9.2/../../../../arm-none-eabi/lib/armv6k/fpu\libg.a(lib_a-wcsrtombs.o)
 .comment       0x00000000       0x23 c:/devkitpro/devkitarm/bin/../lib/gcc/arm-none-eabi/4.9.2/../../../../arm-none-eabi/lib/armv6k/fpu\libg.a(lib_a-wctomb_r.o)
 .comment       0x00000000       0x23 c:/devkitpro/devkitarm/bin/../lib/gcc/arm-none-eabi/4.9.2/../../../../arm-none-eabi/lib/armv6k/fpu\libg.a(lib_a-wsetup.o)
 .comment       0x00000000       0x23 c:/devkitpro/devkitarm/bin/../lib/gcc/arm-none-eabi/4.9.2/../../../../arm-none-eabi/lib/armv6k/fpu\libg.a(lib_a-__call_atexit.o)
 .comment       0x00000000       0x23 c:/devkitpro/devkitarm/bin/../lib/gcc/arm-none-eabi/4.9.2/../../../../arm-none-eabi/lib/armv6k/fpu\libg.a(lib_a-dtoa.o)
 .comment       0x00000000       0x23 c:/devkitpro/devkitarm/bin/../lib/gcc/arm-none-eabi/4.9.2/../../../../arm-none-eabi/lib/armv6k/fpu\libg.a(lib_a-flags.o)
 .comment       0x00000000       0x23 c:/devkitpro/devkitarm/bin/../lib/gcc/arm-none-eabi/4.9.2/../../../../arm-none-eabi/lib/armv6k/fpu\libg.a(lib_a-gdtoa-gethex.o)
 .comment       0x00000000       0x23 c:/devkitpro/devkitarm/bin/../lib/gcc/arm-none-eabi/4.9.2/../../../../arm-none-eabi/lib/armv6k/fpu\libg.a(lib_a-gdtoa-hexnan.o)
 .comment       0x00000000       0x23 c:/devkitpro/devkitarm/bin/../lib/gcc/arm-none-eabi/4.9.2/../../../../arm-none-eabi/lib/armv6k/fpu\libg.a(lib_a-iswspace.o)
 .comment       0x00000000       0x23 c:/devkitpro/devkitarm/bin/../lib/gcc/arm-none-eabi/4.9.2/../../../../arm-none-eabi/lib/armv6k/fpu\libg.a(lib_a-jp2uc.o)
 .comment       0x00000000       0x23 c:/devkitpro/devkitarm/bin/../lib/gcc/arm-none-eabi/4.9.2/../../../../arm-none-eabi/lib/armv6k/fpu\libg.a(lib_a-locale.o)
 .comment       0x00000000       0x23 c:/devkitpro/devkitarm/bin/../lib/gcc/arm-none-eabi/4.9.2/../../../../arm-none-eabi/lib/armv6k/fpu\libg.a(lib_a-mbrtowc.o)
 .comment       0x00000000       0x23 c:/devkitpro/devkitarm/bin/../lib/gcc/arm-none-eabi/4.9.2/../../../../arm-none-eabi/lib/armv6k/fpu\libg.a(lib_a-mbtowc_r.o)
 .comment       0x00000000       0x23 c:/devkitpro/devkitarm/bin/../lib/gcc/arm-none-eabi/4.9.2/../../../../arm-none-eabi/lib/armv6k/fpu\libg.a(lib_a-mprec.o)
 .comment       0x00000000       0x23 c:/devkitpro/devkitarm/bin/../lib/gcc/arm-none-eabi/4.9.2/../../../../arm-none-eabi/lib/armv6k/fpu\libg.a(lib_a-sccl.o)
 .comment       0x00000000       0x23 c:/devkitpro/devkitarm/bin/../lib/gcc/arm-none-eabi/4.9.2/../../../../arm-none-eabi/lib/armv6k/fpu\libg.a(lib_a-sf_nan.o)
 .comment       0x00000000       0x23 c:/devkitpro/devkitarm/bin/../lib/gcc/arm-none-eabi/4.9.2/../../../../arm-none-eabi/lib/armv6k/fpu\libg.a(lib_a-s_fpclassify.o)
 .comment       0x00000000       0x23 c:/devkitpro/devkitarm/bin/../lib/gcc/arm-none-eabi/4.9.2/../../../../arm-none-eabi/lib/armv6k/fpu\libg.a(lib_a-s_frexp.o)
 .comment       0x00000000       0x23 c:/devkitpro/devkitarm/bin/../lib/gcc/arm-none-eabi/4.9.2/../../../../arm-none-eabi/lib/armv6k/fpu\libg.a(lib_a-stpncpy.o)
 .comment       0x00000000       0x23 c:/devkitpro/devkitarm/bin/../lib/gcc/arm-none-eabi/4.9.2/../../../../arm-none-eabi/lib/armv6k/fpu\libg.a(lib_a-strlcpy.o)
 .comment       0x00000000       0x23 c:/devkitpro/devkitarm/bin/../lib/gcc/arm-none-eabi/4.9.2/../../../../arm-none-eabi/lib/armv6k/fpu\libg.a(lib_a-strncasecmp.o)
 .comment       0x00000000       0x23 c:/devkitpro/devkitarm/bin/../lib/gcc/arm-none-eabi/4.9.2/../../../../arm-none-eabi/lib/armv6k/fpu\libg.a(lib_a-svfiscanf.o)
 .comment       0x00000000       0x23 c:/devkitpro/devkitarm/bin/../lib/gcc/arm-none-eabi/4.9.2/../../../../arm-none-eabi/lib/armv6k/fpu\libg.a(lib_a-ungetc.o)
 .comment       0x00000000       0x23 c:/devkitpro/devkitarm/bin/../lib/gcc/arm-none-eabi/4.9.2/../../../../arm-none-eabi/lib/armv6k/fpu\libg.a(lib_a-vfiprintf.o)
 .comment       0x00000000       0x23 c:/devkitpro/devkitarm/bin/../lib/gcc/arm-none-eabi/4.9.2/../../../../arm-none-eabi/lib/armv6k/fpu\libg.a(lib_a-wcsnrtombs.o)
 .comment       0x00000000       0x23 c:/devkitpro/devkitarm/bin/../lib/gcc/arm-none-eabi/4.9.2/../../../../arm-none-eabi/lib/armv6k/fpu\libg.a(lib_a-fputwc.o)
 .comment       0x00000000       0x23 c:/devkitpro/devkitarm/bin/../lib/gcc/arm-none-eabi/4.9.2/../../../../arm-none-eabi/lib/armv6k/fpu\libg.a(lib_a-getenv_r.o)
 .comment       0x00000000       0x23 c:/devkitpro/devkitarm/bin/../lib/gcc/arm-none-eabi/4.9.2/../../../../arm-none-eabi/lib/armv6k/fpu\libg.a(lib_a-environ.o)
 .comment       0x00000000       0x23 c:/devkitpro/devkitarm/bin/../lib/gcc/arm-none-eabi/4.9.2/../../../../arm-none-eabi/lib/armv6k/fpu\libg.a(lib_a-envlock.o)
 .comment       0x00000000       0x23 c:/devkitpro/devkitarm/bin/../lib/gcc/arm-none-eabi/4.9.2/../../../../arm-none-eabi/lib/armv6k/fpu\libsysbase.a(iosupport.o)
 .comment       0x00000000       0x23 c:/devkitpro/devkitarm/bin/../lib/gcc/arm-none-eabi/4.9.2/../../../../arm-none-eabi/lib/armv6k/fpu\libsysbase.a(close.o)
 .comment       0x00000000       0x23 c:/devkitpro/devkitarm/bin/../lib/gcc/arm-none-eabi/4.9.2/../../../../arm-none-eabi/lib/armv6k/fpu\libsysbase.a(fstat.o)
 .comment       0x00000000       0x23 c:/devkitpro/devkitarm/bin/../lib/gcc/arm-none-eabi/4.9.2/../../../../arm-none-eabi/lib/armv6k/fpu\libsysbase.a(getpid.o)
 .comment       0x00000000       0x23 c:/devkitpro/devkitarm/bin/../lib/gcc/arm-none-eabi/4.9.2/../../../../arm-none-eabi/lib/armv6k/fpu\libsysbase.a(gettod.o)
 .comment       0x00000000       0x23 c:/devkitpro/devkitarm/bin/../lib/gcc/arm-none-eabi/4.9.2/../../../../arm-none-eabi/lib/armv6k/fpu\libsysbase.a(isatty.o)
 .comment       0x00000000       0x23 c:/devkitpro/devkitarm/bin/../lib/gcc/arm-none-eabi/4.9.2/../../../../arm-none-eabi/lib/armv6k/fpu\libsysbase.a(kill.o)
 .comment       0x00000000       0x23 c:/devkitpro/devkitarm/bin/../lib/gcc/arm-none-eabi/4.9.2/../../../../arm-none-eabi/lib/armv6k/fpu\libsysbase.a(lseek.o)
 .comment       0x00000000       0x23 c:/devkitpro/devkitarm/bin/../lib/gcc/arm-none-eabi/4.9.2/../../../../arm-none-eabi/lib/armv6k/fpu\libsysbase.a(open.o)
 .comment       0x00000000       0x23 c:/devkitpro/devkitarm/bin/../lib/gcc/arm-none-eabi/4.9.2/../../../../arm-none-eabi/lib/armv6k/fpu\libsysbase.a(read.o)
 .comment       0x00000000       0x23 c:/devkitpro/devkitarm/bin/../lib/gcc/arm-none-eabi/4.9.2/../../../../arm-none-eabi/lib/armv6k/fpu\libsysbase.a(sbrk.o)
 .comment       0x00000000       0x23 c:/devkitpro/devkitarm/bin/../lib/gcc/arm-none-eabi/4.9.2/../../../../arm-none-eabi/lib/armv6k/fpu\libsysbase.a(stat.o)
 .comment       0x00000000       0x23 c:/devkitpro/devkitarm/bin/../lib/gcc/arm-none-eabi/4.9.2/../../../../arm-none-eabi/lib/armv6k/fpu\libsysbase.a(write.o)
 .comment       0x00000000       0x23 c:/devkitpro/devkitarm/bin/../lib/gcc/arm-none-eabi/4.9.2/../../../../arm-none-eabi/lib/armv6k/fpu\libsysbase.a(_exit.o)
 .comment       0x00000000       0x23 c:/devkitpro/devkitarm/bin/../lib/gcc/arm-none-eabi/4.9.2/../../../../arm-none-eabi/lib/armv6k/fpu\libsysbase.a(malloc_vars.o)
 .comment       0x00000000       0x23 c:/devkitpro/devkitarm/bin/../lib/gcc/arm-none-eabi/4.9.2/../../../../arm-none-eabi/lib/armv6k/fpu\libsysbase.a(chdir.o)
 .comment       0x00000000       0x23 c:/devkitpro/devkitarm/bin/../lib/gcc/arm-none-eabi/4.9.2/../../../../arm-none-eabi/lib/armv6k/fpu\libsysbase.a(flock.o)
 .comment       0x00000000       0x23 c:/devkitpro/devkitarm/bin/../lib/gcc/arm-none-eabi/4.9.2/../../../../arm-none-eabi/lib/armv6k/fpu\libsysbase.a(syscall_support.o)
 .comment       0x00000000       0x23 c:/devkitpro/devkitarm/bin/../lib/gcc/arm-none-eabi/4.9.2/../../../../arm-none-eabi/lib/armv6k/fpu\libsysbase.a(handle_manager.o)
 .comment       0x00000000       0x23 c:/devkitpro/devkitarm/bin/../lib/gcc/arm-none-eabi/4.9.2/../../../../arm-none-eabi/lib/armv6k/fpu\libsysbase.a(ftruncate.o)
 .comment       0x00000000       0x23 c:/devkitpro/devkitarm/bin/../lib/gcc/arm-none-eabi/4.9.2/../../../../arm-none-eabi/lib/armv6k/fpu\libsysbase.a(dirent.o)
 .comment       0x00000000       0x23 c:/devkitpro/devkitarm/bin/../lib/gcc/arm-none-eabi/4.9.2/../../../../arm-none-eabi/lib/armv6k/fpu\libsysbase.a(getreent.o)
 .comment       0x00000000       0x23 c:/devkitpro/devkitarm/bin/../lib/gcc/arm-none-eabi/4.9.2/armv6k/fpu\libgcc.a(bpabi.o)
 .comment       0x00000000       0x23 c:/devkitpro/devkitarm/bin/../lib/gcc/arm-none-eabi/4.9.2/armv6k/fpu\libgcc.a(_divdi3.o)
 .comment       0x00000000       0x23 c:/devkitpro/devkitarm/bin/../lib/gcc/arm-none-eabi/4.9.2/armv6k/fpu\libgcc.a(_udivdi3.o)
 .comment       0x00000000       0x23 c:/devkitpro/devkitarm/bin/../lib/gcc/arm-none-eabi/4.9.2/../../../../arm-none-eabi/lib/armv6k/fpu\libg.a(lib_a-strnlen.o)
 .comment       0x00000000       0x23 c:/devkitpro/devkitarm/bin/../lib/gcc/arm-none-eabi/4.9.2/armv6k/fpu/crtend.o

Memory Configuration

Name             Origin             Length             Attributes
*default*        0x00000000         0xffffffff

Linker script and memory map

                0x00100000                . = 0x100000
                0x00100000                __start__ = .

.text           0x00100000    0x56028
 *(.crt0)
 .crt0          0x00100000       0x94 c:/devkitpro/devkitarm/bin/../lib/gcc/arm-none-eabi/4.9.2/../../../../arm-none-eabi/lib/armv6k/fpu/3dsx_crt0.o
                0x00100000                _start
                0x00100008                __service_ptr
                0x0010000c                __apt_appid
                0x00100010                __heap_size
                0x00100014                __linear_heap_size
                0x00100018                __system_arglist
                0x0010001c                __system_runflags
 *(.init)
 .init          0x00100094        0xc c:/devkitpro/devkitarm/bin/../lib/gcc/arm-none-eabi/4.9.2/armv6k/fpu/crti.o
                0x00100094                _init
 .init          0x001000a0        0xc c:/devkitpro/devkitarm/bin/../lib/gcc/arm-none-eabi/4.9.2/armv6k/fpu/crtn.o
                0x001000ac                . = ALIGN (0x4)
 *(.text)
 .text          0x001000ac        0x0 c:/devkitpro/devkitarm/bin/../lib/gcc/arm-none-eabi/4.9.2/../../../../arm-none-eabi/lib/armv6k/fpu/3dsx_crt0.o
 .text          0x001000ac        0x0 c:/devkitpro/devkitarm/bin/../lib/gcc/arm-none-eabi/4.9.2/armv6k/fpu/crti.o
 .text          0x001000ac      0x108 c:/devkitpro/devkitarm/bin/../lib/gcc/arm-none-eabi/4.9.2/armv6k/fpu/crtbegin.o
 .text          0x001001b4        0x0 font.bin.o
 .text          0x001001b4      0x3cc descriptor.o
                0x001001b4                initDescriptor
                0x001001e4                freeDescriptor
                0x00100248                loadDescriptor
 .text          0x00100580     0x48d8 tinyxml2.o
                0x00100580                tinyxml2::XMLDocument::Accept(tinyxml2::XMLVisitor*) const
                0x00100624                tinyxml2::XMLText::Accept(tinyxml2::XMLVisitor*) const
                0x00100654                tinyxml2::XMLComment::Accept(tinyxml2::XMLVisitor*) const
                0x00100684                tinyxml2::XMLDeclaration::Accept(tinyxml2::XMLVisitor*) const
                0x001006b4                tinyxml2::XMLUnknown::Accept(tinyxml2::XMLVisitor*) const
                0x001006e4                tinyxml2::XMLElement::Accept(tinyxml2::XMLVisitor*) const
                0x0010078c                tinyxml2::StrPair::Reset()
                0x001007c4                tinyxml2::StrPair::~StrPair()
                0x001007c4                tinyxml2::StrPair::~StrPair()
                0x001007d8                tinyxml2::StrPair::TransferTo(tinyxml2::StrPair*)
                0x00100810                tinyxml2::StrPair::SetStr(char const*, int)
                0x00100864                tinyxml2::StrPair::ParseText(char*, char const*, int)
                0x001008f0                tinyxml2::XMLText::ParseDeep(char*, tinyxml2::StrPair*)
                0x00100994                tinyxml2::XMLComment::ParseDeep(char*, tinyxml2::StrPair*)
                0x001009d0                tinyxml2::XMLDeclaration::ParseDeep(char*, tinyxml2::StrPair*)
                0x00100a0c                tinyxml2::XMLUnknown::ParseDeep(char*, tinyxml2::StrPair*)
                0x00100a48                tinyxml2::StrPair::ParseName(char*)
                0x00100b18                tinyxml2::StrPair::CollapseWhitespace()
                0x00100bf0                tinyxml2::XMLUtil::ReadBOM(char const*, bool*)
                0x00100c28                tinyxml2::XMLUtil::ConvertUTF32ToUTF8(unsigned long, char*, int*)
                0x00100d20                tinyxml2::XMLUtil::GetCharacterRef(char const*, char*, int*)
                0x00100e84                tinyxml2::StrPair::GetStr()
                0x00101068                tinyxml2::XMLUtil::ToStr(int, char*, int)
                0x00101080                tinyxml2::XMLUtil::ToStr(unsigned int, char*, int)
                0x00101098                tinyxml2::XMLUtil::ToStr(bool, char*, int)
                0x001010b0                tinyxml2::XMLUtil::ToStr(float, char*, int)
                0x001010d4                tinyxml2::XMLUtil::ToStr(double, char*, int)
                0x001010f4                tinyxml2::XMLUtil::ToInt(char const*, int*)
                0x00101118                tinyxml2::XMLUtil::ToUnsigned(char const*, unsigned int*)
                0x0010113c                tinyxml2::XMLUtil::ToBool(char const*, bool*)
                0x001012ec                tinyxml2::XMLUtil::ToFloat(char const*, float*)
                0x00101310                tinyxml2::XMLUtil::ToDouble(char const*, double*)
                0x00101334                tinyxml2::XMLDocument::Identify(char*, tinyxml2::XMLNode**)
                0x00101d98                tinyxml2::XMLNode::XMLNode(tinyxml2::XMLDocument*)
                0x00101d98                tinyxml2::XMLNode::XMLNode(tinyxml2::XMLDocument*)
                0x00101dd4                tinyxml2::XMLNode::Value() const
                0x00101e04                tinyxml2::XMLText::ShallowEqual(tinyxml2::XMLNode const*) const
                0x00101eec                tinyxml2::XMLComment::ShallowEqual(tinyxml2::XMLNode const*) const
                0x00101fd4                tinyxml2::XMLDeclaration::ShallowEqual(tinyxml2::XMLNode const*) const
                0x001020bc                tinyxml2::XMLUnknown::ShallowEqual(tinyxml2::XMLNode const*) const
                0x001021a4                tinyxml2::XMLElement::ShallowEqual(tinyxml2::XMLNode const*) const
                0x00102358                tinyxml2::XMLNode::SetValue(char const*, bool)
                0x00102384                tinyxml2::XMLNode::Unlink(tinyxml2::XMLNode*)
                0x001023cc                tinyxml2::XMLNode::FirstChildElement(char const*) const
                0x001024c0                tinyxml2::XMLNode::LastChildElement(char const*) const
                0x001025b4                tinyxml2::XMLNode::NextSiblingElement(char const*) const
                0x0010269c                tinyxml2::XMLNode::PreviousSiblingElement(char const*) const
                0x00102784                tinyxml2::XMLNode::DeleteNode(tinyxml2::XMLNode*)
                0x001027b8                tinyxml2::XMLNode::DeleteChildren()
                0x001027fc                tinyxml2::XMLNode::~XMLNode()
                0x001027fc                tinyxml2::XMLNode::~XMLNode()
                0x00102838                tinyxml2::XMLComment::~XMLComment()
                0x00102838                tinyxml2::XMLComment::~XMLComment()
                0x00102858                tinyxml2::XMLComment::~XMLComment()
                0x00102880                tinyxml2::XMLDeclaration::~XMLDeclaration()
                0x00102880                tinyxml2::XMLDeclaration::~XMLDeclaration()
                0x001028a0                tinyxml2::XMLDeclaration::~XMLDeclaration()
                0x001028c8                tinyxml2::XMLUnknown::~XMLUnknown()
                0x001028c8                tinyxml2::XMLUnknown::~XMLUnknown()
                0x001028e8                tinyxml2::XMLUnknown::~XMLUnknown()
                0x00102910                tinyxml2::XMLNode::~XMLNode()
                0x0010292c                tinyxml2::XMLNode::DeleteChild(tinyxml2::XMLNode*)
                0x00102934                tinyxml2::XMLNode::InsertChildPreamble(tinyxml2::XMLNode*) const
                0x0010299c                tinyxml2::XMLNode::InsertEndChild(tinyxml2::XMLNode*)
                0x001029b8                tinyxml2::XMLNode::ParseDeep(char*, tinyxml2::StrPair*)
                0x00102c48                tinyxml2::XMLNode::InsertAfterChild(tinyxml2::XMLNode*, tinyxml2::XMLNode*)
                0x00102cbc                tinyxml2::XMLNode::InsertFirstChild(tinyxml2::XMLNode*)
                0x00102d1c                tinyxml2::XMLComment::XMLComment(tinyxml2::XMLDocument*)
                0x00102d1c                tinyxml2::XMLComment::XMLComment(tinyxml2::XMLDocument*)
                0x00102d58                tinyxml2::XMLDeclaration::XMLDeclaration(tinyxml2::XMLDocument*)
                0x00102d58                tinyxml2::XMLDeclaration::XMLDeclaration(tinyxml2::XMLDocument*)
                0x00102d94                tinyxml2::XMLUnknown::XMLUnknown(tinyxml2::XMLDocument*)
                0x00102d94                tinyxml2::XMLUnknown::XMLUnknown(tinyxml2::XMLDocument*)
                0x00102dd0                tinyxml2::XMLAttribute::Name() const
                0x00102dd8                tinyxml2::XMLAttribute::Value() const
                0x00102de0                tinyxml2::XMLAttribute::ParseDeep(char*, bool)
                0x00102ebc                tinyxml2::XMLAttribute::SetName(char const*)
                0x00102ec8                tinyxml2::XMLAttribute::QueryIntValue(int*) const
                0x00102ef8                tinyxml2::XMLAttribute::QueryUnsignedValue(unsigned int*) const
                0x00102f28                tinyxml2::XMLAttribute::QueryBoolValue(bool*) const
                0x00102f50                tinyxml2::XMLAttribute::QueryFloatValue(float*) const
                0x00102f80                tinyxml2::XMLAttribute::QueryDoubleValue(double*) const
                0x00102fb0                tinyxml2::XMLAttribute::SetAttribute(char const*)
                0x00102fbc                tinyxml2::XMLAttribute::SetAttribute(int)
                0x00102ff8                tinyxml2::XMLAttribute::SetAttribute(unsigned int)
                0x00103034                tinyxml2::XMLAttribute::SetAttribute(bool)
                0x00103070                tinyxml2::XMLAttribute::SetAttribute(double)
                0x001030ac                tinyxml2::XMLAttribute::SetAttribute(float)
                0x001030ec                tinyxml2::XMLElement::XMLElement(tinyxml2::XMLDocument*)
                0x001030ec                tinyxml2::XMLElement::XMLElement(tinyxml2::XMLDocument*)
                0x00103130                tinyxml2::XMLElement::FindAttribute(char const*) const
                0x00103200                tinyxml2::XMLElement::Attribute(char const*, char const*) const
                0x001032d4                tinyxml2::XMLElement::GetText() const
                0x0010331c                tinyxml2::XMLElement::QueryIntText(int*) const
                0x0010337c                tinyxml2::XMLElement::QueryUnsignedText(unsigned int*) const
                0x001033dc                tinyxml2::XMLElement::QueryBoolText(bool*) const
                0x00103434                tinyxml2::XMLElement::QueryDoubleText(double*) const
                0x00103494                tinyxml2::XMLElement::QueryFloatText(float*) const
                0x001034f4                tinyxml2::XMLElement::FindOrCreateAttribute(char const*)
                0x00103764                tinyxml2::XMLElement::DeleteAttribute(tinyxml2::XMLAttribute*)
                0x001037c8                tinyxml2::XMLElement::~XMLElement()
                0x001037c8                tinyxml2::XMLElement::~XMLElement()
                0x0010380c                tinyxml2::XMLElement::~XMLElement()
                0x00103828                tinyxml2::XMLElement::DeleteAttribute(char const*)
                0x00103940                tinyxml2::XMLElement::ParseAttributes(char*)
                0x00103bfc                tinyxml2::XMLElement::ParseDeep(char*, tinyxml2::StrPair*)
                0x00103cb0                tinyxml2::XMLDocument::XMLDocument(bool, tinyxml2::Whitespace)
                0x00103cb0                tinyxml2::XMLDocument::XMLDocument(bool, tinyxml2::Whitespace)
                0x00103dd4                tinyxml2::XMLDocument::Clear()
                0x00103e0c                tinyxml2::XMLDocument::~XMLDocument()
                0x00103e0c                tinyxml2::XMLDocument::~XMLDocument()
                0x00103fd4                tinyxml2::XMLDocument::~XMLDocument()
                0x00103ff0                tinyxml2::XMLDocument::NewElement(char const*)
                0x00104160                tinyxml2::XMLElement::ShallowClone(tinyxml2::XMLDocument*) const
                0x001041d8                tinyxml2::XMLDocument::NewComment(char const*)
                0x00104340                tinyxml2::XMLComment::ShallowClone(tinyxml2::XMLDocument*) const
                0x00104360                tinyxml2::XMLDocument::NewText(char const*)
                0x001044c4                tinyxml2::XMLText::ShallowClone(tinyxml2::XMLDocument*) const
                0x001044f0                tinyxml2::XMLElement::SetText(char const*)
                0x00104594                tinyxml2::XMLElement::SetText(int)
                0x001045cc                tinyxml2::XMLElement::SetText(unsigned int)
                0x00104604                tinyxml2::XMLElement::SetText(bool)
                0x0010463c                tinyxml2::XMLElement::SetText(float)
                0x00104678                tinyxml2::XMLElement::SetText(double)
                0x001046b0                tinyxml2::XMLDocument::NewDeclaration(char const*)
                0x00104824                tinyxml2::XMLDeclaration::ShallowClone(tinyxml2::XMLDocument*) const
                0x00104844                tinyxml2::XMLDocument::NewUnknown(char const*)
                0x001049ac                tinyxml2::XMLUnknown::ShallowClone(tinyxml2::XMLDocument*) const
                0x001049cc                tinyxml2::XMLDocument::DeleteNode(tinyxml2::XMLNode*)
                0x00104a04                tinyxml2::XMLDocument::SetError(tinyxml2::XMLError, char const*, char const*)
                0x00104a14                tinyxml2::XMLDocument::ErrorName() const
                0x00104a28                tinyxml2::XMLDocument::PrintError() const
                0x00104adc                tinyxml2::XMLDocument::Parse()
                0x00104b58                tinyxml2::XMLDocument::LoadFile(__sFILE*)
                0x00104c48                tinyxml2::XMLDocument::LoadFile(char const*)
                0x00104ca4                tinyxml2::XMLDocument::Parse(char const*, unsigned int)
 .text          0x00104e58      0xd98 khaxinit.o
                0x00104e58                KHAX::MemChunkHax::Step7a_PatchPID()
                0x00104ea4                KHAX::MemChunkHax::Step7b_UnpatchPID()
                0x00104ef4                KHAX::VersionData::ConvertLinearUserVAToKernelVA(void*) const
                0x00104f34                KHAX::MemChunkHax::Step1_Initialize()
                0x00104f78                KHAX::MemChunkHax::Step2_AllocateMemory()
                0x001050a0                KHAX::MemChunkHax::Step3_SurroundFree()
                0x001051bc                KHAX::MemChunkHax::Step6_ExecuteSVCCode()
                0x00105274                KHAX::MemChunkHax::Step6c_UndoCreateThreadPatch()
                0x001052a0                KHAX::MemChunkHax::Step6d_FixHeapCorruption()
                0x001052e8                KHAX::MemChunkHax::Step6e_GrantSVCAccess()
                0x00105348                KHAX::MemChunkHax::Step6b_SVCEntryPoint()
                0x001053a8                KHAX::MemChunkHax::Step6a_SVCEntryPointThunk()
                0x001053c0                KHAX::MemChunkHax::Step6f_FlushCaches()
                0x001053d8                KHAX::MemChunkHax::Step7_GrantServiceAccess()
                0x001054c8                KHAX::MemChunkHax::~MemChunkHax()
                0x001054c8                KHAX::MemChunkHax::~MemChunkHax()
                0x001055c0                KHAX::IsNew3DS(bool*, unsigned long)
                0x0010563c                KHAX::VersionData::GetForCurrentSystem()
                0x001056cc                KHAX::NukeDataCache()
                0x00105718                KHAX::GSPwn(void*, void const*, unsigned int, bool)
                0x001057c4                KHAX::MemChunkHax::Step4_VerifyExpectedLayout()
                0x00105944                KHAX::MemChunkHax::Step5_CorruptCreateThread()
                0x00105aa0                khaxInit
                0x00105be8                khaxExit
 .text          0x00105bf0      0x404 boot.o
                0x00105c98                isNinjhax2
                0x00105cbc                bootApp
 .text          0x00105ff4      0x678 config.o
                0x00105ff4                configCreate
                0x001060cc                configInit
                0x001063a0                configWrite
                0x001063d4                configAddEntry
                0x001064b0                configUpdateSettings
                0x001065b4                configExit
                0x001065e4                configRemoveEntry
 .text          0x0010666c        0x0 font.o
 .text          0x0010666c        0x0 font1.o
 .text          0x0010666c        0x0 font2.o
 .text          0x0010666c     0x11b0 gfx.o
                0x0010666c                drawPixel
                0x00106694                drawLine
                0x001067f0                drawRect
                0x001068b8                drawFillRect
                0x0010696c                gfxDrawText
                0x001069d8                gfxDrawTextf
                0x00106a4c                gfxDrawTextN
                0x00106ac0                gfxDrawSprite
                0x00106bd0                gfxDrawDualSprite
                0x00106c48                gfxDrawSpriteAlpha
                0x00106db4                gfxDrawSpriteAlphaBlend
                0x00106f6c                gfxDrawSpriteAlphaBlendFade
                0x00107140                gfxFillColor
                0x001071b0                gfxFillColorGradient
                0x00107310                _gfxDrawRectangle
                0x0010744c                gfxDrawRectangle
                0x00107474                gfxFadeScreen
                0x0010752c                gfxDrawWave
                0x00107784                gfxClearColor
                0x001077b0                gfxClear
                0x00107800                gfxSwap
 .text          0x0010781c      0x240 loader.o
                0x0010781c                load_3dsx
                0x00107868                load_bin
                0x001079d0                load
 .text          0x00107a5c        0x0 main.o
 .text          0x00107a5c      0x5a4 menu_boot.o
                0x00107a5c                autoBootFix
                0x00107abc                menu_boot
 .text          0x00108000      0x578 menu_config.o
                0x00108000                keyLeft
                0x001080a4                keyRight
                0x00108148                menu_config
 .text          0x00108578      0x3ec menu_more.o
                0x00108578                menu_choose
                0x001085d0                menu_more
 .text          0x00108964      0xb44 menu_netloader.o
                0x001089a0                netloader_draw_error
                0x001089c0                netloader_init
                0x00108a18                netloader_deactivate
                0x00108a7c                netloader_activate
                0x00108d14                load3DSX
                0x00109218                netloader_loop
                0x00109378                netloader_exit
                0x0010938c                menu_netloader
 .text          0x001094a8      0x8c0 menu_picker.o
                0x001094a8                alphasort
                0x001094dc                end_with
                0x00109528                get_filename_ext
                0x00109550                get_dir
                0x0010979c                pick_file
 .text          0x00109d68      0x3dc scanner.o
                0x00109d68                initMetadata
                0x00109d9c                scan3dsx
                0x0010a004                scanExecutable
                0x0010a068                scanMenuEntry
 .text          0x0010a144      0x43c text.o
                0x0010a144                drawCharacter
                0x0010a330                getStringLength
                0x0010a390                drawStringN
                0x0010a52c                drawString
 .text          0x0010a580      0x4a4 utility.o
                0x0010a580                openSDArchive
                0x0010a5d4                closeSDArchive
                0x0010a5e4                svcSleep
                0x0010a5f8                get_button
                0x0010a708                debug
                0x0010a7b8                confirm
                0x0010a8cc                fileExists
                0x0010a964                load_homemenu
                0x0010a968                reboot
                0x0010a988                poweroff
 .text          0x0010aa24      0x6ec brahma.o
                0x0010aa24                brahma_init
                0x0010aa50                brahma_exit
                0x0010aa74                redirect_codeflow
                0x0010aa88                get_exploit_data
                0x0010ab68                setup_exploit_data
                0x0010aba4                recv_arm9_payload
                0x0010ae48                load_arm9_payload
                0x0010aef0                load_arm9_payload_from_mem
                0x0010af50                map_arm9_payload
                0x0010af94                map_arm11_payload
                0x0010b000                exploit_arm9_race_condition
                0x0010b07c                priv_firm_reboot
                0x0010b0d0                firm_reboot
 .text          0x0010b110      0x1a0 arm11.o
                0x0010b110                arm11_start
                0x0010b2a0                arm11_end
                0x0010b2a0                arm11_globals_start
                0x0010b2ac                arm11_globals_end
 .text          0x0010b2b0       0x30 utils.o
                0x0010b2b0                InvalidateEntireInstructionCache
                0x0010b2bc                CleanEntireDataCache
                0x0010b2c8                DisableInterrupts
                0x0010b2d4                EnableInterrupts
 .text          0x0010b2e0     0x2e60 c:/devkitPro/portlibs/armv6k/lib\libconfig.a(libconfig_la-libconfig.o)
                0x0010c640                config_read
                0x0010c64c                config_read_string
                0x0010c65c                config_write
                0x0010c668                config_read_file
                0x0010c704                config_write_file
                0x0010c768                config_destroy
                0x0010c7c4                config_init
                0x0010c808                config_set_auto_convert
                0x0010c820                config_get_auto_convert
                0x0010c82c                config_set_options
                0x0010c834                config_get_options
                0x0010c83c                config_setting_get_int
                0x0010c8bc                config_setting_get_int64
                0x0010c918                config_setting_lookup_int
                0x0010c9cc                config_setting_lookup_int64
                0x0010ca70                config_setting_get_float
                0x0010cae8                config_setting_lookup_float
                0x0010cb98                config_setting_lookup_string
                0x0010cbe4                config_setting_lookup_bool
                0x0010cc30                config_setting_set_int
                0x0010cc90                config_setting_set_int64
                0x0010cd40                config_setting_set_float
                0x0010cde0                config_setting_get_bool
                0x0010cdf4                config_setting_set_bool
                0x0010ce24                config_setting_get_string
                0x0010ce38                config_setting_set_string
                0x0010ce90                config_setting_set_format
                0x0010cec0                config_setting_get_format
                0x0010ced8                config_setting_lookup
                0x0010cfe4                config_lookup
                0x0010cfec                config_lookup_string
                0x0010d020                config_lookup_int
                0x0010d0c8                config_lookup_int64
                0x0010d160                config_lookup_float
                0x0010d200                config_lookup_bool
                0x0010d234                config_setting_get_int_elem
                0x0010d2f4                config_setting_set_int_elem
                0x0010d48c                config_setting_get_int64_elem
                0x0010d530                config_setting_set_int64_elem
                0x0010d704                config_setting_get_float_elem
                0x0010d7c0                config_setting_set_float_elem
                0x0010d988                config_setting_get_bool_elem
                0x0010d9f0                config_setting_set_bool_elem
                0x0010db54                config_setting_get_string_elem
                0x0010dbbc                config_setting_set_string_elem
                0x0010dd3c                config_setting_get_elem
                0x0010dd84                config_setting_get_member
                0x0010dda4                config_set_destructor
                0x0010ddac                config_set_include_dir
                0x0010ddd0                config_setting_length
                0x0010ddfc                config_setting_set_hook
                0x0010de04                config_setting_add
                0x0010dfc8                config_setting_remove
                0x0010e054                config_setting_remove_elem
                0x0010e0e0                config_setting_index
 .text          0x0010e140     0x2420 c:/devkitPro/portlibs/armv6k/lib\libconfig.a(libconfig_la-scanner.o)
                0x0010e168                libconfig_yy_switch_to_buffer
                0x0010e2d4                libconfig_yy_create_buffer
                0x0010e3e0                libconfig_yyrestart
                0x0010e5f8                libconfig_yylex
                0x0010fb50                libconfig_yy_delete_buffer
                0x0010fbac                libconfig_yy_flush_buffer
                0x0010fc28                libconfig_yypush_buffer_state
                0x0010fdb4                libconfig_yypop_buffer_state
                0x0010fe68                libconfig_yy_scan_buffer
                0x00110044                libconfig_yy_scan_string
                0x00110118                libconfig_yy_scan_bytes
                0x001101e8                libconfig_yyget_extra
                0x001101f0                libconfig_yyget_lineno
                0x00110218                libconfig_yyget_column
                0x00110240                libconfig_yyget_in
                0x00110248                libconfig_yyget_out
                0x00110250                libconfig_yyget_leng
                0x00110258                libconfig_yyget_text
                0x00110260                libconfig_yyset_extra
                0x00110268                libconfig_yyset_lineno
                0x00110298                libconfig_yyset_column
                0x001102c8                libconfig_yyset_in
                0x001102d0                libconfig_yyset_out
                0x001102d8                libconfig_yyget_debug
                0x001102e0                libconfig_yyset_debug
                0x001102e8                libconfig_yyget_lval
                0x001102f0                libconfig_yyset_lval
                0x001102f8                libconfig_yylex_init
                0x00110390                libconfig_yylex_init_extra
                0x00110430                libconfig_yylex_destroy
                0x00110554                libconfig_yyalloc
                0x00110558                libconfig_yyrealloc
                0x0011055c                libconfig_yyfree
 .text          0x00110560      0x91c c:/devkitPro/portlibs/armv6k/lib\libconfig.a(libconfig_la-grammar.o)
                0x00110560                libconfig_yyerror
                0x00110590                libconfig_yyparse
 .text          0x00110e7c      0x360 c:/devkitPro/portlibs/armv6k/lib\libconfig.a(libconfig_la-scanctx.o)
                0x00110e7c                scanctx_init
                0x00110f3c                scanctx_cleanup
                0x00110f90                scanctx_push_include
                0x00111168                scanctx_pop_include
                0x001111a0                scanctx_take_string
                0x001111c4                scanctx_current_filename
 .text          0x001111dc       0xbc c:/devkitPro/portlibs/armv6k/lib\libconfig.a(libconfig_la-strbuf.o)
                0x001111dc                strbuf_release
                0x00111224                strbuf_append
 .text          0x00111298      0x1d4 c:/devkitPro/libctru/lib\libctru.a(linear.o)
                0x001112c0                linearMemAlign
                0x00111400                linearAlloc
                0x00111408                linearRealloc
                0x00111410                linearFree
                0x00111460                linearSpaceFree
 .text          0x0011146c      0x35c c:/devkitPro/libctru/lib\libctru.a(mem_pool.o)
                0x0011146c                MemPool::CoalesceRight(MemBlock*)
                0x0011150c                MemPool::Allocate(MemChunk&, unsigned long, int)
                0x00111694                MemPool::Deallocate(MemChunk const&)
                0x00111798                MemPool::GetFreeSpace()
 .text          0x001117c8      0x74c c:/devkitPro/libctru/lib\libctru.a(gfx.o)
                0x00111854                gfxSet3D
                0x00111864                gfxSetScreenFormat
                0x0011187c                gfxGetScreenFormat
                0x00111894                gfxSetDoubleBuffering
                0x001118a8                gfxSetFramebufferInfo
                0x00111918                gfxWriteFramebufferInfo
                0x001119dc                gfxInit
                0x00111bbc                gfxInitDefault
                0x00111bcc                gfxExit
                0x00111cb8                gfxGetFramebuffer
                0x00111d68                gfxFlushBuffers
                0x00111e44                gfxSwapBuffers
                0x00111eb8                gfxSwapBuffersGpu
 *fill*         0x00111f14        0x4 
 .text          0x00111f18      0x2d0 c:/devkitPro/libctru/lib\libctru.a(os.o)
                0x00111f70                osConvertVirtToPhys
                0x00111fbc                osConvertOldLINEARMemToNew
                0x00111fdc                __libctru_gtod
                0x001120d4                osGetTime
                0x00112148                osGetFirmVersion
                0x0011215c                osGetKernelVersion
                0x00112170                osStrError
                0x00112190                osGetWifiStrength
                0x001121a0                __ctru_speedup_config
                0x001121d4                osSetSpeedupEnable
 .text          0x001121e8      0xffc c:/devkitPro/libctru/lib\libctru.a(sdmc_dev.o)
                0x00113064                sdmcInit
                0x00113194                sdmcExit
 .text          0x001131e4      0x3b8 c:/devkitPro/libctru/lib\libctru.a(srv.o)
                0x001131e4                __get_handle_from_list
                0x0011327c                __destroy_handle_list
                0x001132d0                srvExit
                0x001132f8                srvGetSessionHandle
                0x00113304                srvRegisterClient
                0x0011333c                srvInit
                0x001133a4                srvGetServiceHandle
                0x00113424                srvRegisterService
                0x00113480                srvUnregisterService
                0x001134cc                srvPmInit
                0x00113520                srvRegisterProcess
                0x00113568                srvUnregisterProcess
 .text          0x0011359c      0x19c c:/devkitPro/libctru/lib\libctru.a(ac.o)
                0x0011359c                acInit
                0x001135d0                acExit
                0x001135e0                ACU_CreateDefaultConfig
                0x00113634                ACU_cmd26
                0x00113698                ACU_GetWifiStatus
                0x001136d8                ACU_WaitInternetConnection
 .text          0x00113738      0x430 c:/devkitPro/libctru/lib\libctru.a(am.o)
                0x00113738                amInit
                0x001137a4                amExit
                0x001137b4                amGetSessionHandle
                0x001137c0                AM_GetTitleCount
                0x00113800                AM_GetTitleIdList
                0x00113848                AM_ListTitles
                0x001138a4                AM_GetDeviceId
                0x001138dc                AM_StartCiaInstall
                0x0011391c                AM_StartDlpChildCiaInstall
                0x00113958                AM_CancelCIAInstall
                0x00113998                AM_FinishCiaInstall
                0x001139d8                AM_DeleteTitle
                0x00113a14                AM_DeleteAppTitle
                0x00113a50                AM_InstallNativeFirm
                0x00113a80                AM_GetTitleProductCode
                0x00113ae4                AM_GetCiaFileInfo
 .text          0x00113b68     0x1e3c c:/devkitPro/libctru/lib\libctru.a(apt.o)
                0x00113bcc                _aptDebug
                0x00113bd0                aptInitCaptureInfo
                0x00113c80                aptWaitStatusEvent
                0x00113ca8                aptHook
                0x00113ce0                aptUnhook
                0x00113d0c                aptGetStatus
                0x00113d44                aptSetStatus
                0x00113db4                aptGetStatusPower
                0x00113dec                aptSetStatusPower
                0x00113e24                aptOpenSession
                0x00113e48                aptCloseSession
                0x00113e70                aptSignalReadyForSleep
                0x00113e80                APT_GetLockHandle
                0x00113ed0                APT_Initialize
                0x00113f38                APT_Finalize
                0x00113f74                APT_HardwareResetAsync
                0x00113fa8                APT_Enable
                0x00113fe4                APT_GetAppletManInfo
                0x00114064                aptGetMenuAppID
                0x001140a0                APT_GetAppletInfo
                0x00114138                APT_GetAppletProgramInfo
                0x0011418c                APT_GetProgramID
                0x001141fc                APT_IsRegistered
                0x0011424c                APT_InquireNotification
                0x0011429c                APT_PrepareToJumpToHomeMenu
                0x001142d0                APT_JumpToHomeMenu
                0x00114320                APT_PrepareToJumpToApplication
                0x0011435c                APT_JumpToApplication
                0x001143ac                APT_NotifyToWait
                0x001143e8                APT_AppletUtility
                0x00114470                aptAppletUtility_Exit_RetToApp
                0x00114590                aptAppletClosed
                0x001146a0                aptInit
                0x00114868                APT_GlanceParameter
                0x001148dc                APT_ReceiveParameter
                0x00114950                APT_SendParameter
                0x001149c0                APT_SendCaptureBufferInfo
                0x00114a0c                aptReturnToMenu
                0x00114be0                APT_ReplySleepQuery
                0x00114c20                APT_ReplySleepNotificationComplete
                0x00114c5c                aptEventHandler
                0x00114f60                APT_PrepareToCloseApplication
                0x00114f9c                APT_CloseApplication
                0x00114ff4                aptExit
                0x001151e0                APT_SetAppCpuTimeLimit
                0x00115224                APT_GetAppCpuTimeLimit
                0x00115278                APT_CheckNew3DS_Application
                0x001152d4                APT_CheckNew3DS_System
                0x00115330                APT_CheckNew3DS
                0x001153a4                APT_PrepareToDoAppJump
                0x001153f0                APT_DoAppJump
                0x00115458                APT_PrepareToStartLibraryApplet
                0x00115494                APT_StartLibraryApplet
                0x001154f4                aptAppletStarted
                0x001155f8                aptMainLoop
                0x00115770                APT_LaunchLibraryApplet
                0x00115908                APT_PrepareToStartSystemApplet
                0x00115944                APT_StartSystemApplet
 .text          0x001159a4      0xcd4 c:/devkitPro/libctru/lib\libctru.a(fs.o)
                0x001159a4                FS_makePath
                0x001159d0                fsExit
                0x001159f4                fsGetSessionHandle
                0x00115a00                FSUSER_Initialize
                0x00115a74                fsInit
                0x00115ae0                FSUSER_OpenFile
                0x00115b8c                FSUSER_OpenFileDirectly
                0x00115c58                FSUSER_DeleteFile
                0x00115ce0                FSUSER_RenameFile
                0x00115da4                FSUSER_DeleteDirectory
                0x00115e2c                FSUSER_DeleteDirectoryRecursively
                0x00115eb4                FSUSER_CreateFile
                0x00115f4c                FSUSER_CreateDirectory
                0x00115fd8                FSUSER_RenameDirectory
                0x0011609c                FSUSER_OpenDirectory
                0x00116130                FSUSER_OpenArchive
                0x001161b8                FSUSER_CloseArchive
                0x00116210                FSUSER_GetSdmcArchiveResource
                0x0011628c                FSUSER_GetNandArchiveResource
                0x00116308                FSUSER_IsSdmcDetected
                0x00116354                FSUSER_GetMediaType
                0x001163a0                FSUSER_IsSdmcWritable
                0x001163ec                FSFILE_Close
                0x00116430                FSFILE_Read
                0x0011648c                FSFILE_Write
                0x001164f0                FSFILE_GetSize
                0x00116530                FSFILE_SetSize
                0x0011655c                FSFILE_GetAttributes
                0x00116594                FSFILE_SetAttributes
                0x001165bc                FSFILE_Flush
                0x001165e0                FSDIR_Read
                0x00116634                FSDIR_Close
 .text          0x00116678      0x934 c:/devkitPro/libctru/lib\libctru.a(gsp.o)
                0x0011675c                gspInit
                0x00116770                gspExit
                0x00116788                gspInitEventHandler
                0x00116854                gspExitEventHandler
                0x001168ac                gspWaitForEvent
                0x00116904                GSPGPU_WriteHWRegs
                0x00116974                GSPGPU_WriteHWRegsWithMask
                0x00116a00                GSPGPU_ReadHWRegs
                0x00116a70                GSPGPU_SetBufferSwap
                0x00116ae4                GSPGPU_FlushDataCache
                0x00116b38                GSPGPU_InvalidateDataCache
                0x00116b8c                GSPGPU_SetLcdForceBlack
                0x00116bc8                GSPGPU_TriggerCmdReqQueue
                0x00116bfc                GSPGPU_RegisterInterruptRelayQueue
                0x00116c68                GSPGPU_UnregisterInterruptRelayQueue
                0x00116c9c                GSPGPU_AcquireRight
                0x00116cec                GSPGPU_ReleaseRight
                0x00116d20                GSPGPU_ImportDisplayCaptureInfo
                0x00116da4                GSPGPU_SaveVramSysArea
                0x00116dd8                GSPGPU_RestoreVramSysArea
                0x00116e0c                GSPGPU_SubmitGxCommand
                0x00116f18                gspLcdInit
                0x00116f2c                gspLcdExit
                0x00116f44                GSPLCD_PowerOffBacklight
                0x00116f78                GSPLCD_PowerOnBacklight
 .text          0x00116fac      0x264 c:/devkitPro/libctru/lib\libctru.a(gx.o)
                0x00116fac                GX_RequestDma
                0x00117000                GX_SetCommandList_Last
                0x00117068                GX_SetMemoryFill
                0x001170dc                GX_SetDisplayTransfer
                0x00117140                GX_SetTextureCopy
                0x001171a8                GX_SetCommandList_First
 .text          0x00117210      0x10c c:/devkitPro/libctru/lib\libctru.a(hb.o)
                0x00117210                hbInit
                0x00117224                hbExit
                0x00117234                HB_FlushInvalidateCache
                0x0011727c                HB_GetBootloaderAddresses
                0x001172cc                HB_ReprotectMemory
 .text          0x0011731c      0x754 c:/devkitPro/libctru/lib\libctru.a(hid.o)
                0x0011731c                hidExit
                0x001173ec                hidWaitForEvent
                0x00117444                hidCheckSectionUpdateTime
                0x00117480                hidScanInput
                0x001176c8                hidKeysHeld
                0x001176d8                hidKeysDown
                0x001176e8                hidKeysUp
                0x001176f8                hidTouchRead
                0x00117710                hidCircleRead
                0x00117728                hidAccelRead
                0x00117748                hidGyroRead
                0x00117768                HIDUSER_GetHandles
                0x001177f8                hidInit
                0x0011794c                HIDUSER_EnableAccelerometer
                0x00117978                HIDUSER_DisableAccelerometer
                0x001179a4                HIDUSER_EnableGyroscope
                0x001179d0                HIDUSER_DisableGyroscope
                0x001179fc                HIDUSER_GetGyroscopeRawToDpsCoefficient
                0x00117a38                HIDUSER_GetSoundVolume
 .text          0x00117a70      0x3c0 c:/devkitPro/libctru/lib\libctru.a(irrst.o)
                0x00117a70                irrstWaitForEvent
                0x00117abc                irrstCheckSectionUpdateTime
                0x00117af8                irrstScanInput
                0x00117bac                irrstKeysHeld
                0x00117bc4                irrstCstickRead
                0x00117bdc                IRRST_GetHandles
                0x00117c2c                IRRST_Initialize
                0x00117c64                irrstInit
                0x00117d64                IRRST_Shutdown
                0x00117d90                irrstExit
 .text          0x00117e30      0x1bc c:/devkitPro/libctru/lib\libctru.a(ptm.o)
                0x00117e30                ptmInit
                0x00117e44                ptmExit
                0x00117e54                ptmSysmInit
                0x00117e68                ptmSysmExit
                0x00117e78                PTMU_GetShellState
                0x00117eb8                PTMU_GetBatteryLevel
                0x00117ef8                PTMU_GetBatteryChargeState
                0x00117f38                PTMU_GetPedometerState
                0x00117f78                PTMU_GetTotalStepCount
                0x00117fb8                PTMSYSM_ConfigureNew3DSCPU
 .text          0x00117fec      0x204 c:/devkitPro/libctru/lib\libctru.a(soc_accept.o)
                0x00117fec                accept
 .text          0x001181f0      0x184 c:/devkitPro/libctru/lib\libctru.a(soc_bind.o)
                0x001181f0                bind
 .text          0x00118374       0x78 c:/devkitPro/libctru/lib\libctru.a(soc_closesocket.o)
                0x00118374                closesocket
 .text          0x001183ec       0x3c c:/devkitPro/libctru/lib\libctru.a(soc_common.o)
                0x001183ec                _net_convert_error
 .text          0x00118428      0x168 c:/devkitPro/libctru/lib\libctru.a(soc_fcntl.o)
                0x00118428                fcntl
 .text          0x00118590       0x54 c:/devkitPro/libctru/lib\libctru.a(soc_gethostid.o)
                0x00118590                gethostid
 .text          0x001185e4       0xd4 c:/devkitPro/libctru/lib\libctru.a(soc_inet_ntoa.o)
                0x001185e4                inet_ntoa
 .text          0x001186b8      0x2bc c:/devkitPro/libctru/lib\libctru.a(soc_init.o)
                0x001187c0                SOC_Initialize
                0x00118900                SOC_Shutdown
 .text          0x00118974      0x100 c:/devkitPro/libctru/lib\libctru.a(soc_listen.o)
                0x00118974                listen
 .text          0x00118a74       0x20 c:/devkitPro/libctru/lib\libctru.a(soc_recv.o)
                0x00118a74                recv
 .text          0x00118a94      0x35c c:/devkitPro/libctru/lib\libctru.a(soc_recvfrom.o)
                0x00118a94                socuipc_cmd7
                0x00118bd4                socuipc_cmd8
                0x00118d2c                soc_recvfrom
                0x00118d58                recvfrom
 .text          0x00118df0       0x20 c:/devkitPro/libctru/lib\libctru.a(soc_send.o)
                0x00118df0                send
 .text          0x00118e10      0x388 c:/devkitPro/libctru/lib\libctru.a(soc_sendto.o)
                0x00118e10                socuipc_cmd9
                0x00118f70                socuipc_cmda
                0x001190d4                soc_sendto
                0x00119100                sendto
 .text          0x00119198      0x128 c:/devkitPro/libctru/lib\libctru.a(soc_socket.o)
                0x00119198                socket
 .text          0x001192c0       0x70 c:/devkitPro/libctru/lib\libctru.a(rbtree_find.o)
                0x001192c0                rbtree_find
 .text          0x00119330       0x14 c:/devkitPro/libctru/lib\libctru.a(rbtree_init.o)
                0x00119330                rbtree_init
 .text          0x00119344      0x1f4 c:/devkitPro/libctru/lib\libctru.a(rbtree_insert.o)
                0x00119528                rbtree_insert
                0x00119530                rbtree_insert_multi
 .text          0x00119538      0x340 c:/devkitPro/libctru/lib\libctru.a(rbtree_remove.o)
                0x00119538                rbtree_remove
 .text          0x00119878       0xac c:/devkitPro/libctru/lib\libctru.a(rbtree_rotate.o)
                0x00119878                rbtree_rotate
 .text          0x00119924      0x138 c:/devkitPro/libctru/lib\libctru.a(decode_utf8.o)
                0x00119924                decode_utf8
 .text          0x00119a5c       0xe8 c:/devkitPro/libctru/lib\libctru.a(utf16_to_utf8.o)
                0x00119a5c                utf16_to_utf8
 .text          0x00119b44       0xb8 c:/devkitPro/libctru/lib\libctru.a(utf8_to_utf16.o)
                0x00119b44                utf8_to_utf16
 .text          0x00119bfc       0xa4 c:/devkitPro/libctru/lib\libctru.a(allocateHeaps.o)
                0x00119bfc                __system_allocateHeaps
 .text          0x00119ca0       0xf4 c:/devkitPro/libctru/lib\libctru.a(initArgv.o)
                0x00119ca0                __system_initArgv
 .text          0x00119d94       0x4c c:/devkitPro/libctru/lib\libctru.a(initSystem.o)
                0x00119d94                __libctru_init
 .text          0x00119de0      0x460 c:/devkitPro/libctru/lib\libctru.a(svc.o)
                0x00119de0                svcControlMemory
                0x00119e00                svcQueryMemory
                0x00119e30                svcExitProcess
                0x00119e38                svcCreateThread
                0x00119e58                svcExitThread
                0x00119e60                svcSleepThread
                0x00119e68                svcGetThreadPriority
                0x00119e7c                svcSetThreadPriority
                0x00119e84                svcGetThreadAffinityMask
                0x00119e8c                svcSetThreadAffinityMask
                0x00119e94                svcGetThreadIdealProcessor
                0x00119ea8                svcSetThreadIdealProcessor
                0x00119eb0                svcGetProcessorID
                0x00119eb8                svcCreateMutex
                0x00119ecc                svcReleaseMutex
                0x00119ed4                svcCreateSemaphore
                0x00119ee8                svcReleaseSemaphore
                0x00119efc                svcCreateEvent
                0x00119f10                svcSignalEvent
                0x00119f18                svcClearEvent
                0x00119f20                svcCreateTimer
                0x00119f34                svcSetTimer
                0x00119f3c                svcCancelTimer
                0x00119f44                svcClearTimer
                0x00119f4c                svcCreateMemoryBlock
                0x00119f64                svcMapMemoryBlock
                0x00119f6c                svcUnmapMemoryBlock
                0x00119f74                svcCreateAddressArbiter
                0x00119f88                svcArbitrateAddress
                0x00119fa8                svcCloseHandle
                0x00119fb0                svcWaitSynchronization
                0x00119fb8                svcWaitSynchronizationN
                0x00119fe0                svcDuplicateHandle
                0x00119ff4                svcGetSystemTick
                0x00119ffc                svcGetSystemInfo
                0x0011a014                svcGetProcessInfo
                0x0011a02c                svcGetThreadInfo
                0x0011a044                svcConnectToPort
                0x0011a058                svcSendSyncRequest
                0x0011a060                svcOpenProcess
                0x0011a074                svcOpenThread
                0x0011a088                svcGetProcessId
                0x0011a09c                svcGetProcessIdOfThread
                0x0011a0b0                svcGetThreadId
                0x0011a0c4                svcBreak
                0x0011a0cc                svcOutputDebugString
                0x0011a0d4                svcCreatePort
                0x0011a0f4                svcAcceptSession
                0x0011a10c                svcReplyAndReceive
                0x0011a124                svcInvalidateProcessDataCache
                0x0011a12c                svcFlushProcessDataCache
                0x0011a134                svcStartInterProcessDma
                0x0011a154                svcStopDma
                0x0011a15c                svcGetDmaState
                0x0011a170                svcDebugActiveProcess
                0x0011a184                svcBreakDebugProcess
                0x0011a18c                svcTerminateDebugProcess
                0x0011a194                svcGetProcessDebugEvent
                0x0011a19c                svcContinueDebugEvent
                0x0011a1a4                svcGetProcessList
                0x0011a1c4                svcReadProcessMemory
                0x0011a1cc                svcWriteProcessMemory
                0x0011a1d4                svcControlProcessMemory
                0x0011a1ec                svcMapProcessMemory
                0x0011a1f4                svcUnmapProcessMemory
                0x0011a1fc                svcTerminateProcess
                0x0011a204                svcBackdoor
                0x0011a20c                svcKernelSetState
                0x0011a214                svcQueryProcessMemory
 .text          0x0011a240       0x64 c:/devkitPro/libctru/lib\libctru.a(stack_adjust.o)
                0x0011a240                initSystem
                0x0011a284                __ctru_exit
 .text          0x0011a2a4      0x178 c:/devkitPro/libctru/lib\libctru.a(mappable.o)
                0x0011a2cc                mappableAlloc
                0x0011a3c0                mappableFree
                0x0011a410                mappableSpaceFree
 .text          0x0011a41c      0x1c4 c:/devkitPro/libctru/lib\libctru.a(vram.o)
                0x0011a444                vramMemAlign
                0x0011a574                vramAlloc
                0x0011a57c                vramRealloc
                0x0011a584                vramFree
                0x0011a5d4                vramSpaceFree
 .text          0x0011a5e0      0x118 c:/devkitPro/libctru/lib\libctru.a(rbtree_iterator.o)
                0x0011a5e0                rbtree_node_next
                0x0011a66c                rbtree_node_prev
 .text          0x0011a6f8       0x60 c:/devkitPro/libctru/lib\libctru.a(decode_utf16.o)
                0x0011a6f8                decode_utf16
 .text          0x0011a758       0x68 c:/devkitPro/libctru/lib\libctru.a(encode_utf16.o)
                0x0011a758                encode_utf16
 .text          0x0011a7c0      0x104 c:/devkitPro/libctru/lib\libctru.a(encode_utf8.o)
                0x0011a7c0                encode_utf8
 .text          0x0011a8c4       0x1c c:/devkitPro/libctru/lib\libctru.a(appExit.o)
                0x0011a8c4                __appExit
 .text          0x0011a8e0       0x1c c:/devkitPro/libctru/lib\libctru.a(appInit.o)
                0x0011a8e0                __appInit
 .text          0x0011a8fc       0x90 c:/devkitPro/libctru/lib\libctru.a(ctru_exit.o)
                0x0011a8fc                __libctru_exit
 .text          0x0011a98c     0x2c58 c:/devkitPro/portlibs/armv6k/lib\libz.a(inflate.o)
                0x0011a98c                inflateResetKeep
                0x0011aa1c                inflateReset
                0x0011aab8                inflateReset2
                0x0011abd8                inflateInit2_
                0x0011ad60                inflateInit_
                0x0011aec4                inflatePrime
                0x0011af3c                inflate
                0x0011cdd8                inflateEnd
                0x0011ce3c                inflateGetDictionary
                0x0011ced4                inflateSetDictionary
                0x0011d07c                inflateGetHeader
                0x0011d0b8                inflateSync
                0x0011d370                inflateSyncPoint
                0x0011d3b0                inflateCopy
                0x0011d55c                inflateUndermine
                0x0011d58c                inflateMark
 .text          0x0011d5e4      0xbf4 c:/devkitPro/portlibs/armv6k/lib\libz.a(inftrees.o)
                0x0011d5e4                inflate_table
 .text          0x0011e1d8       0x38 c:/devkitPro/portlibs/armv6k/lib\libz.a(zutil.o)
                0x0011e1d8                zlibVersion
                0x0011e1e4                zlibCompileFlags
                0x0011e1ec                zError
                0x0011e200                zcalloc
                0x0011e208                zcfree
 .text          0x0011e210      0x5c0 c:/devkitPro/portlibs/armv6k/lib\libz.a(adler32.o)
                0x0011e210                adler32
                0x0011e658                adler32_combine
                0x0011e714                adler32_combine64
 .text          0x0011e7d0      0x5d8 c:/devkitPro/portlibs/armv6k/lib\libz.a(crc32.o)
                0x0011e9e4                get_crc_table
                0x0011e9f0                crc32
                0x0011eda0                crc32_combine
                0x0011eda4                crc32_combine64
 .text          0x0011eda8      0xbe4 c:/devkitPro/portlibs/armv6k/lib\libz.a(inffast.o)
                0x0011eda8                inflate_fast
 .text          0x0011f98c        0x0 c:/devkitpro/devkitarm/bin/../lib/gcc/arm-none-eabi/4.9.2/../../../../arm-none-eabi/lib/armv6k/fpu\libstdc++.a(new_handler.o)
 .text          0x0011f98c        0x0 c:/devkitpro/devkitarm/bin/../lib/gcc/arm-none-eabi/4.9.2/../../../../arm-none-eabi/lib/armv6k/fpu\libstdc++.a(del_opv.o)
 .text          0x0011f98c        0x0 c:/devkitpro/devkitarm/bin/../lib/gcc/arm-none-eabi/4.9.2/../../../../arm-none-eabi/lib/armv6k/fpu\libstdc++.a(new_opv.o)
 .text          0x0011f98c        0x0 c:/devkitpro/devkitarm/bin/../lib/gcc/arm-none-eabi/4.9.2/../../../../arm-none-eabi/lib/armv6k/fpu\libstdc++.a(eh_arm.o)
 .text          0x0011f98c        0x0 c:/devkitpro/devkitarm/bin/../lib/gcc/arm-none-eabi/4.9.2/../../../../arm-none-eabi/lib/armv6k/fpu\libstdc++.a(eh_exception.o)
 .text          0x0011f98c        0x0 c:/devkitpro/devkitarm/bin/../lib/gcc/arm-none-eabi/4.9.2/../../../../arm-none-eabi/lib/armv6k/fpu\libstdc++.a(si_class_type_info.o)
 .text          0x0011f98c        0x0 c:/devkitpro/devkitarm/bin/../lib/gcc/arm-none-eabi/4.9.2/../../../../arm-none-eabi/lib/armv6k/fpu\libstdc++.a(eh_call.o)
 .text          0x0011f98c        0x0 c:/devkitpro/devkitarm/bin/../lib/gcc/arm-none-eabi/4.9.2/../../../../arm-none-eabi/lib/armv6k/fpu\libstdc++.a(eh_globals.o)
 .text          0x0011f98c        0x0 c:/devkitpro/devkitarm/bin/../lib/gcc/arm-none-eabi/4.9.2/../../../../arm-none-eabi/lib/armv6k/fpu\libstdc++.a(eh_catch.o)
 .text          0x0011f98c        0x0 c:/devkitpro/devkitarm/bin/../lib/gcc/arm-none-eabi/4.9.2/../../../../arm-none-eabi/lib/armv6k/fpu\libstdc++.a(tinfo.o)
 .text          0x0011f98c        0x0 c:/devkitpro/devkitarm/bin/../lib/gcc/arm-none-eabi/4.9.2/../../../../arm-none-eabi/lib/armv6k/fpu\libstdc++.a(pure.o)
 .text          0x0011f98c        0x0 c:/devkitpro/devkitarm/bin/../lib/gcc/arm-none-eabi/4.9.2/../../../../arm-none-eabi/lib/armv6k/fpu\libstdc++.a(eh_personality.o)
 .text          0x0011f98c        0x0 c:/devkitpro/devkitarm/bin/../lib/gcc/arm-none-eabi/4.9.2/../../../../arm-none-eabi/lib/armv6k/fpu\libstdc++.a(del_op.o)
 .text          0x0011f98c        0x0 c:/devkitpro/devkitarm/bin/../lib/gcc/arm-none-eabi/4.9.2/../../../../arm-none-eabi/lib/armv6k/fpu\libstdc++.a(new_op.o)
 .text          0x0011f98c        0x0 c:/devkitpro/devkitarm/bin/../lib/gcc/arm-none-eabi/4.9.2/../../../../arm-none-eabi/lib/armv6k/fpu\libstdc++.a(new_opvnt.o)
 .text          0x0011f98c        0x0 c:/devkitpro/devkitarm/bin/../lib/gcc/arm-none-eabi/4.9.2/../../../../arm-none-eabi/lib/armv6k/fpu\libstdc++.a(eh_alloc.o)
 .text          0x0011f98c        0x0 c:/devkitpro/devkitarm/bin/../lib/gcc/arm-none-eabi/4.9.2/../../../../arm-none-eabi/lib/armv6k/fpu\libstdc++.a(class_type_info.o)
 .text          0x0011f98c        0x0 c:/devkitpro/devkitarm/bin/../lib/gcc/arm-none-eabi/4.9.2/../../../../arm-none-eabi/lib/armv6k/fpu\libstdc++.a(eh_terminate.o)
 .text          0x0011f98c        0x0 c:/devkitpro/devkitarm/bin/../lib/gcc/arm-none-eabi/4.9.2/../../../../arm-none-eabi/lib/armv6k/fpu\libstdc++.a(eh_unex_handler.o)
 .text          0x0011f98c        0x0 c:/devkitpro/devkitarm/bin/../lib/gcc/arm-none-eabi/4.9.2/../../../../arm-none-eabi/lib/armv6k/fpu\libstdc++.a(bad_alloc.o)
 .text          0x0011f98c        0x0 c:/devkitpro/devkitarm/bin/../lib/gcc/arm-none-eabi/4.9.2/../../../../arm-none-eabi/lib/armv6k/fpu\libstdc++.a(eh_throw.o)
 .text          0x0011f98c        0x0 c:/devkitpro/devkitarm/bin/../lib/gcc/arm-none-eabi/4.9.2/../../../../arm-none-eabi/lib/armv6k/fpu\libstdc++.a(new_opnt.o)
 .text          0x0011f98c        0x0 c:/devkitpro/devkitarm/bin/../lib/gcc/arm-none-eabi/4.9.2/../../../../arm-none-eabi/lib/armv6k/fpu\libstdc++.a(eh_term_handler.o)
 .text          0x0011f98c        0x0 c:/devkitpro/devkitarm/bin/../lib/gcc/arm-none-eabi/4.9.2/../../../../arm-none-eabi/lib/armv6k/fpu\libstdc++.a(vterminate.o)
 .text          0x0011f98c        0x0 c:/devkitpro/devkitarm/bin/../lib/gcc/arm-none-eabi/4.9.2/../../../../arm-none-eabi/lib/armv6k/fpu\libstdc++.a(eh_type.o)
 .text          0x0011f98c     0xd088 c:/devkitpro/devkitarm/bin/../lib/gcc/arm-none-eabi/4.9.2/../../../../arm-none-eabi/lib/armv6k/fpu\libstdc++.a(cp-demangle.o)
                0x0012c898                __cxa_demangle
                0x0012c9e8                __gcclibcxx_demangle_callback
 .text          0x0012ca14      0x20c c:/devkitpro/devkitarm/bin/../lib/gcc/arm-none-eabi/4.9.2/armv6k/fpu\libgcc.a(_udivsi3.o)
                0x0012ca14                __aeabi_uidiv
                0x0012ca14                __udivsi3
                0x0012cc00                __aeabi_uidivmod
 .text          0x0012cc20        0x4 c:/devkitpro/devkitarm/bin/../lib/gcc/arm-none-eabi/4.9.2/armv6k/fpu\libgcc.a(_dvmd_tls.o)
                0x0012cc20                __aeabi_idiv0
                0x0012cc20                __aeabi_ldiv0
 .text          0x0012cc24      0x3b8 c:/devkitpro/devkitarm/bin/../lib/gcc/arm-none-eabi/4.9.2/armv6k/fpu\libgcc.a(_arm_addsubdf3.o)
                0x0012cc24                __aeabi_drsub
                0x0012cc2c                __aeabi_dsub
                0x0012cc2c                __subdf3
                0x0012cc30                __aeabi_dadd
                0x0012cc30                __adddf3
                0x0012cedc                __floatunsidf
                0x0012cedc                __aeabi_ui2d
                0x0012cf00                __floatsidf
                0x0012cf00                __aeabi_i2d
                0x0012cf28                __aeabi_f2d
                0x0012cf28                __extendsfdf2
                0x0012cf68                __floatundidf
                0x0012cf68                __aeabi_ul2d
                0x0012cf7c                __floatdidf
                0x0012cf7c                __aeabi_l2d
 .text          0x0012cfdc      0x250 c:/devkitpro/devkitarm/bin/../lib/gcc/arm-none-eabi/4.9.2/armv6k/fpu\libgcc.a(_arm_addsubsf3.o)
                0x0012cfdc                __aeabi_frsub
                0x0012cfe4                __subsf3
                0x0012cfe4                __aeabi_fsub
                0x0012cfe8                __aeabi_fadd
                0x0012cfe8                __addsf3
                0x0012d178                __aeabi_ui2f
                0x0012d178                __floatunsisf
                0x0012d180                __aeabi_i2f
                0x0012d180                __floatsisf
                0x0012d1a0                __aeabi_ul2f
                0x0012d1a0                __floatundisf
                0x0012d1b0                __aeabi_l2f
                0x0012d1b0                __floatdisf
 .text          0x0012d22c       0x2c c:/devkitpro/devkitarm/bin/../lib/gcc/arm-none-eabi/4.9.2/armv6k/fpu\libgcc.a(_fixdfdi.o)
                0x0012d22c                __fixdfdi
                0x0012d22c                __aeabi_d2lz
 .text          0x0012d258       0x48 c:/devkitpro/devkitarm/bin/../lib/gcc/arm-none-eabi/4.9.2/armv6k/fpu\libgcc.a(_fixunsdfdi.o)
                0x0012d258                __fixunsdfdi
                0x0012d258                __aeabi_d2ulz
 .text          0x0012d2a0     0x1080 c:/devkitpro/devkitarm/bin/../lib/gcc/arm-none-eabi/4.9.2/armv6k/fpu\libgcc.a(unwind-arm.o)
                0x0012d740                _Unwind_GetCFA
                0x0012d748                __gnu_Unwind_RaiseException
                0x0012d7f0                __gnu_Unwind_ForcedUnwind
                0x0012d814                __gnu_Unwind_Resume
                0x0012d888                __gnu_Unwind_Resume_or_Rethrow
                0x0012d8a8                _Unwind_Complete
                0x0012d8ac                _Unwind_DeleteException
                0x0012d8c4                _Unwind_VRS_Get
                0x0012d94c                _Unwind_VRS_Set
                0x0012d9d8                __gnu_Unwind_Backtrace
                0x0012dedc                __aeabi_unwind_cpp_pr0
                0x0012dee4                __aeabi_unwind_cpp_pr1
                0x0012deec                __aeabi_unwind_cpp_pr2
                0x0012def4                _Unwind_VRS_Pop
 .text          0x0012e320      0x1a8 c:/devkitpro/devkitarm/bin/../lib/gcc/arm-none-eabi/4.9.2/armv6k/fpu\libgcc.a(libunwind.o)
                0x0012e320                __restore_core_regs
                0x0012e320                restore_core_regs
                0x0012e334                __gnu_Unwind_Restore_VFP
                0x0012e33c                __gnu_Unwind_Save_VFP
                0x0012e344                __gnu_Unwind_Restore_VFP_D
                0x0012e34c                __gnu_Unwind_Save_VFP_D
                0x0012e354                __gnu_Unwind_Restore_VFP_D_16_to_31
                0x0012e35c                __gnu_Unwind_Save_VFP_D_16_to_31
                0x0012e364                __gnu_Unwind_Restore_WMMXD
                0x0012e3a8                __gnu_Unwind_Save_WMMXD
                0x0012e3ec                __gnu_Unwind_Restore_WMMXC
                0x0012e400                __gnu_Unwind_Save_WMMXC
                0x0012e414                ___Unwind_RaiseException
                0x0012e414                _Unwind_RaiseException
                0x0012e438                _Unwind_Resume
                0x0012e438                ___Unwind_Resume
                0x0012e45c                _Unwind_Resume_or_Rethrow
                0x0012e45c                ___Unwind_Resume_or_Rethrow
                0x0012e480                _Unwind_ForcedUnwind
                0x0012e480                ___Unwind_ForcedUnwind
                0x0012e4a4                ___Unwind_Backtrace
                0x0012e4a4                _Unwind_Backtrace
 .text          0x0012e4c8      0x4d0 c:/devkitpro/devkitarm/bin/../lib/gcc/arm-none-eabi/4.9.2/armv6k/fpu\libgcc.a(pr-support.o)
                0x0012e558                __gnu_unwind_execute
                0x0012e918                __gnu_unwind_frame
                0x0012e95c                _Unwind_GetRegionStart
                0x0012e96c                _Unwind_GetLanguageSpecificData
                0x0012e988                _Unwind_GetDataRelBase
                0x0012e990                _Unwind_GetTextRelBase
 .text          0x0012e998        0x0 c:/devkitpro/devkitarm/bin/../lib/gcc/arm-none-eabi/4.9.2/../../../../arm-none-eabi/lib/armv6k/fpu\libg.a(lib_a-abort.o)
 .text          0x0012e998        0x0 c:/devkitpro/devkitarm/bin/../lib/gcc/arm-none-eabi/4.9.2/../../../../arm-none-eabi/lib/armv6k/fpu\libg.a(lib_a-atof.o)
 .text          0x0012e998        0x0 c:/devkitpro/devkitarm/bin/../lib/gcc/arm-none-eabi/4.9.2/../../../../arm-none-eabi/lib/armv6k/fpu\libg.a(lib_a-atoi.o)
 .text          0x0012e998        0x0 c:/devkitpro/devkitarm/bin/../lib/gcc/arm-none-eabi/4.9.2/../../../../arm-none-eabi/lib/armv6k/fpu\libg.a(lib_a-atoll.o)
 .text          0x0012e998        0x0 c:/devkitpro/devkitarm/bin/../lib/gcc/arm-none-eabi/4.9.2/../../../../arm-none-eabi/lib/armv6k/fpu\libg.a(lib_a-bsearch.o)
 .text          0x0012e998        0x0 c:/devkitpro/devkitarm/bin/../lib/gcc/arm-none-eabi/4.9.2/../../../../arm-none-eabi/lib/armv6k/fpu\libg.a(lib_a-calloc.o)
 .text          0x0012e998        0x0 c:/devkitpro/devkitarm/bin/../lib/gcc/arm-none-eabi/4.9.2/../../../../arm-none-eabi/lib/armv6k/fpu\libg.a(lib_a-callocr.o)
 .text          0x0012e998        0x0 c:/devkitpro/devkitarm/bin/../lib/gcc/arm-none-eabi/4.9.2/../../../../arm-none-eabi/lib/armv6k/fpu\libg.a(lib_a-ctype_.o)
 .text          0x0012e998        0x0 c:/devkitpro/devkitarm/bin/../lib/gcc/arm-none-eabi/4.9.2/../../../../arm-none-eabi/lib/armv6k/fpu\libg.a(lib_a-errno.o)
 .text          0x0012e998        0x0 c:/devkitpro/devkitarm/bin/../lib/gcc/arm-none-eabi/4.9.2/../../../../arm-none-eabi/lib/armv6k/fpu\libg.a(lib_a-exit.o)
 .text          0x0012e998        0x0 c:/devkitpro/devkitarm/bin/../lib/gcc/arm-none-eabi/4.9.2/../../../../arm-none-eabi/lib/armv6k/fpu\libg.a(lib_a-fclose.o)
 .text          0x0012e998        0x0 c:/devkitpro/devkitarm/bin/../lib/gcc/arm-none-eabi/4.9.2/../../../../arm-none-eabi/lib/armv6k/fpu\libg.a(lib_a-ferror.o)
 .text          0x0012e998        0x0 c:/devkitpro/devkitarm/bin/../lib/gcc/arm-none-eabi/4.9.2/../../../../arm-none-eabi/lib/armv6k/fpu\libg.a(lib_a-fflush.o)
 .text          0x0012e998        0x0 c:/devkitpro/devkitarm/bin/../lib/gcc/arm-none-eabi/4.9.2/../../../../arm-none-eabi/lib/armv6k/fpu\libg.a(lib_a-fgetc.o)
 .text          0x0012e998        0x0 c:/devkitpro/devkitarm/bin/../lib/gcc/arm-none-eabi/4.9.2/../../../../arm-none-eabi/lib/armv6k/fpu\libg.a(lib_a-fileno.o)
 .text          0x0012e998        0x0 c:/devkitpro/devkitarm/bin/../lib/gcc/arm-none-eabi/4.9.2/../../../../arm-none-eabi/lib/armv6k/fpu\libg.a(lib_a-findfp.o)
 .text          0x0012e998        0x0 c:/devkitpro/devkitarm/bin/../lib/gcc/arm-none-eabi/4.9.2/../../../../arm-none-eabi/lib/armv6k/fpu\libg.a(lib_a-fini.o)
 .text          0x0012e998        0x0 c:/devkitpro/devkitarm/bin/../lib/gcc/arm-none-eabi/4.9.2/../../../../arm-none-eabi/lib/armv6k/fpu\libg.a(lib_a-fopen.o)
 .text          0x0012e998        0x0 c:/devkitpro/devkitarm/bin/../lib/gcc/arm-none-eabi/4.9.2/../../../../arm-none-eabi/lib/armv6k/fpu\libg.a(lib_a-fprintf.o)
 .text          0x0012e998        0x0 c:/devkitpro/devkitarm/bin/../lib/gcc/arm-none-eabi/4.9.2/../../../../arm-none-eabi/lib/armv6k/fpu\libg.a(lib_a-fputc.o)
 .text          0x0012e998        0x0 c:/devkitpro/devkitarm/bin/../lib/gcc/arm-none-eabi/4.9.2/../../../../arm-none-eabi/lib/armv6k/fpu\libg.a(lib_a-fputs.o)
 .text          0x0012e998        0x0 c:/devkitpro/devkitarm/bin/../lib/gcc/arm-none-eabi/4.9.2/../../../../arm-none-eabi/lib/armv6k/fpu\libg.a(lib_a-fread.o)
 .text          0x0012e998        0x0 c:/devkitpro/devkitarm/bin/../lib/gcc/arm-none-eabi/4.9.2/../../../../arm-none-eabi/lib/armv6k/fpu\libg.a(lib_a-freer.o)
 .text          0x0012e998        0x0 c:/devkitpro/devkitarm/bin/../lib/gcc/arm-none-eabi/4.9.2/../../../../arm-none-eabi/lib/armv6k/fpu\libg.a(lib_a-fseek.o)
 .text          0x0012e998        0x0 c:/devkitpro/devkitarm/bin/../lib/gcc/arm-none-eabi/4.9.2/../../../../arm-none-eabi/lib/armv6k/fpu\libg.a(lib_a-fseeko.o)
 .text          0x0012e998        0x0 c:/devkitpro/devkitarm/bin/../lib/gcc/arm-none-eabi/4.9.2/../../../../arm-none-eabi/lib/armv6k/fpu\libg.a(lib_a-ftell.o)
 .text          0x0012e998        0x0 c:/devkitpro/devkitarm/bin/../lib/gcc/arm-none-eabi/4.9.2/../../../../arm-none-eabi/lib/armv6k/fpu\libg.a(lib_a-ftello.o)
 .text          0x0012e998        0x0 c:/devkitpro/devkitarm/bin/../lib/gcc/arm-none-eabi/4.9.2/../../../../arm-none-eabi/lib/armv6k/fpu\libg.a(lib_a-fvwrite.o)
 .text          0x0012e998        0x0 c:/devkitpro/devkitarm/bin/../lib/gcc/arm-none-eabi/4.9.2/../../../../arm-none-eabi/lib/armv6k/fpu\libg.a(lib_a-fwalk.o)
 .text          0x0012e998        0x0 c:/devkitpro/devkitarm/bin/../lib/gcc/arm-none-eabi/4.9.2/../../../../arm-none-eabi/lib/armv6k/fpu\libg.a(lib_a-fwrite.o)
 .text          0x0012e998        0x0 c:/devkitpro/devkitarm/bin/../lib/gcc/arm-none-eabi/4.9.2/../../../../arm-none-eabi/lib/armv6k/fpu\libg.a(lib_a-impure.o)
 .text          0x0012e998        0x0 c:/devkitpro/devkitarm/bin/../lib/gcc/arm-none-eabi/4.9.2/../../../../arm-none-eabi/lib/armv6k/fpu\libg.a(lib_a-init.o)
 .text          0x0012e998        0x0 c:/devkitpro/devkitarm/bin/../lib/gcc/arm-none-eabi/4.9.2/../../../../arm-none-eabi/lib/armv6k/fpu\libg.a(lib_a-isalpha.o)
 .text          0x0012e998        0x0 c:/devkitpro/devkitarm/bin/../lib/gcc/arm-none-eabi/4.9.2/../../../../arm-none-eabi/lib/armv6k/fpu\libg.a(lib_a-isspace.o)
 .text          0x0012e998        0x0 c:/devkitpro/devkitarm/bin/../lib/gcc/arm-none-eabi/4.9.2/../../../../arm-none-eabi/lib/armv6k/fpu\libg.a(lib_a-makebuf.o)
 .text          0x0012e998        0x0 c:/devkitpro/devkitarm/bin/../lib/gcc/arm-none-eabi/4.9.2/../../../../arm-none-eabi/lib/armv6k/fpu\libg.a(lib_a-malign.o)
 .text          0x0012e998        0x0 c:/devkitpro/devkitarm/bin/../lib/gcc/arm-none-eabi/4.9.2/../../../../arm-none-eabi/lib/armv6k/fpu\libg.a(lib_a-malignr.o)
 .text          0x0012e998        0x0 c:/devkitpro/devkitarm/bin/../lib/gcc/arm-none-eabi/4.9.2/../../../../arm-none-eabi/lib/armv6k/fpu\libg.a(lib_a-malloc.o)
 .text          0x0012e998        0x0 c:/devkitpro/devkitarm/bin/../lib/gcc/arm-none-eabi/4.9.2/../../../../arm-none-eabi/lib/armv6k/fpu\libg.a(lib_a-mallocr.o)
 .text          0x0012e998        0x0 c:/devkitpro/devkitarm/bin/../lib/gcc/arm-none-eabi/4.9.2/../../../../arm-none-eabi/lib/armv6k/fpu\libg.a(lib_a-memchr.o)
 .text          0x0012e998        0x0 c:/devkitpro/devkitarm/bin/../lib/gcc/arm-none-eabi/4.9.2/../../../../arm-none-eabi/lib/armv6k/fpu\libg.a(lib_a-memcmp.o)
 .text          0x0012e998        0x0 c:/devkitpro/devkitarm/bin/../lib/gcc/arm-none-eabi/4.9.2/../../../../arm-none-eabi/lib/armv6k/fpu\libg.a(lib_a-memcpy.o)
 .text          0x0012e998        0x0 c:/devkitpro/devkitarm/bin/../lib/gcc/arm-none-eabi/4.9.2/../../../../arm-none-eabi/lib/armv6k/fpu\libg.a(lib_a-memmove.o)
 .text          0x0012e998        0x0 c:/devkitpro/devkitarm/bin/../lib/gcc/arm-none-eabi/4.9.2/../../../../arm-none-eabi/lib/armv6k/fpu\libg.a(lib_a-memset.o)
 .text          0x0012e998        0x0 c:/devkitpro/devkitarm/bin/../lib/gcc/arm-none-eabi/4.9.2/../../../../arm-none-eabi/lib/armv6k/fpu\libg.a(lib_a-mlock.o)
 .text          0x0012e998        0x0 c:/devkitpro/devkitarm/bin/../lib/gcc/arm-none-eabi/4.9.2/../../../../arm-none-eabi/lib/armv6k/fpu\libg.a(lib_a-printf.o)
 .text          0x0012e998        0x0 c:/devkitpro/devkitarm/bin/../lib/gcc/arm-none-eabi/4.9.2/../../../../arm-none-eabi/lib/armv6k/fpu\libg.a(lib_a-putchar.o)
 .text          0x0012e998        0x0 c:/devkitpro/devkitarm/bin/../lib/gcc/arm-none-eabi/4.9.2/../../../../arm-none-eabi/lib/armv6k/fpu\libg.a(lib_a-putc.o)
 .text          0x0012e998        0x0 c:/devkitpro/devkitarm/bin/../lib/gcc/arm-none-eabi/4.9.2/../../../../arm-none-eabi/lib/armv6k/fpu\libg.a(lib_a-puts.o)
 .text          0x0012e998        0x0 c:/devkitpro/devkitarm/bin/../lib/gcc/arm-none-eabi/4.9.2/../../../../arm-none-eabi/lib/armv6k/fpu\libg.a(lib_a-qsort.o)
 .text          0x0012e998        0x0 c:/devkitpro/devkitarm/bin/../lib/gcc/arm-none-eabi/4.9.2/../../../../arm-none-eabi/lib/armv6k/fpu\libg.a(lib_a-rand.o)
 .text          0x0012e998        0x0 c:/devkitpro/devkitarm/bin/../lib/gcc/arm-none-eabi/4.9.2/../../../../arm-none-eabi/lib/armv6k/fpu\libg.a(lib_a-realloc.o)
 .text          0x0012e998        0x0 c:/devkitpro/devkitarm/bin/../lib/gcc/arm-none-eabi/4.9.2/../../../../arm-none-eabi/lib/armv6k/fpu\libg.a(lib_a-reallocr.o)
 .text          0x0012e998        0x0 c:/devkitpro/devkitarm/bin/../lib/gcc/arm-none-eabi/4.9.2/../../../../arm-none-eabi/lib/armv6k/fpu\libg.a(lib_a-refill.o)
 .text          0x0012e998        0x0 c:/devkitpro/devkitarm/bin/../lib/gcc/arm-none-eabi/4.9.2/../../../../arm-none-eabi/lib/armv6k/fpu\libg.a(lib_a-rewind.o)
 .text          0x0012e998        0x0 c:/devkitpro/devkitarm/bin/../lib/gcc/arm-none-eabi/4.9.2/../../../../arm-none-eabi/lib/armv6k/fpu\libg.a(lib_a-rget.o)
 .text          0x0012e998        0x0 c:/devkitpro/devkitarm/bin/../lib/gcc/arm-none-eabi/4.9.2/../../../../arm-none-eabi/lib/armv6k/fpu\libg.a(lib_a-setvbuf.o)
 .text          0x0012e998        0x0 c:/devkitpro/devkitarm/bin/../lib/gcc/arm-none-eabi/4.9.2/../../../../arm-none-eabi/lib/armv6k/fpu\libg.a(lib_a-signal.o)
 .text          0x0012e998        0x0 c:/devkitpro/devkitarm/bin/../lib/gcc/arm-none-eabi/4.9.2/../../../../arm-none-eabi/lib/armv6k/fpu\libg.a(lib_a-siprintf.o)
 .text          0x0012e998        0x0 c:/devkitpro/devkitarm/bin/../lib/gcc/arm-none-eabi/4.9.2/../../../../arm-none-eabi/lib/armv6k/fpu\libg.a(lib_a-snprintf.o)
 .text          0x0012e998        0x0 c:/devkitpro/devkitarm/bin/../lib/gcc/arm-none-eabi/4.9.2/../../../../arm-none-eabi/lib/armv6k/fpu\libg.a(lib_a-sprintf.o)
 .text          0x0012e998        0x0 c:/devkitpro/devkitarm/bin/../lib/gcc/arm-none-eabi/4.9.2/../../../../arm-none-eabi/lib/armv6k/fpu\libg.a(lib_a-sscanf.o)
 .text          0x0012e998        0x0 c:/devkitpro/devkitarm/bin/../lib/gcc/arm-none-eabi/4.9.2/../../../../arm-none-eabi/lib/armv6k/fpu\libg.a(lib_a-stdio.o)
 .text          0x0012e998        0x0 c:/devkitpro/devkitarm/bin/../lib/gcc/arm-none-eabi/4.9.2/../../../../arm-none-eabi/lib/armv6k/fpu\libg.a(lib_a-strcasecmp.o)
 .text          0x0012e998        0x0 c:/devkitpro/devkitarm/bin/../lib/gcc/arm-none-eabi/4.9.2/../../../../arm-none-eabi/lib/armv6k/fpu\libg.a(lib_a-strcat.o)
 .text          0x0012e998        0x0 c:/devkitpro/devkitarm/bin/../lib/gcc/arm-none-eabi/4.9.2/../../../../arm-none-eabi/lib/armv6k/fpu\libg.a(lib_a-strchr.o)
 *fill*         0x0012e998        0x8 
 .text          0x0012e9a0      0x3a0 c:/devkitpro/devkitarm/bin/../lib/gcc/arm-none-eabi/4.9.2/../../../../arm-none-eabi/lib/armv6k/fpu\libg.a(lib_a-strcmp.o)
                0x0012e9a8                strcmp
 .text          0x0012ed40        0x0 c:/devkitpro/devkitarm/bin/../lib/gcc/arm-none-eabi/4.9.2/../../../../arm-none-eabi/lib/armv6k/fpu\libg.a(lib_a-strcpy.o)
 .text          0x0012ed40        0x0 c:/devkitpro/devkitarm/bin/../lib/gcc/arm-none-eabi/4.9.2/../../../../arm-none-eabi/lib/armv6k/fpu\libg.a(lib_a-strdup.o)
 .text          0x0012ed40        0x0 c:/devkitpro/devkitarm/bin/../lib/gcc/arm-none-eabi/4.9.2/../../../../arm-none-eabi/lib/armv6k/fpu\libg.a(lib_a-strdup_r.o)
 .text          0x0012ed40        0x0 c:/devkitpro/devkitarm/bin/../lib/gcc/arm-none-eabi/4.9.2/../../../../arm-none-eabi/lib/armv6k/fpu\libg.a(lib_a-strlen.o)
 .text          0x0012ed40        0x0 c:/devkitpro/devkitarm/bin/../lib/gcc/arm-none-eabi/4.9.2/../../../../arm-none-eabi/lib/armv6k/fpu\libg.a(lib_a-strncat.o)
 .text          0x0012ed40        0x0 c:/devkitpro/devkitarm/bin/../lib/gcc/arm-none-eabi/4.9.2/../../../../arm-none-eabi/lib/armv6k/fpu\libg.a(lib_a-strncmp.o)
 .text          0x0012ed40        0x0 c:/devkitpro/devkitarm/bin/../lib/gcc/arm-none-eabi/4.9.2/../../../../arm-none-eabi/lib/armv6k/fpu\libg.a(lib_a-strncpy.o)
 .text          0x0012ed40        0x0 c:/devkitpro/devkitarm/bin/../lib/gcc/arm-none-eabi/4.9.2/../../../../arm-none-eabi/lib/armv6k/fpu\libg.a(lib_a-strrchr.o)
 .text          0x0012ed40        0x0 c:/devkitpro/devkitarm/bin/../lib/gcc/arm-none-eabi/4.9.2/../../../../arm-none-eabi/lib/armv6k/fpu\libg.a(lib_a-strtod.o)
 .text          0x0012ed40        0x0 c:/devkitpro/devkitarm/bin/../lib/gcc/arm-none-eabi/4.9.2/../../../../arm-none-eabi/lib/armv6k/fpu\libg.a(lib_a-strtoll.o)
 .text          0x0012ed40        0x0 c:/devkitpro/devkitarm/bin/../lib/gcc/arm-none-eabi/4.9.2/../../../../arm-none-eabi/lib/armv6k/fpu\libg.a(lib_a-strtoll_r.o)
 .text          0x0012ed40        0x0 c:/devkitpro/devkitarm/bin/../lib/gcc/arm-none-eabi/4.9.2/../../../../arm-none-eabi/lib/armv6k/fpu\libg.a(lib_a-strtol.o)
 .text          0x0012ed40        0x0 c:/devkitpro/devkitarm/bin/../lib/gcc/arm-none-eabi/4.9.2/../../../../arm-none-eabi/lib/armv6k/fpu\libg.a(lib_a-strtoull.o)
 .text          0x0012ed40        0x0 c:/devkitpro/devkitarm/bin/../lib/gcc/arm-none-eabi/4.9.2/../../../../arm-none-eabi/lib/armv6k/fpu\libg.a(lib_a-strtoull_r.o)
 .text          0x0012ed40        0x0 c:/devkitpro/devkitarm/bin/../lib/gcc/arm-none-eabi/4.9.2/../../../../arm-none-eabi/lib/armv6k/fpu\libg.a(lib_a-strtoul.o)
 .text          0x0012ed40        0x0 c:/devkitpro/devkitarm/bin/../lib/gcc/arm-none-eabi/4.9.2/../../../../arm-none-eabi/lib/armv6k/fpu\libg.a(lib_a-svfiprintf.o)
 .text          0x0012ed40        0x0 c:/devkitpro/devkitarm/bin/../lib/gcc/arm-none-eabi/4.9.2/../../../../arm-none-eabi/lib/armv6k/fpu\libg.a(lib_a-svfprintf.o)
 .text          0x0012ed40        0x0 c:/devkitpro/devkitarm/bin/../lib/gcc/arm-none-eabi/4.9.2/../../../../arm-none-eabi/lib/armv6k/fpu\libg.a(lib_a-svfscanf.o)
 .text          0x0012ed40        0x0 c:/devkitpro/devkitarm/bin/../lib/gcc/arm-none-eabi/4.9.2/../../../../arm-none-eabi/lib/armv6k/fpu\libg.a(lib_a-sysclose.o)
 .text          0x0012ed40        0x0 c:/devkitpro/devkitarm/bin/../lib/gcc/arm-none-eabi/4.9.2/../../../../arm-none-eabi/lib/armv6k/fpu\libg.a(lib_a-sysfstat.o)
 .text          0x0012ed40        0x0 c:/devkitpro/devkitarm/bin/../lib/gcc/arm-none-eabi/4.9.2/../../../../arm-none-eabi/lib/armv6k/fpu\libg.a(lib_a-sysopen.o)
 .text          0x0012ed40        0x0 c:/devkitpro/devkitarm/bin/../lib/gcc/arm-none-eabi/4.9.2/../../../../arm-none-eabi/lib/armv6k/fpu\libg.a(lib_a-sysstat.o)
 .text          0x0012ed40        0x0 c:/devkitpro/devkitarm/bin/../lib/gcc/arm-none-eabi/4.9.2/../../../../arm-none-eabi/lib/armv6k/fpu\libg.a(lib_a-syswrite.o)
 .text          0x0012ed40        0x0 c:/devkitpro/devkitarm/bin/../lib/gcc/arm-none-eabi/4.9.2/../../../../arm-none-eabi/lib/armv6k/fpu\libg.a(lib_a-time.o)
 .text          0x0012ed40        0x0 c:/devkitpro/devkitarm/bin/../lib/gcc/arm-none-eabi/4.9.2/../../../../arm-none-eabi/lib/armv6k/fpu\libg.a(lib_a-vfprintf.o)
 .text          0x0012ed40        0x0 c:/devkitpro/devkitarm/bin/../lib/gcc/arm-none-eabi/4.9.2/../../../../arm-none-eabi/lib/armv6k/fpu\libg.a(lib_a-vsprintf.o)
 .text          0x0012ed40        0x0 c:/devkitpro/devkitarm/bin/../lib/gcc/arm-none-eabi/4.9.2/../../../../arm-none-eabi/lib/armv6k/fpu\libg.a(lib_a-wbuf.o)
 .text          0x0012ed40        0x0 c:/devkitpro/devkitarm/bin/../lib/gcc/arm-none-eabi/4.9.2/../../../../arm-none-eabi/lib/armv6k/fpu\libg.a(lib_a-wcrtomb.o)
 .text          0x0012ed40        0x0 c:/devkitpro/devkitarm/bin/../lib/gcc/arm-none-eabi/4.9.2/../../../../arm-none-eabi/lib/armv6k/fpu\libg.a(lib_a-wcsrtombs.o)
 .text          0x0012ed40        0x0 c:/devkitpro/devkitarm/bin/../lib/gcc/arm-none-eabi/4.9.2/../../../../arm-none-eabi/lib/armv6k/fpu\libg.a(lib_a-wctomb_r.o)
 .text          0x0012ed40        0x0 c:/devkitpro/devkitarm/bin/../lib/gcc/arm-none-eabi/4.9.2/../../../../arm-none-eabi/lib/armv6k/fpu\libg.a(lib_a-wsetup.o)
 .text          0x0012ed40        0x0 c:/devkitpro/devkitarm/bin/../lib/gcc/arm-none-eabi/4.9.2/../../../../arm-none-eabi/lib/armv6k/fpu\libg.a(lib_a-__call_atexit.o)
 .text          0x0012ed40        0x0 c:/devkitpro/devkitarm/bin/../lib/gcc/arm-none-eabi/4.9.2/../../../../arm-none-eabi/lib/armv6k/fpu\libg.a(lib_a-dtoa.o)
 .text          0x0012ed40        0x0 c:/devkitpro/devkitarm/bin/../lib/gcc/arm-none-eabi/4.9.2/../../../../arm-none-eabi/lib/armv6k/fpu\libg.a(lib_a-flags.o)
 .text          0x0012ed40        0x0 c:/devkitpro/devkitarm/bin/../lib/gcc/arm-none-eabi/4.9.2/../../../../arm-none-eabi/lib/armv6k/fpu\libg.a(lib_a-gdtoa-gethex.o)
 .text          0x0012ed40        0x0 c:/devkitpro/devkitarm/bin/../lib/gcc/arm-none-eabi/4.9.2/../../../../arm-none-eabi/lib/armv6k/fpu\libg.a(lib_a-gdtoa-hexnan.o)
 .text          0x0012ed40        0x0 c:/devkitpro/devkitarm/bin/../lib/gcc/arm-none-eabi/4.9.2/../../../../arm-none-eabi/lib/armv6k/fpu\libg.a(lib_a-iswspace.o)
 .text          0x0012ed40        0x0 c:/devkitpro/devkitarm/bin/../lib/gcc/arm-none-eabi/4.9.2/../../../../arm-none-eabi/lib/armv6k/fpu\libg.a(lib_a-jp2uc.o)
 .text          0x0012ed40        0x0 c:/devkitpro/devkitarm/bin/../lib/gcc/arm-none-eabi/4.9.2/../../../../arm-none-eabi/lib/armv6k/fpu\libg.a(lib_a-locale.o)
 .text          0x0012ed40        0x0 c:/devkitpro/devkitarm/bin/../lib/gcc/arm-none-eabi/4.9.2/../../../../arm-none-eabi/lib/armv6k/fpu\libg.a(lib_a-mbrtowc.o)
 .text          0x0012ed40        0x0 c:/devkitpro/devkitarm/bin/../lib/gcc/arm-none-eabi/4.9.2/../../../../arm-none-eabi/lib/armv6k/fpu\libg.a(lib_a-mbtowc_r.o)
 .text          0x0012ed40        0x0 c:/devkitpro/devkitarm/bin/../lib/gcc/arm-none-eabi/4.9.2/../../../../arm-none-eabi/lib/armv6k/fpu\libg.a(lib_a-mprec.o)
 .text          0x0012ed40        0x0 c:/devkitpro/devkitarm/bin/../lib/gcc/arm-none-eabi/4.9.2/../../../../arm-none-eabi/lib/armv6k/fpu\libg.a(lib_a-sccl.o)
 .text          0x0012ed40        0x0 c:/devkitpro/devkitarm/bin/../lib/gcc/arm-none-eabi/4.9.2/../../../../arm-none-eabi/lib/armv6k/fpu\libg.a(lib_a-sf_nan.o)
 .text          0x0012ed40        0x0 c:/devkitpro/devkitarm/bin/../lib/gcc/arm-none-eabi/4.9.2/../../../../arm-none-eabi/lib/armv6k/fpu\libg.a(lib_a-s_fpclassify.o)
 .text          0x0012ed40        0x0 c:/devkitpro/devkitarm/bin/../lib/gcc/arm-none-eabi/4.9.2/../../../../arm-none-eabi/lib/armv6k/fpu\libg.a(lib_a-s_frexp.o)
 .text          0x0012ed40        0x0 c:/devkitpro/devkitarm/bin/../lib/gcc/arm-none-eabi/4.9.2/../../../../arm-none-eabi/lib/armv6k/fpu\libg.a(lib_a-stpncpy.o)
 .text          0x0012ed40        0x0 c:/devkitpro/devkitarm/bin/../lib/gcc/arm-none-eabi/4.9.2/../../../../arm-none-eabi/lib/armv6k/fpu\libg.a(lib_a-strlcpy.o)
 .text          0x0012ed40        0x0 c:/devkitpro/devkitarm/bin/../lib/gcc/arm-none-eabi/4.9.2/../../../../arm-none-eabi/lib/armv6k/fpu\libg.a(lib_a-strncasecmp.o)
 .text          0x0012ed40        0x0 c:/devkitpro/devkitarm/bin/../lib/gcc/arm-none-eabi/4.9.2/../../../../arm-none-eabi/lib/armv6k/fpu\libg.a(lib_a-svfiscanf.o)
 .text          0x0012ed40        0x0 c:/devkitpro/devkitarm/bin/../lib/gcc/arm-none-eabi/4.9.2/../../../../arm-none-eabi/lib/armv6k/fpu\libg.a(lib_a-ungetc.o)
 .text          0x0012ed40        0x0 c:/devkitpro/devkitarm/bin/../lib/gcc/arm-none-eabi/4.9.2/../../../../arm-none-eabi/lib/armv6k/fpu\libg.a(lib_a-vfiprintf.o)
 .text          0x0012ed40        0x0 c:/devkitpro/devkitarm/bin/../lib/gcc/arm-none-eabi/4.9.2/../../../../arm-none-eabi/lib/armv6k/fpu\libg.a(lib_a-wcsnrtombs.o)
 .text          0x0012ed40        0x0 c:/devkitpro/devkitarm/bin/../lib/gcc/arm-none-eabi/4.9.2/../../../../arm-none-eabi/lib/armv6k/fpu\libg.a(lib_a-fputwc.o)
 .text          0x0012ed40        0x0 c:/devkitpro/devkitarm/bin/../lib/gcc/arm-none-eabi/4.9.2/../../../../arm-none-eabi/lib/armv6k/fpu\libg.a(lib_a-getenv_r.o)
 .text          0x0012ed40        0x0 c:/devkitpro/devkitarm/bin/../lib/gcc/arm-none-eabi/4.9.2/../../../../arm-none-eabi/lib/armv6k/fpu\libg.a(lib_a-environ.o)
 .text          0x0012ed40        0x0 c:/devkitpro/devkitarm/bin/../lib/gcc/arm-none-eabi/4.9.2/../../../../arm-none-eabi/lib/armv6k/fpu\libg.a(lib_a-envlock.o)
 .text          0x0012ed40      0x1a8 c:/devkitpro/devkitarm/bin/../lib/gcc/arm-none-eabi/4.9.2/../../../../arm-none-eabi/lib/armv6k/fpu\libsysbase.a(iosupport.o)
                0x0012ed40                setDefaultDevice
                0x0012ed58                FindDevice
                0x0012ee04                RemoveDevice
                0x0012ee30                AddDevice
                0x0012eec4                GetDeviceOpTab
 .text          0x0012eee8       0x7c c:/devkitpro/devkitarm/bin/../lib/gcc/arm-none-eabi/4.9.2/../../../../arm-none-eabi/lib/armv6k/fpu\libsysbase.a(close.o)
                0x0012eee8                _close_r
 .text          0x0012ef64       0x6c c:/devkitpro/devkitarm/bin/../lib/gcc/arm-none-eabi/4.9.2/../../../../arm-none-eabi/lib/armv6k/fpu\libsysbase.a(fstat.o)
                0x0012ef64                _fstat_r
 .text          0x0012efd0       0x10 c:/devkitpro/devkitarm/bin/../lib/gcc/arm-none-eabi/4.9.2/../../../../arm-none-eabi/lib/armv6k/fpu\libsysbase.a(getpid.o)
                0x0012efd0                _getpid_r
 .text          0x0012efe0       0x2c c:/devkitpro/devkitarm/bin/../lib/gcc/arm-none-eabi/4.9.2/../../../../arm-none-eabi/lib/armv6k/fpu\libsysbase.a(gettod.o)
                0x0012efe0                _gettimeofday_r
 .text          0x0012f00c        0x8 c:/devkitpro/devkitarm/bin/../lib/gcc/arm-none-eabi/4.9.2/../../../../arm-none-eabi/lib/armv6k/fpu\libsysbase.a(isatty.o)
                0x0012f00c                _isatty_r
 .text          0x0012f014       0x10 c:/devkitpro/devkitarm/bin/../lib/gcc/arm-none-eabi/4.9.2/../../../../arm-none-eabi/lib/armv6k/fpu\libsysbase.a(kill.o)
                0x0012f014                _kill_r
 .text          0x0012f024       0x74 c:/devkitpro/devkitarm/bin/../lib/gcc/arm-none-eabi/4.9.2/../../../../arm-none-eabi/lib/armv6k/fpu\libsysbase.a(lseek.o)
                0x0012f024                _lseek_r
 .text          0x0012f098       0xc8 c:/devkitpro/devkitarm/bin/../lib/gcc/arm-none-eabi/4.9.2/../../../../arm-none-eabi/lib/armv6k/fpu\libsysbase.a(open.o)
                0x0012f098                _open_r
 .text          0x0012f160       0x74 c:/devkitpro/devkitarm/bin/../lib/gcc/arm-none-eabi/4.9.2/../../../../arm-none-eabi/lib/armv6k/fpu\libsysbase.a(read.o)
                0x0012f160                _read_r
 .text          0x0012f1d4       0x70 c:/devkitpro/devkitarm/bin/../lib/gcc/arm-none-eabi/4.9.2/../../../../arm-none-eabi/lib/armv6k/fpu\libsysbase.a(sbrk.o)
                0x0012f1d4                _sbrk_r
 .text          0x0012f244       0x6c c:/devkitpro/devkitarm/bin/../lib/gcc/arm-none-eabi/4.9.2/../../../../arm-none-eabi/lib/armv6k/fpu\libsysbase.a(stat.o)
                0x0012f244                _stat_r
 .text          0x0012f2b0       0x74 c:/devkitpro/devkitarm/bin/../lib/gcc/arm-none-eabi/4.9.2/../../../../arm-none-eabi/lib/armv6k/fpu\libsysbase.a(write.o)
                0x0012f2b0                _write_r
 .text          0x0012f324       0x20 c:/devkitpro/devkitarm/bin/../lib/gcc/arm-none-eabi/4.9.2/../../../../arm-none-eabi/lib/armv6k/fpu\libsysbase.a(_exit.o)
                0x0012f324                _exit
 .text          0x0012f344        0x0 c:/devkitpro/devkitarm/bin/../lib/gcc/arm-none-eabi/4.9.2/../../../../arm-none-eabi/lib/armv6k/fpu\libsysbase.a(malloc_vars.o)
 .text          0x0012f344      0x3a4 c:/devkitpro/devkitarm/bin/../lib/gcc/arm-none-eabi/4.9.2/../../../../arm-none-eabi/lib/armv6k/fpu\libsysbase.a(chdir.o)
                0x0012f344                _concatenate_path
                0x0012f500                chdir
                0x0012f648                getcwd
 .text          0x0012f6e8        0x8 c:/devkitpro/devkitarm/bin/../lib/gcc/arm-none-eabi/4.9.2/../../../../arm-none-eabi/lib/armv6k/fpu\libsysbase.a(flock.o)
                0x0012f6e8                __flockfile
                0x0012f6ec                __funlockfile
 .text          0x0012f6f0      0x108 c:/devkitpro/devkitarm/bin/../lib/gcc/arm-none-eabi/4.9.2/../../../../arm-none-eabi/lib/armv6k/fpu\libsysbase.a(syscall_support.o)
                0x0012f6f0                __libc_lock_init
                0x0012f708                __libc_lock_acquire
                0x0012f720                __libc_lock_try_acquire
                0x0012f744                __libc_lock_release
                0x0012f75c                __libc_lock_close
                0x0012f774                __libc_lock_init_recursive
                0x0012f78c                __libc_lock_acquire_recursive
                0x0012f7a4                __libc_lock_try_acquire_recursive
                0x0012f7c8                __libc_lock_release_recursive
                0x0012f7e0                __libc_lock_close_recursive
 .text          0x0012f7f8      0x254 c:/devkitpro/devkitarm/bin/../lib/gcc/arm-none-eabi/4.9.2/../../../../arm-none-eabi/lib/armv6k/fpu\libsysbase.a(handle_manager.o)
                0x0012f7f8                __free_handle
                0x0012f83c                __release_handle
                0x0012f868                __alloc_handle
                0x0012f8d0                __get_handle
                0x0012f8ec                dup
                0x0012f978                dup2
 .text          0x0012fa4c       0x6c c:/devkitpro/devkitarm/bin/../lib/gcc/arm-none-eabi/4.9.2/../../../../arm-none-eabi/lib/armv6k/fpu\libsysbase.a(ftruncate.o)
                0x0012fa4c                ftruncate
 .text          0x0012fab8      0x494 c:/devkitpro/devkitarm/bin/../lib/gcc/arm-none-eabi/4.9.2/../../../../arm-none-eabi/lib/armv6k/fpu\libsysbase.a(dirent.o)
                0x0012fb60                opendir
                0x0012fc50                closedir
                0x0012fcdc                readdir
                0x0012fdbc                readdir_r
                0x0012fe88                rewinddir
                0x0012feac                seekdir
                0x0012ff3c                telldir
 .text          0x0012ff4c       0x28 c:/devkitpro/devkitarm/bin/../lib/gcc/arm-none-eabi/4.9.2/../../../../arm-none-eabi/lib/armv6k/fpu\libsysbase.a(getreent.o)
                0x0012ff4c                __getreent
 .text          0x0012ff74      0x240 c:/devkitpro/devkitarm/bin/../lib/gcc/arm-none-eabi/4.9.2/armv6k/fpu\libgcc.a(_divsi3.o)
                0x0012ff74                __divsi3
                0x0012ff74                __aeabi_idiv
                0x00130194                __aeabi_idivmod
 .text          0x001301b4       0x3c c:/devkitpro/devkitarm/bin/../lib/gcc/arm-none-eabi/4.9.2/armv6k/fpu\libgcc.a(_aeabi_uldivmod.o)
                0x001301b4                __aeabi_uldivmod
 .text          0x001301f0       0x78 c:/devkitpro/devkitarm/bin/../lib/gcc/arm-none-eabi/4.9.2/armv6k/fpu\libgcc.a(bpabi.o)
                0x001301f0                __gnu_ldivmod_helper
                0x0013022c                __gnu_uldivmod_helper
 .text          0x00130268      0x180 c:/devkitpro/devkitarm/bin/../lib/gcc/arm-none-eabi/4.9.2/armv6k/fpu\libgcc.a(_divdi3.o)
                0x00130268                __divdi3
 .text          0x001303e8      0x124 c:/devkitpro/devkitarm/bin/../lib/gcc/arm-none-eabi/4.9.2/armv6k/fpu\libgcc.a(_udivdi3.o)
                0x001303e8                __udivdi3
 .text          0x0013050c        0x0 c:/devkitpro/devkitarm/bin/../lib/gcc/arm-none-eabi/4.9.2/../../../../arm-none-eabi/lib/armv6k/fpu\libg.a(lib_a-strnlen.o)
 .text          0x0013050c        0x0 c:/devkitpro/devkitarm/bin/../lib/gcc/arm-none-eabi/4.9.2/armv6k/fpu/crtend.o
 .text          0x0013050c        0x0 c:/devkitpro/devkitarm/bin/../lib/gcc/arm-none-eabi/4.9.2/armv6k/fpu/crtn.o
 *(.text.*)
 .text._ZN8tinyxml210XMLVisitor10VisitEnterERKNS_11XMLDocumentE
                0x0013050c        0x8 tinyxml2.o
                0x0013050c                tinyxml2::XMLVisitor::VisitEnter(tinyxml2::XMLDocument const&)
 .text._ZN8tinyxml210XMLVisitor9VisitExitERKNS_11XMLDocumentE
                0x00130514        0x8 tinyxml2.o
                0x00130514                tinyxml2::XMLVisitor::VisitExit(tinyxml2::XMLDocument const&)
 .text._ZN8tinyxml210XMLVisitor10VisitEnterERKNS_10XMLElementEPKNS_12XMLAttributeE
                0x0013051c        0x8 tinyxml2.o
                0x0013051c                tinyxml2::XMLVisitor::VisitEnter(tinyxml2::XMLElement const&, tinyxml2::XMLAttribute const*)
 .text._ZN8tinyxml210XMLVisitor9VisitExitERKNS_10XMLElementE
                0x00130524        0x8 tinyxml2.o
                0x00130524                tinyxml2::XMLVisitor::VisitExit(tinyxml2::XMLElement const&)
 .text._ZN8tinyxml210XMLVisitor5VisitERKNS_14XMLDeclarationE
                0x0013052c        0x8 tinyxml2.o
                0x0013052c                tinyxml2::XMLVisitor::Visit(tinyxml2::XMLDeclaration const&)
 .text._ZN8tinyxml210XMLVisitor5VisitERKNS_7XMLTextE
                0x00130534        0x8 tinyxml2.o
                0x00130534                tinyxml2::XMLVisitor::Visit(tinyxml2::XMLText const&)
 .text._ZN8tinyxml210XMLVisitor5VisitERKNS_10XMLCommentE
                0x0013053c        0x8 tinyxml2.o
                0x0013053c                tinyxml2::XMLVisitor::Visit(tinyxml2::XMLComment const&)
 .text._ZN8tinyxml210XMLVisitor5VisitERKNS_10XMLUnknownE
                0x00130544        0x8 tinyxml2.o
                0x00130544                tinyxml2::XMLVisitor::Visit(tinyxml2::XMLUnknown const&)
 .text._ZN8tinyxml27XMLNode9ToElementEv
                0x0013054c        0x8 tinyxml2.o
                0x0013054c                tinyxml2::XMLNode::ToElement()
 .text._ZN8tinyxml27XMLNode6ToTextEv
                0x00130554        0x8 tinyxml2.o
                0x00130554                tinyxml2::XMLNode::ToText()
 .text._ZN8tinyxml27XMLNode9ToCommentEv
                0x0013055c        0x8 tinyxml2.o
                0x0013055c                tinyxml2::XMLNode::ToComment()
 .text._ZN8tinyxml27XMLNode10ToDocumentEv
                0x00130564        0x8 tinyxml2.o
                0x00130564                tinyxml2::XMLNode::ToDocument()
 .text._ZN8tinyxml27XMLNode13ToDeclarationEv
                0x0013056c        0x8 tinyxml2.o
                0x0013056c                tinyxml2::XMLNode::ToDeclaration()
 .text._ZN8tinyxml27XMLNode9ToUnknownEv
                0x00130574        0x8 tinyxml2.o
                0x00130574                tinyxml2::XMLNode::ToUnknown()
 .text._ZNK8tinyxml27XMLNode9ToElementEv
                0x0013057c        0x8 tinyxml2.o
                0x0013057c                tinyxml2::XMLNode::ToElement() const
 .text._ZNK8tinyxml27XMLNode6ToTextEv
                0x00130584        0x8 tinyxml2.o
                0x00130584                tinyxml2::XMLNode::ToText() const
 .text._ZNK8tinyxml27XMLNode9ToCommentEv
                0x0013058c        0x8 tinyxml2.o
                0x0013058c                tinyxml2::XMLNode::ToComment() const
 .text._ZNK8tinyxml27XMLNode10ToDocumentEv
                0x00130594        0x8 tinyxml2.o
                0x00130594                tinyxml2::XMLNode::ToDocument() const
 .text._ZNK8tinyxml27XMLNode13ToDeclarationEv
                0x0013059c        0x8 tinyxml2.o
                0x0013059c                tinyxml2::XMLNode::ToDeclaration() const
 .text._ZNK8tinyxml27XMLNode9ToUnknownEv
                0x001305a4        0x8 tinyxml2.o
                0x001305a4                tinyxml2::XMLNode::ToUnknown() const
 .text._ZN8tinyxml27XMLText6ToTextEv
                0x001305ac        0x4 tinyxml2.o
                0x001305ac                tinyxml2::XMLText::ToText()
 .text._ZNK8tinyxml27XMLText6ToTextEv
                0x001305b0        0x4 tinyxml2.o
                0x001305b0                tinyxml2::XMLText::ToText() const
 .text._ZN8tinyxml210XMLComment9ToCommentEv
                0x001305b4        0x4 tinyxml2.o
                0x001305b4                tinyxml2::XMLComment::ToComment()
 .text._ZNK8tinyxml210XMLComment9ToCommentEv
                0x001305b8        0x4 tinyxml2.o
                0x001305b8                tinyxml2::XMLComment::ToComment() const
 .text._ZN8tinyxml214XMLDeclaration13ToDeclarationEv
                0x001305bc        0x4 tinyxml2.o
                0x001305bc                tinyxml2::XMLDeclaration::ToDeclaration()
 .text._ZNK8tinyxml214XMLDeclaration13ToDeclarationEv
                0x001305c0        0x4 tinyxml2.o
                0x001305c0                tinyxml2::XMLDeclaration::ToDeclaration() const
 .text._ZN8tinyxml210XMLUnknown9ToUnknownEv
                0x001305c4        0x4 tinyxml2.o
                0x001305c4                tinyxml2::XMLUnknown::ToUnknown()
 .text._ZNK8tinyxml210XMLUnknown9ToUnknownEv
                0x001305c8        0x4 tinyxml2.o
                0x001305c8                tinyxml2::XMLUnknown::ToUnknown() const
 .text._ZN8tinyxml210XMLElement9ToElementEv
                0x001305cc        0x4 tinyxml2.o
                0x001305cc                tinyxml2::XMLElement::ToElement()
 .text._ZNK8tinyxml210XMLElement9ToElementEv
                0x001305d0        0x4 tinyxml2.o
                0x001305d0                tinyxml2::XMLElement::ToElement() const
 .text._ZN8tinyxml211XMLDocument10ToDocumentEv
                0x001305d4        0x4 tinyxml2.o
                0x001305d4                tinyxml2::XMLDocument::ToDocument()
 .text._ZNK8tinyxml211XMLDocument10ToDocumentEv
                0x001305d8        0x4 tinyxml2.o
                0x001305d8                tinyxml2::XMLDocument::ToDocument() const
 .text._ZNK8tinyxml211XMLDocument12ShallowCloneEPS0_
                0x001305dc        0x8 tinyxml2.o
                0x001305dc                tinyxml2::XMLDocument::ShallowClone(tinyxml2::XMLDocument*) const
 .text._ZNK8tinyxml211XMLDocument12ShallowEqualEPKNS_7XMLNodeE
                0x001305e4        0x8 tinyxml2.o
                0x001305e4                tinyxml2::XMLDocument::ShallowEqual(tinyxml2::XMLNode const*) const
 .text._ZNK8tinyxml28MemPoolTILi44EE8ItemSizeEv
                0x001305ec        0x8 tinyxml2.o
                0x001305ec                tinyxml2::MemPoolT<44>::ItemSize() const
 .text._ZN8tinyxml28MemPoolTILi44EE4FreeEPv
                0x001305f4       0x24 tinyxml2.o
                0x001305f4                tinyxml2::MemPoolT<44>::Free(void*)
 .text._ZN8tinyxml28MemPoolTILi44EE10SetTrackedEv
                0x00130618       0x10 tinyxml2.o
                0x00130618                tinyxml2::MemPoolT<44>::SetTracked()
 .text._ZNK8tinyxml28MemPoolTILi48EE8ItemSizeEv
                0x00130628        0x8 tinyxml2.o
                0x00130628                tinyxml2::MemPoolT<48>::ItemSize() const
 .text._ZN8tinyxml28MemPoolTILi48EE4FreeEPv
                0x00130630       0x24 tinyxml2.o
                0x00130630                tinyxml2::MemPoolT<48>::Free(void*)
 .text._ZN8tinyxml28MemPoolTILi48EE10SetTrackedEv
                0x00130654       0x10 tinyxml2.o
                0x00130654                tinyxml2::MemPoolT<48>::SetTracked()
 .text._ZNK8tinyxml28MemPoolTILi36EE8ItemSizeEv
                0x00130664        0x8 tinyxml2.o
                0x00130664                tinyxml2::MemPoolT<36>::ItemSize() const
 .text._ZN8tinyxml28MemPoolTILi36EE4FreeEPv
                0x0013066c       0x24 tinyxml2.o
                0x0013066c                tinyxml2::MemPoolT<36>::Free(void*)
 .text._ZN8tinyxml28MemPoolTILi36EE10SetTrackedEv
                0x00130690       0x10 tinyxml2.o
                0x00130690                tinyxml2::MemPoolT<36>::SetTracked()
 .text._ZNK8tinyxml28MemPoolTILi52EE8ItemSizeEv
                0x001306a0        0x8 tinyxml2.o
                0x001306a0                tinyxml2::MemPoolT<52>::ItemSize() const
 .text._ZN8tinyxml28MemPoolTILi52EE4FreeEPv
                0x001306a8       0x24 tinyxml2.o
                0x001306a8                tinyxml2::MemPoolT<52>::Free(void*)
 .text._ZN8tinyxml28MemPoolTILi52EE10SetTrackedEv
                0x001306cc       0x10 tinyxml2.o
                0x001306cc                tinyxml2::MemPoolT<52>::SetTracked()
 .text._ZN8tinyxml28MemPoolTILi52EE5ClearEv
                0x001306dc       0x50 tinyxml2.o
                0x001306dc                tinyxml2::MemPoolT<52>::Clear()
 .text._ZN8tinyxml28MemPoolTILi36EE5ClearEv
                0x0013072c       0x50 tinyxml2.o
                0x0013072c                tinyxml2::MemPoolT<36>::Clear()
 .text._ZN8tinyxml28MemPoolTILi48EE5ClearEv
                0x0013077c       0x50 tinyxml2.o
                0x0013077c                tinyxml2::MemPoolT<48>::Clear()
 .text._ZN8tinyxml28MemPoolTILi44EE5ClearEv
                0x001307cc       0x50 tinyxml2.o
                0x001307cc                tinyxml2::MemPoolT<44>::Clear()
 .text._ZN8tinyxml28MemPoolTILi44EE5AllocEv
                0x0013081c      0x11c tinyxml2.o
                0x0013081c                tinyxml2::MemPoolT<44>::Alloc()
 .text._ZN8tinyxml28MemPoolTILi48EE5AllocEv
                0x00130938      0x114 tinyxml2.o
                0x00130938                tinyxml2::MemPoolT<48>::Alloc()
 .text._ZN8tinyxml28MemPoolTILi52EE5AllocEv
                0x00130a4c      0x11c tinyxml2.o
                0x00130a4c                tinyxml2::MemPoolT<52>::Alloc()
 .text._ZN8tinyxml28MemPoolTILi36EE5AllocEv
                0x00130b68      0x11c tinyxml2.o
                0x00130b68                tinyxml2::MemPoolT<36>::Alloc()
 .text._ZN8tinyxml28MemPoolTILi52EED2Ev
                0x00130c84       0x7c tinyxml2.o
                0x00130c84                tinyxml2::MemPoolT<52>::~MemPoolT()
                0x00130c84                tinyxml2::MemPoolT<52>::~MemPoolT()
 .text._ZN8tinyxml28MemPoolTILi36EED2Ev
                0x00130d00       0x7c tinyxml2.o
                0x00130d00                tinyxml2::MemPoolT<36>::~MemPoolT()
                0x00130d00                tinyxml2::MemPoolT<36>::~MemPoolT()
 .text._ZN8tinyxml28MemPoolTILi48EED2Ev
                0x00130d7c       0x7c tinyxml2.o
                0x00130d7c                tinyxml2::MemPoolT<48>::~MemPoolT()
                0x00130d7c                tinyxml2::MemPoolT<48>::~MemPoolT()
 .text._ZN8tinyxml28MemPoolTILi44EED2Ev
                0x00130df8       0x7c tinyxml2.o
                0x00130df8                tinyxml2::MemPoolT<44>::~MemPoolT()
                0x00130df8                tinyxml2::MemPoolT<44>::~MemPoolT()
 .text._ZN8tinyxml28MemPoolTILi36EED0Ev
                0x00130e74       0x84 tinyxml2.o
                0x00130e74                tinyxml2::MemPoolT<36>::~MemPoolT()
 .text._ZN8tinyxml28MemPoolTILi44EED0Ev
                0x00130ef8       0x84 tinyxml2.o
                0x00130ef8                tinyxml2::MemPoolT<44>::~MemPoolT()
 .text._ZN8tinyxml28MemPoolTILi52EED0Ev
                0x00130f7c       0x84 tinyxml2.o
                0x00130f7c                tinyxml2::MemPoolT<52>::~MemPoolT()
 .text._ZN8tinyxml28MemPoolTILi48EED0Ev
                0x00131000       0x84 tinyxml2.o
                0x00131000                tinyxml2::MemPoolT<48>::~MemPoolT()
 .text._ZN8tinyxml212XMLAttributeD2Ev
                0x00131084       0x28 tinyxml2.o
                0x00131084                tinyxml2::XMLAttribute::~XMLAttribute()
                0x00131084                tinyxml2::XMLAttribute::~XMLAttribute()
 .text._ZN8tinyxml212XMLAttributeD0Ev
                0x001310ac       0x30 tinyxml2.o
                0x001310ac                tinyxml2::XMLAttribute::~XMLAttribute()
 .text._ZN8tinyxml27XMLTextD2Ev
                0x001310dc       0x20 tinyxml2.o
                0x001310dc                tinyxml2::XMLText::~XMLText()
                0x001310dc                tinyxml2::XMLText::~XMLText()
 .text._ZN8tinyxml27XMLTextD0Ev
                0x001310fc       0x28 tinyxml2.o
                0x001310fc                tinyxml2::XMLText::~XMLText()
 .text._ZN4KHAX11VersionData20MakeKProcessPointersINS_18KProcess_1_0_0_OldEEENS0_16KProcessPointersEPv
                0x00131124       0x18 khaxinit.o
                0x00131124                KHAX::VersionData::KProcessPointers KHAX::VersionData::MakeKProcessPointers<KHAX::KProcess_1_0_0_Old>(void*)
 .text._ZN4KHAX11VersionData20MakeKProcessPointersINS_18KProcess_8_0_0_OldEEENS0_16KProcessPointersEPv
                0x0013113c       0x18 khaxinit.o
                0x0013113c                KHAX::VersionData::KProcessPointers KHAX::VersionData::MakeKProcessPointers<KHAX::KProcess_8_0_0_Old>(void*)
 .text._ZN4KHAX11VersionData20MakeKProcessPointersINS_18KProcess_8_0_0_NewEEENS0_16KProcessPointersEPv
                0x00131154       0x18 khaxinit.o
                0x00131154                KHAX::VersionData::KProcessPointers KHAX::VersionData::MakeKProcessPointers<KHAX::KProcess_8_0_0_New>(void*)
 .text.startup  0x0013116c      0x1e4 main.o
                0x0013116c                main
 .text.unlikely
                0x00131350       0xb4 c:/devkitPro/portlibs/armv6k/lib\libconfig.a(libconfig_la-scanner.o)
 .text._ZSt15set_new_handlerPFvvE
                0x00131404       0x28 c:/devkitpro/devkitarm/bin/../lib/gcc/arm-none-eabi/4.9.2/../../../../arm-none-eabi/lib/armv6k/fpu\libstdc++.a(new_handler.o)
                0x00131404                std::set_new_handler(void (*)())
 .text._ZSt15get_new_handlerv
                0x0013142c       0x14 c:/devkitpro/devkitarm/bin/../lib/gcc/arm-none-eabi/4.9.2/../../../../arm-none-eabi/lib/armv6k/fpu\libstdc++.a(new_handler.o)
                0x0013142c                std::get_new_handler()
 .text._ZdaPv   0x00131440        0x4 c:/devkitpro/devkitarm/bin/../lib/gcc/arm-none-eabi/4.9.2/../../../../arm-none-eabi/lib/armv6k/fpu\libstdc++.a(del_opv.o)
                0x00131440                operator delete[](void*)
 .text._Znaj    0x00131444       0x1c c:/devkitpro/devkitarm/bin/../lib/gcc/arm-none-eabi/4.9.2/../../../../arm-none-eabi/lib/armv6k/fpu\libstdc++.a(new_opv.o)
                0x00131444                operator new[](unsigned int)
 .text.__cxa_end_cleanup
                0x00131460       0x10 c:/devkitpro/devkitarm/bin/../lib/gcc/arm-none-eabi/4.9.2/../../../../arm-none-eabi/lib/armv6k/fpu\libstdc++.a(eh_arm.o)
                0x00131460                __cxa_end_cleanup
 .text.__cxa_type_match
                0x00131470      0x14c c:/devkitpro/devkitarm/bin/../lib/gcc/arm-none-eabi/4.9.2/../../../../arm-none-eabi/lib/armv6k/fpu\libstdc++.a(eh_arm.o)
                0x00131470                __cxa_type_match
 .text.__cxa_begin_cleanup
                0x001315bc       0xb4 c:/devkitpro/devkitarm/bin/../lib/gcc/arm-none-eabi/4.9.2/../../../../arm-none-eabi/lib/armv6k/fpu\libstdc++.a(eh_arm.o)
                0x001315bc                __cxa_begin_cleanup
 .text.__gnu_end_cleanup
                0x00131670       0xb4 c:/devkitpro/devkitarm/bin/../lib/gcc/arm-none-eabi/4.9.2/../../../../arm-none-eabi/lib/armv6k/fpu\libstdc++.a(eh_arm.o)
                0x00131670                __gnu_end_cleanup
 .text._ZNSt9exceptionD2Ev
                0x00131724        0x4 c:/devkitpro/devkitarm/bin/../lib/gcc/arm-none-eabi/4.9.2/../../../../arm-none-eabi/lib/armv6k/fpu\libstdc++.a(eh_exception.o)
                0x00131724                std::exception::~exception()
                0x00131724                std::exception::~exception()
 .text._ZNSt13bad_exceptionD2Ev
                0x00131728        0x4 c:/devkitpro/devkitarm/bin/../lib/gcc/arm-none-eabi/4.9.2/../../../../arm-none-eabi/lib/armv6k/fpu\libstdc++.a(eh_exception.o)
                0x00131728                std::bad_exception::~bad_exception()
                0x00131728                std::bad_exception::~bad_exception()
 .text._ZNKSt9exception4whatEv
                0x0013172c        0xc c:/devkitpro/devkitarm/bin/../lib/gcc/arm-none-eabi/4.9.2/../../../../arm-none-eabi/lib/armv6k/fpu\libstdc++.a(eh_exception.o)
                0x0013172c                std::exception::what() const
 .text._ZNKSt13bad_exception4whatEv
                0x00131738        0xc c:/devkitpro/devkitarm/bin/../lib/gcc/arm-none-eabi/4.9.2/../../../../arm-none-eabi/lib/armv6k/fpu\libstdc++.a(eh_exception.o)
                0x00131738                std::bad_exception::what() const
 .text._ZNSt9exceptionD0Ev
                0x00131744       0x14 c:/devkitpro/devkitarm/bin/../lib/gcc/arm-none-eabi/4.9.2/../../../../arm-none-eabi/lib/armv6k/fpu\libstdc++.a(eh_exception.o)
                0x00131744                std::exception::~exception()
 .text._ZNSt13bad_exceptionD0Ev
                0x00131758       0x14 c:/devkitpro/devkitarm/bin/../lib/gcc/arm-none-eabi/4.9.2/../../../../arm-none-eabi/lib/armv6k/fpu\libstdc++.a(eh_exception.o)
                0x00131758                std::bad_exception::~bad_exception()
 .text._ZN10__cxxabiv115__forced_unwindD2Ev
                0x0013176c        0x4 c:/devkitpro/devkitarm/bin/../lib/gcc/arm-none-eabi/4.9.2/../../../../arm-none-eabi/lib/armv6k/fpu\libstdc++.a(eh_exception.o)
                0x0013176c                __cxxabiv1::__forced_unwind::~__forced_unwind()
                0x0013176c                __cxxabiv1::__forced_unwind::~__forced_unwind()
 .text._ZN10__cxxabiv115__forced_unwindD0Ev
                0x00131770       0x14 c:/devkitpro/devkitarm/bin/../lib/gcc/arm-none-eabi/4.9.2/../../../../arm-none-eabi/lib/armv6k/fpu\libstdc++.a(eh_exception.o)
                0x00131770                __cxxabiv1::__forced_unwind::~__forced_unwind()
 .text._ZN10__cxxabiv119__foreign_exceptionD2Ev
                0x00131784        0x4 c:/devkitpro/devkitarm/bin/../lib/gcc/arm-none-eabi/4.9.2/../../../../arm-none-eabi/lib/armv6k/fpu\libstdc++.a(eh_exception.o)
                0x00131784                __cxxabiv1::__foreign_exception::~__foreign_exception()
                0x00131784                __cxxabiv1::__foreign_exception::~__foreign_exception()
 .text._ZN10__cxxabiv119__foreign_exceptionD0Ev
                0x00131788       0x14 c:/devkitpro/devkitarm/bin/../lib/gcc/arm-none-eabi/4.9.2/../../../../arm-none-eabi/lib/armv6k/fpu\libstdc++.a(eh_exception.o)
                0x00131788                __cxxabiv1::__foreign_exception::~__foreign_exception()
 .text._ZN10__cxxabiv120__si_class_type_infoD2Ev
                0x0013179c       0x20 c:/devkitpro/devkitarm/bin/../lib/gcc/arm-none-eabi/4.9.2/../../../../arm-none-eabi/lib/armv6k/fpu\libstdc++.a(si_class_type_info.o)
                0x0013179c                __cxxabiv1::__si_class_type_info::~__si_class_type_info()
                0x0013179c                __cxxabiv1::__si_class_type_info::~__si_class_type_info()
 .text._ZN10__cxxabiv120__si_class_type_infoD0Ev
                0x001317bc       0x28 c:/devkitpro/devkitarm/bin/../lib/gcc/arm-none-eabi/4.9.2/../../../../arm-none-eabi/lib/armv6k/fpu\libstdc++.a(si_class_type_info.o)
                0x001317bc                __cxxabiv1::__si_class_type_info::~__si_class_type_info()
 .text._ZNK10__cxxabiv120__si_class_type_info20__do_find_public_srcEiPKvPKNS_17__class_type_infoES2_
                0x001317e4       0x68 c:/devkitpro/devkitarm/bin/../lib/gcc/arm-none-eabi/4.9.2/../../../../arm-none-eabi/lib/armv6k/fpu\libstdc++.a(si_class_type_info.o)
                0x001317e4                __cxxabiv1::__si_class_type_info::__do_find_public_src(int, void const*, __cxxabiv1::__class_type_info const*, void const*) const
 .text._ZNK10__cxxabiv120__si_class_type_info12__do_dyncastEiNS_17__class_type_info10__sub_kindEPKS1_PKvS4_S6_RNS1_16__dyncast_resultE
                0x0013184c       0xd8 c:/devkitpro/devkitarm/bin/../lib/gcc/arm-none-eabi/4.9.2/../../../../arm-none-eabi/lib/armv6k/fpu\libstdc++.a(si_class_type_info.o)
                0x0013184c                __cxxabiv1::__si_class_type_info::__do_dyncast(int, __cxxabiv1::__class_type_info::__sub_kind, __cxxabiv1::__class_type_info const*, void const*, __cxxabiv1::__class_type_info const*, void const*, __cxxabiv1::__class_type_info::__dyncast_result&) const
 .text._ZNK10__cxxabiv120__si_class_type_info11__do_upcastEPKNS_17__class_type_infoEPKvRNS1_15__upcast_resultE
                0x00131924       0x40 c:/devkitpro/devkitarm/bin/../lib/gcc/arm-none-eabi/4.9.2/../../../../arm-none-eabi/lib/armv6k/fpu\libstdc++.a(si_class_type_info.o)
                0x00131924                __cxxabiv1::__si_class_type_info::__do_upcast(__cxxabiv1::__class_type_info const*, void const*, __cxxabiv1::__class_type_info::__upcast_result&) const
 .text._ZN10__cxxabiv1L24__is_gxx_exception_classEPc
                0x00131964       0x70 c:/devkitpro/devkitarm/bin/../lib/gcc/arm-none-eabi/4.9.2/../../../../arm-none-eabi/lib/armv6k/fpu\libstdc++.a(eh_call.o)
 .text.__cxa_call_terminate
                0x001319d4       0x2c c:/devkitpro/devkitarm/bin/../lib/gcc/arm-none-eabi/4.9.2/../../../../arm-none-eabi/lib/armv6k/fpu\libstdc++.a(eh_call.o)
                0x001319d4                __cxa_call_terminate
 .text.__cxa_call_unexpected
                0x00131a00      0x134 c:/devkitpro/devkitarm/bin/../lib/gcc/arm-none-eabi/4.9.2/../../../../arm-none-eabi/lib/armv6k/fpu\libstdc++.a(eh_call.o)
                0x00131a00                __cxa_call_unexpected
 .text.__cxa_get_globals_fast
                0x00131b34        0xc c:/devkitpro/devkitarm/bin/../lib/gcc/arm-none-eabi/4.9.2/../../../../arm-none-eabi/lib/armv6k/fpu\libstdc++.a(eh_globals.o)
                0x00131b34                __cxa_get_globals_fast
 .text.__cxa_get_globals
                0x00131b40        0xc c:/devkitpro/devkitarm/bin/../lib/gcc/arm-none-eabi/4.9.2/../../../../arm-none-eabi/lib/armv6k/fpu\libstdc++.a(eh_globals.o)
                0x00131b40                __cxa_get_globals
 .text.__cxa_get_exception_ptr
                0x00131b4c        0x8 c:/devkitpro/devkitarm/bin/../lib/gcc/arm-none-eabi/4.9.2/../../../../arm-none-eabi/lib/armv6k/fpu\libstdc++.a(eh_catch.o)
                0x00131b4c                __cxa_get_exception_ptr
 .text.__cxa_begin_catch
                0x00131b54       0xe0 c:/devkitpro/devkitarm/bin/../lib/gcc/arm-none-eabi/4.9.2/../../../../arm-none-eabi/lib/armv6k/fpu\libstdc++.a(eh_catch.o)
                0x00131b54                __cxa_begin_catch
 .text.__cxa_end_catch
                0x00131c34       0xd8 c:/devkitpro/devkitarm/bin/../lib/gcc/arm-none-eabi/4.9.2/../../../../arm-none-eabi/lib/armv6k/fpu\libstdc++.a(eh_catch.o)
                0x00131c34                __cxa_end_catch
 .text._ZSt18uncaught_exceptionv
                0x00131d0c       0x18 c:/devkitpro/devkitarm/bin/../lib/gcc/arm-none-eabi/4.9.2/../../../../arm-none-eabi/lib/armv6k/fpu\libstdc++.a(eh_catch.o)
                0x00131d0c                std::uncaught_exception()
 .text._ZNSt9type_infoD2Ev
                0x00131d24        0x4 c:/devkitpro/devkitarm/bin/../lib/gcc/arm-none-eabi/4.9.2/../../../../arm-none-eabi/lib/armv6k/fpu\libstdc++.a(tinfo.o)
                0x00131d24                std::type_info::~type_info()
                0x00131d24                std::type_info::~type_info()
 .text._ZNKSt9type_info14__is_pointer_pEv
                0x00131d28        0x8 c:/devkitpro/devkitarm/bin/../lib/gcc/arm-none-eabi/4.9.2/../../../../arm-none-eabi/lib/armv6k/fpu\libstdc++.a(tinfo.o)
                0x00131d28                std::type_info::__is_pointer_p() const
 .text._ZNKSt9type_info15__is_function_pEv
                0x00131d30        0x8 c:/devkitpro/devkitarm/bin/../lib/gcc/arm-none-eabi/4.9.2/../../../../arm-none-eabi/lib/armv6k/fpu\libstdc++.a(tinfo.o)
                0x00131d30                std::type_info::__is_function_p() const
 .text._ZNKSt9type_info11__do_upcastEPKN10__cxxabiv117__class_type_infoEPPv
                0x00131d38        0x8 c:/devkitpro/devkitarm/bin/../lib/gcc/arm-none-eabi/4.9.2/../../../../arm-none-eabi/lib/armv6k/fpu\libstdc++.a(tinfo.o)
                0x00131d38                std::type_info::__do_upcast(__cxxabiv1::__class_type_info const*, void**) const
 .text._ZNSt9type_infoD0Ev
                0x00131d40       0x14 c:/devkitpro/devkitarm/bin/../lib/gcc/arm-none-eabi/4.9.2/../../../../arm-none-eabi/lib/armv6k/fpu\libstdc++.a(tinfo.o)
                0x00131d40                std::type_info::~type_info()
 .text._ZNKSt9type_infoeqERKS_
                0x00131d54       0x4c c:/devkitpro/devkitarm/bin/../lib/gcc/arm-none-eabi/4.9.2/../../../../arm-none-eabi/lib/armv6k/fpu\libstdc++.a(tinfo.o)
                0x00131d54                std::type_info::operator==(std::type_info const&) const
 .text._ZNKSt9type_info10__do_catchEPKS_PPvj
                0x00131da0        0x4 c:/devkitpro/devkitarm/bin/../lib/gcc/arm-none-eabi/4.9.2/../../../../arm-none-eabi/lib/armv6k/fpu\libstdc++.a(tinfo.o)
                0x00131da0                std::type_info::__do_catch(std::type_info const*, void**, unsigned int) const
 .text.__cxa_pure_virtual
                0x00131da4       0x1c c:/devkitpro/devkitarm/bin/../lib/gcc/arm-none-eabi/4.9.2/../../../../arm-none-eabi/lib/armv6k/fpu\libstdc++.a(pure.o)
                0x00131da4                __cxa_pure_virtual
 .text.__cxa_deleted_virtual
                0x00131dc0       0x1c c:/devkitpro/devkitarm/bin/../lib/gcc/arm-none-eabi/4.9.2/../../../../arm-none-eabi/lib/armv6k/fpu\libstdc++.a(pure.o)
                0x00131dc0                __cxa_deleted_virtual
 .text._ZL12read_sleb128PKhPl
                0x00131ddc       0x40 c:/devkitpro/devkitarm/bin/../lib/gcc/arm-none-eabi/4.9.2/../../../../arm-none-eabi/lib/armv6k/fpu\libstdc++.a(eh_personality.o)
 .text._ZL28read_encoded_value_with_basehjPKhPj
                0x00131e1c      0x1a4 c:/devkitpro/devkitarm/bin/../lib/gcc/arm-none-eabi/4.9.2/../../../../arm-none-eabi/lib/armv6k/fpu\libstdc++.a(eh_personality.o)
 .text._ZL21base_of_encoded_valuehP15_Unwind_Context
                0x00131fc0       0x7c c:/devkitpro/devkitarm/bin/../lib/gcc/arm-none-eabi/4.9.2/../../../../arm-none-eabi/lib/armv6k/fpu\libstdc++.a(eh_personality.o)
 .text._ZL17parse_lsda_headerP15_Unwind_ContextPKhP16lsda_header_info
                0x0013203c       0xe0 c:/devkitpro/devkitarm/bin/../lib/gcc/arm-none-eabi/4.9.2/../../../../arm-none-eabi/lib/armv6k/fpu\libstdc++.a(eh_personality.o)
 .text.__gxx_personality_v0
                0x0013211c      0x630 c:/devkitpro/devkitarm/bin/../lib/gcc/arm-none-eabi/4.9.2/../../../../arm-none-eabi/lib/armv6k/fpu\libstdc++.a(eh_personality.o)
                0x0013211c                __gxx_personality_v0
 .text._ZdlPv   0x0013274c        0x4 c:/devkitpro/devkitarm/bin/../lib/gcc/arm-none-eabi/4.9.2/../../../../arm-none-eabi/lib/armv6k/fpu\libstdc++.a(del_op.o)
                0x0013274c                operator delete(void*)
 .text._Znwj    0x00132750       0x6c c:/devkitpro/devkitarm/bin/../lib/gcc/arm-none-eabi/4.9.2/../../../../arm-none-eabi/lib/armv6k/fpu\libstdc++.a(new_op.o)
                0x00132750                operator new(unsigned int)
 .text._ZnajRKSt9nothrow_t
                0x001327bc        0x4 c:/devkitpro/devkitarm/bin/../lib/gcc/arm-none-eabi/4.9.2/../../../../arm-none-eabi/lib/armv6k/fpu\libstdc++.a(new_opvnt.o)
                0x001327bc                operator new[](unsigned int, std::nothrow_t const&)
 .text.__cxa_allocate_exception
                0x001327c0       0x84 c:/devkitpro/devkitarm/bin/../lib/gcc/arm-none-eabi/4.9.2/../../../../arm-none-eabi/lib/armv6k/fpu\libstdc++.a(eh_alloc.o)
                0x001327c0                __cxa_allocate_exception
 .text.__cxa_free_exception
                0x00132844       0x54 c:/devkitpro/devkitarm/bin/../lib/gcc/arm-none-eabi/4.9.2/../../../../arm-none-eabi/lib/armv6k/fpu\libstdc++.a(eh_alloc.o)
                0x00132844                __cxa_free_exception
 .text.__cxa_allocate_dependent_exception
                0x00132898       0x7c c:/devkitpro/devkitarm/bin/../lib/gcc/arm-none-eabi/4.9.2/../../../../arm-none-eabi/lib/armv6k/fpu\libstdc++.a(eh_alloc.o)
                0x00132898                __cxa_allocate_dependent_exception
 .text.__cxa_free_dependent_exception
                0x00132914       0x60 c:/devkitpro/devkitarm/bin/../lib/gcc/arm-none-eabi/4.9.2/../../../../arm-none-eabi/lib/armv6k/fpu\libstdc++.a(eh_alloc.o)
                0x00132914                __cxa_free_dependent_exception
 .text._ZNK10__cxxabiv117__class_type_info11__do_upcastEPKS0_PPv
                0x00132974       0x5c c:/devkitpro/devkitarm/bin/../lib/gcc/arm-none-eabi/4.9.2/../../../../arm-none-eabi/lib/armv6k/fpu\libstdc++.a(class_type_info.o)
                0x00132974                __cxxabiv1::__class_type_info::__do_upcast(__cxxabiv1::__class_type_info const*, void**) const
 .text._ZNK10__cxxabiv117__class_type_info20__do_find_public_srcEiPKvPKS0_S2_
                0x001329d0       0x14 c:/devkitpro/devkitarm/bin/../lib/gcc/arm-none-eabi/4.9.2/../../../../arm-none-eabi/lib/armv6k/fpu\libstdc++.a(class_type_info.o)
                0x001329d0                __cxxabiv1::__class_type_info::__do_find_public_src(int, void const*, __cxxabiv1::__class_type_info const*, void const*) const
 .text._ZN10__cxxabiv117__class_type_infoD2Ev
                0x001329e4       0x20 c:/devkitpro/devkitarm/bin/../lib/gcc/arm-none-eabi/4.9.2/../../../../arm-none-eabi/lib/armv6k/fpu\libstdc++.a(class_type_info.o)
                0x001329e4                __cxxabiv1::__class_type_info::~__class_type_info()
                0x001329e4                __cxxabiv1::__class_type_info::~__class_type_info()
 .text._ZN10__cxxabiv117__class_type_infoD0Ev
                0x00132a04       0x28 c:/devkitpro/devkitarm/bin/../lib/gcc/arm-none-eabi/4.9.2/../../../../arm-none-eabi/lib/armv6k/fpu\libstdc++.a(class_type_info.o)
                0x00132a04                __cxxabiv1::__class_type_info::~__class_type_info()
 .text._ZNK10__cxxabiv117__class_type_info11__do_upcastEPKS0_PKvRNS0_15__upcast_resultE
                0x00132a2c       0x2c c:/devkitpro/devkitarm/bin/../lib/gcc/arm-none-eabi/4.9.2/../../../../arm-none-eabi/lib/armv6k/fpu\libstdc++.a(class_type_info.o)
                0x00132a2c                __cxxabiv1::__class_type_info::__do_upcast(__cxxabiv1::__class_type_info const*, void const*, __cxxabiv1::__class_type_info::__upcast_result&) const
 .text._ZNK10__cxxabiv117__class_type_info10__do_catchEPKSt9type_infoPPvj
                0x00132a58       0x44 c:/devkitpro/devkitarm/bin/../lib/gcc/arm-none-eabi/4.9.2/../../../../arm-none-eabi/lib/armv6k/fpu\libstdc++.a(class_type_info.o)
                0x00132a58                __cxxabiv1::__class_type_info::__do_catch(std::type_info const*, void**, unsigned int) const
 .text._ZNK10__cxxabiv117__class_type_info12__do_dyncastEiNS0_10__sub_kindEPKS0_PKvS3_S5_RNS0_16__dyncast_resultE
                0x00132a9c       0x78 c:/devkitpro/devkitarm/bin/../lib/gcc/arm-none-eabi/4.9.2/../../../../arm-none-eabi/lib/armv6k/fpu\libstdc++.a(class_type_info.o)
                0x00132a9c                __cxxabiv1::__class_type_info::__do_dyncast(int, __cxxabiv1::__class_type_info::__sub_kind, __cxxabiv1::__class_type_info const*, void const*, __cxxabiv1::__class_type_info const*, void const*, __cxxabiv1::__class_type_info::__dyncast_result&) const
 .text._ZN10__cxxabiv111__terminateEPFvvE
                0x00132b14       0x34 c:/devkitpro/devkitarm/bin/../lib/gcc/arm-none-eabi/4.9.2/../../../../arm-none-eabi/lib/armv6k/fpu\libstdc++.a(eh_terminate.o)
                0x00132b14                __cxxabiv1::__terminate(void (*)())
 .text._ZSt9terminatev
                0x00132b48       0x18 c:/devkitpro/devkitarm/bin/../lib/gcc/arm-none-eabi/4.9.2/../../../../arm-none-eabi/lib/armv6k/fpu\libstdc++.a(eh_terminate.o)
                0x00132b48                std::terminate()
 .text._ZN10__cxxabiv112__unexpectedEPFvvE
                0x00132b60        0xc c:/devkitpro/devkitarm/bin/../lib/gcc/arm-none-eabi/4.9.2/../../../../arm-none-eabi/lib/armv6k/fpu\libstdc++.a(eh_terminate.o)
                0x00132b60                __cxxabiv1::__unexpected(void (*)())
 .text._ZSt10unexpectedv
                0x00132b6c       0x18 c:/devkitpro/devkitarm/bin/../lib/gcc/arm-none-eabi/4.9.2/../../../../arm-none-eabi/lib/armv6k/fpu\libstdc++.a(eh_terminate.o)
                0x00132b6c                std::unexpected()
 .text._ZSt13set_terminatePFvvE
                0x00132b84       0x28 c:/devkitpro/devkitarm/bin/../lib/gcc/arm-none-eabi/4.9.2/../../../../arm-none-eabi/lib/armv6k/fpu\libstdc++.a(eh_terminate.o)
                0x00132b84                std::set_terminate(void (*)())
 .text._ZSt13get_terminatev
                0x00132bac       0x14 c:/devkitpro/devkitarm/bin/../lib/gcc/arm-none-eabi/4.9.2/../../../../arm-none-eabi/lib/armv6k/fpu\libstdc++.a(eh_terminate.o)
                0x00132bac                std::get_terminate()
 .text._ZSt14set_unexpectedPFvvE
                0x00132bc0       0x28 c:/devkitpro/devkitarm/bin/../lib/gcc/arm-none-eabi/4.9.2/../../../../arm-none-eabi/lib/armv6k/fpu\libstdc++.a(eh_terminate.o)
                0x00132bc0                std::set_unexpected(void (*)())
 .text._ZSt14get_unexpectedv
                0x00132be8       0x14 c:/devkitpro/devkitarm/bin/../lib/gcc/arm-none-eabi/4.9.2/../../../../arm-none-eabi/lib/armv6k/fpu\libstdc++.a(eh_terminate.o)
                0x00132be8                std::get_unexpected()
 .text._ZNKSt9bad_alloc4whatEv
                0x00132bfc        0xc c:/devkitpro/devkitarm/bin/../lib/gcc/arm-none-eabi/4.9.2/../../../../arm-none-eabi/lib/armv6k/fpu\libstdc++.a(bad_alloc.o)
                0x00132bfc                std::bad_alloc::what() const
 .text._ZNSt9bad_allocD2Ev
                0x00132c08       0x20 c:/devkitpro/devkitarm/bin/../lib/gcc/arm-none-eabi/4.9.2/../../../../arm-none-eabi/lib/armv6k/fpu\libstdc++.a(bad_alloc.o)
                0x00132c08                std::bad_alloc::~bad_alloc()
                0x00132c08                std::bad_alloc::~bad_alloc()
 .text._ZNSt9bad_allocD0Ev
                0x00132c28       0x28 c:/devkitpro/devkitarm/bin/../lib/gcc/arm-none-eabi/4.9.2/../../../../arm-none-eabi/lib/armv6k/fpu\libstdc++.a(bad_alloc.o)
                0x00132c28                std::bad_alloc::~bad_alloc()
 .text._ZL23__gxx_exception_cleanup19_Unwind_Reason_CodeP21_Unwind_Control_Block
                0x00132c50       0x60 c:/devkitpro/devkitarm/bin/../lib/gcc/arm-none-eabi/4.9.2/../../../../arm-none-eabi/lib/armv6k/fpu\libstdc++.a(eh_throw.o)
 .text.__cxa_throw
                0x00132cb0       0x9c c:/devkitpro/devkitarm/bin/../lib/gcc/arm-none-eabi/4.9.2/../../../../arm-none-eabi/lib/armv6k/fpu\libstdc++.a(eh_throw.o)
                0x00132cb0                __cxa_throw
 .text.__cxa_rethrow
                0x00132d4c       0xb0 c:/devkitpro/devkitarm/bin/../lib/gcc/arm-none-eabi/4.9.2/../../../../arm-none-eabi/lib/armv6k/fpu\libstdc++.a(eh_throw.o)
                0x00132d4c                __cxa_rethrow
 .text._ZnwjRKSt9nothrow_t
                0x00132dfc       0x60 c:/devkitpro/devkitarm/bin/../lib/gcc/arm-none-eabi/4.9.2/../../../../arm-none-eabi/lib/armv6k/fpu\libstdc++.a(new_opnt.o)
                0x00132dfc                operator new(unsigned int, std::nothrow_t const&)
 .text._ZN9__gnu_cxx27__verbose_terminate_handlerEv
                0x00132e5c      0x1ac c:/devkitpro/devkitarm/bin/../lib/gcc/arm-none-eabi/4.9.2/../../../../arm-none-eabi/lib/armv6k/fpu\libstdc++.a(vterminate.o)
                0x00132e5c                __gnu_cxx::__verbose_terminate_handler()
 .text.__cxa_current_exception_type
                0x00133008       0x2c c:/devkitpro/devkitarm/bin/../lib/gcc/arm-none-eabi/4.9.2/../../../../arm-none-eabi/lib/armv6k/fpu\libstdc++.a(eh_type.o)
                0x00133008                __cxa_current_exception_type
 .text.abort    0x00133034       0x14 c:/devkitpro/devkitarm/bin/../lib/gcc/arm-none-eabi/4.9.2/../../../../arm-none-eabi/lib/armv6k/fpu\libg.a(lib_a-abort.o)
                0x00133034                abort
 .text.atof     0x00133048        0x8 c:/devkitpro/devkitarm/bin/../lib/gcc/arm-none-eabi/4.9.2/../../../../arm-none-eabi/lib/armv6k/fpu\libg.a(lib_a-atof.o)
                0x00133048                atof
 .text.atoi     0x00133050        0xc c:/devkitpro/devkitarm/bin/../lib/gcc/arm-none-eabi/4.9.2/../../../../arm-none-eabi/lib/armv6k/fpu\libg.a(lib_a-atoi.o)
                0x00133050                atoi
 .text._atoi_r  0x0013305c        0xc c:/devkitpro/devkitarm/bin/../lib/gcc/arm-none-eabi/4.9.2/../../../../arm-none-eabi/lib/armv6k/fpu\libg.a(lib_a-atoi.o)
                0x0013305c                _atoi_r
 .text.atoll    0x00133068        0xc c:/devkitpro/devkitarm/bin/../lib/gcc/arm-none-eabi/4.9.2/../../../../arm-none-eabi/lib/armv6k/fpu\libg.a(lib_a-atoll.o)
                0x00133068                atoll
 .text._atoll_r
                0x00133074        0xc c:/devkitpro/devkitarm/bin/../lib/gcc/arm-none-eabi/4.9.2/../../../../arm-none-eabi/lib/armv6k/fpu\libg.a(lib_a-atoll.o)
                0x00133074                _atoll_r
 .text.bsearch  0x00133080       0x78 c:/devkitpro/devkitarm/bin/../lib/gcc/arm-none-eabi/4.9.2/../../../../arm-none-eabi/lib/armv6k/fpu\libg.a(lib_a-bsearch.o)
                0x00133080                bsearch
 .text.calloc   0x001330f8       0x20 c:/devkitpro/devkitarm/bin/../lib/gcc/arm-none-eabi/4.9.2/../../../../arm-none-eabi/lib/armv6k/fpu\libg.a(lib_a-calloc.o)
                0x001330f8                calloc
 .text._calloc_r
                0x00133118       0x94 c:/devkitpro/devkitarm/bin/../lib/gcc/arm-none-eabi/4.9.2/../../../../arm-none-eabi/lib/armv6k/fpu\libg.a(lib_a-callocr.o)
                0x00133118                _calloc_r
 .text.__set_ctype
                0x001331ac       0x18 c:/devkitpro/devkitarm/bin/../lib/gcc/arm-none-eabi/4.9.2/../../../../arm-none-eabi/lib/armv6k/fpu\libg.a(lib_a-ctype_.o)
                0x001331ac                __set_ctype
 .text.__errno  0x001331c4        0xc c:/devkitpro/devkitarm/bin/../lib/gcc/arm-none-eabi/4.9.2/../../../../arm-none-eabi/lib/armv6k/fpu\libg.a(lib_a-errno.o)
                0x001331c4                __errno
 .text.exit     0x001331d0       0x34 c:/devkitpro/devkitarm/bin/../lib/gcc/arm-none-eabi/4.9.2/../../../../arm-none-eabi/lib/armv6k/fpu\libg.a(lib_a-exit.o)
                0x001331d0                exit
 .text._fclose_r
                0x00133204      0x118 c:/devkitpro/devkitarm/bin/../lib/gcc/arm-none-eabi/4.9.2/../../../../arm-none-eabi/lib/armv6k/fpu\libg.a(lib_a-fclose.o)
                0x00133204                _fclose_r
 .text.fclose   0x0013331c       0x18 c:/devkitpro/devkitarm/bin/../lib/gcc/arm-none-eabi/4.9.2/../../../../arm-none-eabi/lib/armv6k/fpu\libg.a(lib_a-fclose.o)
                0x0013331c                fclose
 .text.ferror   0x00133334       0x88 c:/devkitpro/devkitarm/bin/../lib/gcc/arm-none-eabi/4.9.2/../../../../arm-none-eabi/lib/armv6k/fpu\libg.a(lib_a-ferror.o)
                0x00133334                ferror
 .text.__sflush_r
                0x001333bc      0x238 c:/devkitpro/devkitarm/bin/../lib/gcc/arm-none-eabi/4.9.2/../../../../arm-none-eabi/lib/armv6k/fpu\libg.a(lib_a-fflush.o)
                0x001333bc                __sflush_r
 .text._fflush_r
                0x001335f4       0x98 c:/devkitpro/devkitarm/bin/../lib/gcc/arm-none-eabi/4.9.2/../../../../arm-none-eabi/lib/armv6k/fpu\libg.a(lib_a-fflush.o)
                0x001335f4                _fflush_r
 .text.fflush   0x0013368c       0x38 c:/devkitpro/devkitarm/bin/../lib/gcc/arm-none-eabi/4.9.2/../../../../arm-none-eabi/lib/armv6k/fpu\libg.a(lib_a-fflush.o)
                0x0013368c                fflush
 .text._fgetc_r
                0x001336c4       0xb0 c:/devkitpro/devkitarm/bin/../lib/gcc/arm-none-eabi/4.9.2/../../../../arm-none-eabi/lib/armv6k/fpu\libg.a(lib_a-fgetc.o)
                0x001336c4                _fgetc_r
 .text.fgetc    0x00133774       0xb4 c:/devkitpro/devkitarm/bin/../lib/gcc/arm-none-eabi/4.9.2/../../../../arm-none-eabi/lib/armv6k/fpu\libg.a(lib_a-fgetc.o)
                0x00133774                fgetc
 .text.fileno   0x00133828       0xa4 c:/devkitpro/devkitarm/bin/../lib/gcc/arm-none-eabi/4.9.2/../../../../arm-none-eabi/lib/armv6k/fpu\libg.a(lib_a-fileno.o)
                0x00133828                fileno
 .text._cleanup_r
                0x001338cc        0xc c:/devkitpro/devkitarm/bin/../lib/gcc/arm-none-eabi/4.9.2/../../../../arm-none-eabi/lib/armv6k/fpu\libg.a(lib_a-findfp.o)
                0x001338cc                _cleanup_r
 .text.__fp_lock
                0x001338d8       0x1c c:/devkitpro/devkitarm/bin/../lib/gcc/arm-none-eabi/4.9.2/../../../../arm-none-eabi/lib/armv6k/fpu\libg.a(lib_a-findfp.o)
 .text.__fp_unlock
                0x001338f4       0x1c c:/devkitpro/devkitarm/bin/../lib/gcc/arm-none-eabi/4.9.2/../../../../arm-none-eabi/lib/armv6k/fpu\libg.a(lib_a-findfp.o)
 .text.__sinit.part.1
                0x00133910      0x15c c:/devkitpro/devkitarm/bin/../lib/gcc/arm-none-eabi/4.9.2/../../../../arm-none-eabi/lib/armv6k/fpu\libg.a(lib_a-findfp.o)
 .text.__sfmoreglue
                0x00133a6c       0x48 c:/devkitpro/devkitarm/bin/../lib/gcc/arm-none-eabi/4.9.2/../../../../arm-none-eabi/lib/armv6k/fpu\libg.a(lib_a-findfp.o)
                0x00133a6c                __sfmoreglue
 .text.__sfp    0x00133ab4       0xe8 c:/devkitpro/devkitarm/bin/../lib/gcc/arm-none-eabi/4.9.2/../../../../arm-none-eabi/lib/armv6k/fpu\libg.a(lib_a-findfp.o)
                0x00133ab4                __sfp
 .text._cleanup
                0x00133b9c       0x18 c:/devkitpro/devkitarm/bin/../lib/gcc/arm-none-eabi/4.9.2/../../../../arm-none-eabi/lib/armv6k/fpu\libg.a(lib_a-findfp.o)
                0x00133b9c                _cleanup
 .text.__sinit  0x00133bb4       0x10 c:/devkitpro/devkitarm/bin/../lib/gcc/arm-none-eabi/4.9.2/../../../../arm-none-eabi/lib/armv6k/fpu\libg.a(lib_a-findfp.o)
                0x00133bb4                __sinit
 .text.__sfp_lock_acquire
                0x00133bc4        0x4 c:/devkitpro/devkitarm/bin/../lib/gcc/arm-none-eabi/4.9.2/../../../../arm-none-eabi/lib/armv6k/fpu\libg.a(lib_a-findfp.o)
                0x00133bc4                __sfp_lock_acquire
 .text.__sfp_lock_release
                0x00133bc8        0x4 c:/devkitpro/devkitarm/bin/../lib/gcc/arm-none-eabi/4.9.2/../../../../arm-none-eabi/lib/armv6k/fpu\libg.a(lib_a-findfp.o)
                0x00133bc8                __sfp_lock_release
 .text.__sinit_lock_acquire
                0x00133bcc        0x4 c:/devkitpro/devkitarm/bin/../lib/gcc/arm-none-eabi/4.9.2/../../../../arm-none-eabi/lib/armv6k/fpu\libg.a(lib_a-findfp.o)
                0x00133bcc                __sinit_lock_acquire
 .text.__sinit_lock_release
                0x00133bd0        0x4 c:/devkitpro/devkitarm/bin/../lib/gcc/arm-none-eabi/4.9.2/../../../../arm-none-eabi/lib/armv6k/fpu\libg.a(lib_a-findfp.o)
                0x00133bd0                __sinit_lock_release
 .text.__fp_lock_all
                0x00133bd4       0x18 c:/devkitpro/devkitarm/bin/../lib/gcc/arm-none-eabi/4.9.2/../../../../arm-none-eabi/lib/armv6k/fpu\libg.a(lib_a-findfp.o)
                0x00133bd4                __fp_lock_all
 .text.__fp_unlock_all
                0x00133bec       0x18 c:/devkitpro/devkitarm/bin/../lib/gcc/arm-none-eabi/4.9.2/../../../../arm-none-eabi/lib/armv6k/fpu\libg.a(lib_a-findfp.o)
                0x00133bec                __fp_unlock_all
 .text.__libc_fini_array
                0x00133c04       0x40 c:/devkitpro/devkitarm/bin/../lib/gcc/arm-none-eabi/4.9.2/../../../../arm-none-eabi/lib/armv6k/fpu\libg.a(lib_a-fini.o)
                0x00133c04                __libc_fini_array
 .text._fopen_r
                0x00133c44      0x130 c:/devkitpro/devkitarm/bin/../lib/gcc/arm-none-eabi/4.9.2/../../../../arm-none-eabi/lib/armv6k/fpu\libg.a(lib_a-fopen.o)
                0x00133c44                _fopen_r
 .text.fopen    0x00133d74       0x20 c:/devkitpro/devkitarm/bin/../lib/gcc/arm-none-eabi/4.9.2/../../../../arm-none-eabi/lib/armv6k/fpu\libg.a(lib_a-fopen.o)
                0x00133d74                fopen
 .text._fprintf_r
                0x00133d94       0x30 c:/devkitpro/devkitarm/bin/../lib/gcc/arm-none-eabi/4.9.2/../../../../arm-none-eabi/lib/armv6k/fpu\libg.a(lib_a-fprintf.o)
                0x00133d94                _fprintf_r
 .text.fprintf  0x00133dc4       0x3c c:/devkitpro/devkitarm/bin/../lib/gcc/arm-none-eabi/4.9.2/../../../../arm-none-eabi/lib/armv6k/fpu\libg.a(lib_a-fprintf.o)
                0x00133dc4                fprintf
 .text._fputc_r
                0x00133e00       0xa4 c:/devkitpro/devkitarm/bin/../lib/gcc/arm-none-eabi/4.9.2/../../../../arm-none-eabi/lib/armv6k/fpu\libg.a(lib_a-fputc.o)
                0x00133e00                _fputc_r
 .text.fputc    0x00133ea4       0x94 c:/devkitpro/devkitarm/bin/../lib/gcc/arm-none-eabi/4.9.2/../../../../arm-none-eabi/lib/armv6k/fpu\libg.a(lib_a-fputc.o)
                0x00133ea4                fputc
 .text._fputs_r
                0x00133f38       0xe8 c:/devkitpro/devkitarm/bin/../lib/gcc/arm-none-eabi/4.9.2/../../../../arm-none-eabi/lib/armv6k/fpu\libg.a(lib_a-fputs.o)
                0x00133f38                _fputs_r
 .text.fputs    0x00134020       0x20 c:/devkitpro/devkitarm/bin/../lib/gcc/arm-none-eabi/4.9.2/../../../../arm-none-eabi/lib/armv6k/fpu\libg.a(lib_a-fputs.o)
                0x00134020                fputs
 .text._fread_r
                0x00134040      0x2f0 c:/devkitpro/devkitarm/bin/../lib/gcc/arm-none-eabi/4.9.2/../../../../arm-none-eabi/lib/armv6k/fpu\libg.a(lib_a-fread.o)
                0x00134040                _fread_r
 .text.fread    0x00134330       0x38 c:/devkitpro/devkitarm/bin/../lib/gcc/arm-none-eabi/4.9.2/../../../../arm-none-eabi/lib/armv6k/fpu\libg.a(lib_a-fread.o)
                0x00134330                fread
 .text._malloc_trim_r
                0x00134368       0xf8 c:/devkitpro/devkitarm/bin/../lib/gcc/arm-none-eabi/4.9.2/../../../../arm-none-eabi/lib/armv6k/fpu\libg.a(lib_a-freer.o)
                0x00134368                _malloc_trim_r
 .text._free_r  0x00134460      0x2b4 c:/devkitpro/devkitarm/bin/../lib/gcc/arm-none-eabi/4.9.2/../../../../arm-none-eabi/lib/armv6k/fpu\libg.a(lib_a-freer.o)
                0x00134460                _free_r
 .text._fseek_r
                0x00134714        0x4 c:/devkitpro/devkitarm/bin/../lib/gcc/arm-none-eabi/4.9.2/../../../../arm-none-eabi/lib/armv6k/fpu\libg.a(lib_a-fseek.o)
                0x00134714                _fseek_r
 .text.fseek    0x00134718       0x28 c:/devkitpro/devkitarm/bin/../lib/gcc/arm-none-eabi/4.9.2/../../../../arm-none-eabi/lib/armv6k/fpu\libg.a(lib_a-fseek.o)
                0x00134718                fseek
 .text._fseeko_r
                0x00134740      0x4f8 c:/devkitpro/devkitarm/bin/../lib/gcc/arm-none-eabi/4.9.2/../../../../arm-none-eabi/lib/armv6k/fpu\libg.a(lib_a-fseeko.o)
                0x00134740                _fseeko_r
 .text.fseeko   0x00134c38       0x28 c:/devkitpro/devkitarm/bin/../lib/gcc/arm-none-eabi/4.9.2/../../../../arm-none-eabi/lib/armv6k/fpu\libg.a(lib_a-fseeko.o)
                0x00134c38                fseeko
 .text._ftell_r
                0x00134c60        0x4 c:/devkitpro/devkitarm/bin/../lib/gcc/arm-none-eabi/4.9.2/../../../../arm-none-eabi/lib/armv6k/fpu\libg.a(lib_a-ftell.o)
                0x00134c60                _ftell_r
 .text.ftell    0x00134c64       0x18 c:/devkitpro/devkitarm/bin/../lib/gcc/arm-none-eabi/4.9.2/../../../../arm-none-eabi/lib/armv6k/fpu\libg.a(lib_a-ftell.o)
                0x00134c64                ftell
 .text._ftello_r
                0x00134c7c      0x164 c:/devkitpro/devkitarm/bin/../lib/gcc/arm-none-eabi/4.9.2/../../../../arm-none-eabi/lib/armv6k/fpu\libg.a(lib_a-ftello.o)
                0x00134c7c                _ftello_r
 .text.ftello   0x00134de0       0x18 c:/devkitpro/devkitarm/bin/../lib/gcc/arm-none-eabi/4.9.2/../../../../arm-none-eabi/lib/armv6k/fpu\libg.a(lib_a-ftello.o)
                0x00134de0                ftello
 .text.__sfvwrite_r
                0x00134df8      0x4c4 c:/devkitpro/devkitarm/bin/../lib/gcc/arm-none-eabi/4.9.2/../../../../arm-none-eabi/lib/armv6k/fpu\libg.a(lib_a-fvwrite.o)
                0x00134df8                __sfvwrite_r
 .text._fwalk   0x001352bc       0x78 c:/devkitpro/devkitarm/bin/../lib/gcc/arm-none-eabi/4.9.2/../../../../arm-none-eabi/lib/armv6k/fpu\libg.a(lib_a-fwalk.o)
                0x001352bc                _fwalk
 .text._fwalk_reent
                0x00135334       0x80 c:/devkitpro/devkitarm/bin/../lib/gcc/arm-none-eabi/4.9.2/../../../../arm-none-eabi/lib/armv6k/fpu\libg.a(lib_a-fwalk.o)
                0x00135334                _fwalk_reent
 .text._fwrite_r
                0x001353b4      0x11c c:/devkitpro/devkitarm/bin/../lib/gcc/arm-none-eabi/4.9.2/../../../../arm-none-eabi/lib/armv6k/fpu\libg.a(lib_a-fwrite.o)
                0x001353b4                _fwrite_r
 .text.fwrite   0x001354d0       0x38 c:/devkitpro/devkitarm/bin/../lib/gcc/arm-none-eabi/4.9.2/../../../../arm-none-eabi/lib/armv6k/fpu\libg.a(lib_a-fwrite.o)
                0x001354d0                fwrite
 .text.__libc_init_array
                0x00135508       0x78 c:/devkitpro/devkitarm/bin/../lib/gcc/arm-none-eabi/4.9.2/../../../../arm-none-eabi/lib/armv6k/fpu\libg.a(lib_a-init.o)
                0x00135508                __libc_init_array
 .text.isalpha  0x00135580       0x1c c:/devkitpro/devkitarm/bin/../lib/gcc/arm-none-eabi/4.9.2/../../../../arm-none-eabi/lib/armv6k/fpu\libg.a(lib_a-isalpha.o)
                0x00135580                isalpha
 .text.isspace  0x0013559c       0x1c c:/devkitpro/devkitarm/bin/../lib/gcc/arm-none-eabi/4.9.2/../../../../arm-none-eabi/lib/armv6k/fpu\libg.a(lib_a-isspace.o)
                0x0013559c                isspace
 .text.__smakebuf_r
                0x001355b8      0x160 c:/devkitpro/devkitarm/bin/../lib/gcc/arm-none-eabi/4.9.2/../../../../arm-none-eabi/lib/armv6k/fpu\libg.a(lib_a-makebuf.o)
                0x001355b8                __smakebuf_r
 .text.memalign
                0x00135718       0x20 c:/devkitpro/devkitarm/bin/../lib/gcc/arm-none-eabi/4.9.2/../../../../arm-none-eabi/lib/armv6k/fpu\libg.a(lib_a-malign.o)
                0x00135718                memalign
 .text._memalign_r
                0x00135738      0x160 c:/devkitpro/devkitarm/bin/../lib/gcc/arm-none-eabi/4.9.2/../../../../arm-none-eabi/lib/armv6k/fpu\libg.a(lib_a-malignr.o)
                0x00135738                _memalign_r
 .text.malloc   0x00135898       0x18 c:/devkitpro/devkitarm/bin/../lib/gcc/arm-none-eabi/4.9.2/../../../../arm-none-eabi/lib/armv6k/fpu\libg.a(lib_a-malloc.o)
                0x00135898                malloc
 .text.free     0x001358b0       0x18 c:/devkitpro/devkitarm/bin/../lib/gcc/arm-none-eabi/4.9.2/../../../../arm-none-eabi/lib/armv6k/fpu\libg.a(lib_a-malloc.o)
                0x001358b0                free
 .text._malloc_r
                0x001358c8      0x740 c:/devkitpro/devkitarm/bin/../lib/gcc/arm-none-eabi/4.9.2/../../../../arm-none-eabi/lib/armv6k/fpu\libg.a(lib_a-mallocr.o)
                0x001358c8                _malloc_r
 .text.memchr   0x00136008      0x120 c:/devkitpro/devkitarm/bin/../lib/gcc/arm-none-eabi/4.9.2/../../../../arm-none-eabi/lib/armv6k/fpu\libg.a(lib_a-memchr.o)
                0x00136008                memchr
 .text.memcmp   0x00136128       0xa8 c:/devkitpro/devkitarm/bin/../lib/gcc/arm-none-eabi/4.9.2/../../../../arm-none-eabi/lib/armv6k/fpu\libg.a(lib_a-memcmp.o)
                0x00136128                memcmp
 .text.memcpy   0x001361d0       0xf4 c:/devkitpro/devkitarm/bin/../lib/gcc/arm-none-eabi/4.9.2/../../../../arm-none-eabi/lib/armv6k/fpu\libg.a(lib_a-memcpy.o)
                0x001361d0                memcpy
 .text.memmove  0x001362c4      0x12c c:/devkitpro/devkitarm/bin/../lib/gcc/arm-none-eabi/4.9.2/../../../../arm-none-eabi/lib/armv6k/fpu\libg.a(lib_a-memmove.o)
                0x001362c4                memmove
 .text.memset   0x001363f0       0xf0 c:/devkitpro/devkitarm/bin/../lib/gcc/arm-none-eabi/4.9.2/../../../../arm-none-eabi/lib/armv6k/fpu\libg.a(lib_a-memset.o)
                0x001363f0                memset
 .text.__malloc_lock
                0x001364e0        0x4 c:/devkitpro/devkitarm/bin/../lib/gcc/arm-none-eabi/4.9.2/../../../../arm-none-eabi/lib/armv6k/fpu\libg.a(lib_a-mlock.o)
                0x001364e0                __malloc_lock
 .text.__malloc_unlock
                0x001364e4        0x4 c:/devkitpro/devkitarm/bin/../lib/gcc/arm-none-eabi/4.9.2/../../../../arm-none-eabi/lib/armv6k/fpu\libg.a(lib_a-mlock.o)
                0x001364e4                __malloc_unlock
 .text._printf_r
                0x001364e8       0x34 c:/devkitpro/devkitarm/bin/../lib/gcc/arm-none-eabi/4.9.2/../../../../arm-none-eabi/lib/armv6k/fpu\libg.a(lib_a-printf.o)
                0x001364e8                _printf_r
 .text.printf   0x0013651c       0x38 c:/devkitpro/devkitarm/bin/../lib/gcc/arm-none-eabi/4.9.2/../../../../arm-none-eabi/lib/armv6k/fpu\libg.a(lib_a-printf.o)
                0x0013651c                printf
 .text._putchar_r
                0x00136554        0x8 c:/devkitpro/devkitarm/bin/../lib/gcc/arm-none-eabi/4.9.2/../../../../arm-none-eabi/lib/armv6k/fpu\libg.a(lib_a-putchar.o)
                0x00136554                _putchar_r
 .text.putchar  0x0013655c       0x1c c:/devkitpro/devkitarm/bin/../lib/gcc/arm-none-eabi/4.9.2/../../../../arm-none-eabi/lib/armv6k/fpu\libg.a(lib_a-putchar.o)
                0x0013655c                putchar
 .text._putc_r  0x00136578       0xf8 c:/devkitpro/devkitarm/bin/../lib/gcc/arm-none-eabi/4.9.2/../../../../arm-none-eabi/lib/armv6k/fpu\libg.a(lib_a-putc.o)
                0x00136578                _putc_r
 .text.putc     0x00136670       0xfc c:/devkitpro/devkitarm/bin/../lib/gcc/arm-none-eabi/4.9.2/../../../../arm-none-eabi/lib/armv6k/fpu\libg.a(lib_a-putc.o)
                0x00136670                putc
 .text._puts_r  0x0013676c       0xec c:/devkitpro/devkitarm/bin/../lib/gcc/arm-none-eabi/4.9.2/../../../../arm-none-eabi/lib/armv6k/fpu\libg.a(lib_a-puts.o)
                0x0013676c                _puts_r
 .text.puts     0x00136858       0x18 c:/devkitpro/devkitarm/bin/../lib/gcc/arm-none-eabi/4.9.2/../../../../arm-none-eabi/lib/armv6k/fpu\libg.a(lib_a-puts.o)
                0x00136858                puts
 .text.qsort    0x00136870      0x8a4 c:/devkitpro/devkitarm/bin/../lib/gcc/arm-none-eabi/4.9.2/../../../../arm-none-eabi/lib/armv6k/fpu\libg.a(lib_a-qsort.o)
                0x00136870                qsort
 .text.srand    0x00137114       0x1c c:/devkitpro/devkitarm/bin/../lib/gcc/arm-none-eabi/4.9.2/../../../../arm-none-eabi/lib/armv6k/fpu\libg.a(lib_a-rand.o)
                0x00137114                srand
 .text.rand     0x00137130       0x44 c:/devkitpro/devkitarm/bin/../lib/gcc/arm-none-eabi/4.9.2/../../../../arm-none-eabi/lib/armv6k/fpu\libg.a(lib_a-rand.o)
                0x00137130                rand
 .text.realloc  0x00137174       0x20 c:/devkitpro/devkitarm/bin/../lib/gcc/arm-none-eabi/4.9.2/../../../../arm-none-eabi/lib/armv6k/fpu\libg.a(lib_a-realloc.o)
                0x00137174                realloc
 .text._realloc_r
                0x00137194      0x564 c:/devkitpro/devkitarm/bin/../lib/gcc/arm-none-eabi/4.9.2/../../../../arm-none-eabi/lib/armv6k/fpu\libg.a(lib_a-reallocr.o)
                0x00137194                _realloc_r
 .text.lflush   0x001376f8       0x1c c:/devkitpro/devkitarm/bin/../lib/gcc/arm-none-eabi/4.9.2/../../../../arm-none-eabi/lib/armv6k/fpu\libg.a(lib_a-refill.o)
 .text.__srefill_r
                0x00137714      0x1d8 c:/devkitpro/devkitarm/bin/../lib/gcc/arm-none-eabi/4.9.2/../../../../arm-none-eabi/lib/armv6k/fpu\libg.a(lib_a-refill.o)
                0x00137714                __srefill_r
 .text._rewind_r
                0x001378ec       0x24 c:/devkitpro/devkitarm/bin/../lib/gcc/arm-none-eabi/4.9.2/../../../../arm-none-eabi/lib/armv6k/fpu\libg.a(lib_a-rewind.o)
                0x001378ec                _rewind_r
 .text.rewind   0x00137910       0x2c c:/devkitpro/devkitarm/bin/../lib/gcc/arm-none-eabi/4.9.2/../../../../arm-none-eabi/lib/armv6k/fpu\libg.a(lib_a-rewind.o)
                0x00137910                rewind
 .text.__srget_r
                0x0013793c       0x50 c:/devkitpro/devkitarm/bin/../lib/gcc/arm-none-eabi/4.9.2/../../../../arm-none-eabi/lib/armv6k/fpu\libg.a(lib_a-rget.o)
                0x0013793c                __srget_r
 .text.__srget  0x0013798c       0x18 c:/devkitpro/devkitarm/bin/../lib/gcc/arm-none-eabi/4.9.2/../../../../arm-none-eabi/lib/armv6k/fpu\libg.a(lib_a-rget.o)
                0x0013798c                __srget
 .text.setvbuf  0x001379a4      0x1e8 c:/devkitpro/devkitarm/bin/../lib/gcc/arm-none-eabi/4.9.2/../../../../arm-none-eabi/lib/armv6k/fpu\libg.a(lib_a-setvbuf.o)
                0x001379a4                setvbuf
 .text._init_signal_r
                0x00137b8c       0x60 c:/devkitpro/devkitarm/bin/../lib/gcc/arm-none-eabi/4.9.2/../../../../arm-none-eabi/lib/armv6k/fpu\libg.a(lib_a-signal.o)
                0x00137b8c                _init_signal_r
 .text._signal_r
                0x00137bec       0x5c c:/devkitpro/devkitarm/bin/../lib/gcc/arm-none-eabi/4.9.2/../../../../arm-none-eabi/lib/armv6k/fpu\libg.a(lib_a-signal.o)
                0x00137bec                _signal_r
 .text._raise_r
                0x00137c48       0x98 c:/devkitpro/devkitarm/bin/../lib/gcc/arm-none-eabi/4.9.2/../../../../arm-none-eabi/lib/armv6k/fpu\libg.a(lib_a-signal.o)
                0x00137c48                _raise_r
 .text.__sigtramp_r
                0x00137ce0       0x94 c:/devkitpro/devkitarm/bin/../lib/gcc/arm-none-eabi/4.9.2/../../../../arm-none-eabi/lib/armv6k/fpu\libg.a(lib_a-signal.o)
                0x00137ce0                __sigtramp_r
 .text.raise    0x00137d74       0x18 c:/devkitpro/devkitarm/bin/../lib/gcc/arm-none-eabi/4.9.2/../../../../arm-none-eabi/lib/armv6k/fpu\libg.a(lib_a-signal.o)
                0x00137d74                raise
 .text.signal   0x00137d8c       0x20 c:/devkitpro/devkitarm/bin/../lib/gcc/arm-none-eabi/4.9.2/../../../../arm-none-eabi/lib/armv6k/fpu\libg.a(lib_a-signal.o)
                0x00137d8c                signal
 .text._init_signal
                0x00137dac       0x10 c:/devkitpro/devkitarm/bin/../lib/gcc/arm-none-eabi/4.9.2/../../../../arm-none-eabi/lib/armv6k/fpu\libg.a(lib_a-signal.o)
                0x00137dac                _init_signal
 .text.__sigtramp
                0x00137dbc       0x18 c:/devkitpro/devkitarm/bin/../lib/gcc/arm-none-eabi/4.9.2/../../../../arm-none-eabi/lib/armv6k/fpu\libg.a(lib_a-signal.o)
                0x00137dbc                __sigtramp
 .text._siprintf_r
                0x00137dd4       0x68 c:/devkitpro/devkitarm/bin/../lib/gcc/arm-none-eabi/4.9.2/../../../../arm-none-eabi/lib/armv6k/fpu\libg.a(lib_a-siprintf.o)
                0x00137dd4                _siprintf_r
 .text.siprintf
                0x00137e3c       0x68 c:/devkitpro/devkitarm/bin/../lib/gcc/arm-none-eabi/4.9.2/../../../../arm-none-eabi/lib/armv6k/fpu\libg.a(lib_a-siprintf.o)
                0x00137e3c                siprintf
 .text._snprintf_r
                0x00137ea4       0xd8 c:/devkitpro/devkitarm/bin/../lib/gcc/arm-none-eabi/4.9.2/../../../../arm-none-eabi/lib/armv6k/fpu\libg.a(lib_a-snprintf.o)
                0x00137ea4                _snprintf_r
 .text.snprintf
                0x00137f7c       0xe0 c:/devkitpro/devkitarm/bin/../lib/gcc/arm-none-eabi/4.9.2/../../../../arm-none-eabi/lib/armv6k/fpu\libg.a(lib_a-snprintf.o)
                0x00137f7c                snprintf
 .text._sprintf_r
                0x0013805c       0x68 c:/devkitpro/devkitarm/bin/../lib/gcc/arm-none-eabi/4.9.2/../../../../arm-none-eabi/lib/armv6k/fpu\libg.a(lib_a-sprintf.o)
                0x0013805c                _sprintf_r
 .text.sprintf  0x001380c4       0x68 c:/devkitpro/devkitarm/bin/../lib/gcc/arm-none-eabi/4.9.2/../../../../arm-none-eabi/lib/armv6k/fpu\libg.a(lib_a-sprintf.o)
                0x001380c4                sprintf
 .text.sscanf   0x0013812c       0x74 c:/devkitpro/devkitarm/bin/../lib/gcc/arm-none-eabi/4.9.2/../../../../arm-none-eabi/lib/armv6k/fpu\libg.a(lib_a-sscanf.o)
                0x0013812c                sscanf
 .text._sscanf_r
                0x001381a0       0x80 c:/devkitpro/devkitarm/bin/../lib/gcc/arm-none-eabi/4.9.2/../../../../arm-none-eabi/lib/armv6k/fpu\libg.a(lib_a-sscanf.o)
                0x001381a0                _sscanf_r
 .text.__sread  0x00138220       0x30 c:/devkitpro/devkitarm/bin/../lib/gcc/arm-none-eabi/4.9.2/../../../../arm-none-eabi/lib/armv6k/fpu\libg.a(lib_a-stdio.o)
                0x00138220                __sread
 .text.__seofread
                0x00138250        0x8 c:/devkitpro/devkitarm/bin/../lib/gcc/arm-none-eabi/4.9.2/../../../../arm-none-eabi/lib/armv6k/fpu\libg.a(lib_a-stdio.o)
                0x00138250                __seofread
 .text.__swrite
                0x00138258       0x54 c:/devkitpro/devkitarm/bin/../lib/gcc/arm-none-eabi/4.9.2/../../../../arm-none-eabi/lib/armv6k/fpu\libg.a(lib_a-stdio.o)
                0x00138258                __swrite
 .text.__sseek  0x001382ac       0x2c c:/devkitpro/devkitarm/bin/../lib/gcc/arm-none-eabi/4.9.2/../../../../arm-none-eabi/lib/armv6k/fpu\libg.a(lib_a-stdio.o)
                0x001382ac                __sseek
 .text.__sclose
                0x001382d8        0x8 c:/devkitpro/devkitarm/bin/../lib/gcc/arm-none-eabi/4.9.2/../../../../arm-none-eabi/lib/armv6k/fpu\libg.a(lib_a-stdio.o)
                0x001382d8                __sclose
 .text.strcasecmp
                0x001382e0       0x68 c:/devkitpro/devkitarm/bin/../lib/gcc/arm-none-eabi/4.9.2/../../../../arm-none-eabi/lib/armv6k/fpu\libg.a(lib_a-strcasecmp.o)
                0x001382e0                strcasecmp
 .text.strcat   0x00138348       0x80 c:/devkitpro/devkitarm/bin/../lib/gcc/arm-none-eabi/4.9.2/../../../../arm-none-eabi/lib/armv6k/fpu\libg.a(lib_a-strcat.o)
                0x00138348                strcat
 .text.strchr   0x001383c8      0x16c c:/devkitpro/devkitarm/bin/../lib/gcc/arm-none-eabi/4.9.2/../../../../arm-none-eabi/lib/armv6k/fpu\libg.a(lib_a-strchr.o)
                0x001383c8                strchr
 .text.strcpy   0x00138534       0xf0 c:/devkitpro/devkitarm/bin/../lib/gcc/arm-none-eabi/4.9.2/../../../../arm-none-eabi/lib/armv6k/fpu\libg.a(lib_a-strcpy.o)
                0x00138534                strcpy
 .text.strdup   0x00138624       0x18 c:/devkitpro/devkitarm/bin/../lib/gcc/arm-none-eabi/4.9.2/../../../../arm-none-eabi/lib/armv6k/fpu\libg.a(lib_a-strdup.o)
                0x00138624                strdup
 .text._strdup_r
                0x0013863c       0x40 c:/devkitpro/devkitarm/bin/../lib/gcc/arm-none-eabi/4.9.2/../../../../arm-none-eabi/lib/armv6k/fpu\libg.a(lib_a-strdup_r.o)
                0x0013863c                _strdup_r
 .text.strlen   0x0013867c       0x5c c:/devkitpro/devkitarm/bin/../lib/gcc/arm-none-eabi/4.9.2/../../../../arm-none-eabi/lib/armv6k/fpu\libg.a(lib_a-strlen.o)
                0x0013867c                strlen
 .text.strncat  0x001386d8       0xa4 c:/devkitpro/devkitarm/bin/../lib/gcc/arm-none-eabi/4.9.2/../../../../arm-none-eabi/lib/armv6k/fpu\libg.a(lib_a-strncat.o)
                0x001386d8                strncat
 .text.strncmp  0x0013877c      0x110 c:/devkitpro/devkitarm/bin/../lib/gcc/arm-none-eabi/4.9.2/../../../../arm-none-eabi/lib/armv6k/fpu\libg.a(lib_a-strncmp.o)
                0x0013877c                strncmp
 .text.strncpy  0x0013888c       0xe0 c:/devkitpro/devkitarm/bin/../lib/gcc/arm-none-eabi/4.9.2/../../../../arm-none-eabi/lib/armv6k/fpu\libg.a(lib_a-strncpy.o)
                0x0013888c                strncpy
 .text.strrchr  0x0013896c       0x44 c:/devkitpro/devkitarm/bin/../lib/gcc/arm-none-eabi/4.9.2/../../../../arm-none-eabi/lib/armv6k/fpu\libg.a(lib_a-strrchr.o)
                0x0013896c                strrchr
 .text.unlikely.sulp
                0x001389b0       0x58 c:/devkitpro/devkitarm/bin/../lib/gcc/arm-none-eabi/4.9.2/../../../../arm-none-eabi/lib/armv6k/fpu\libg.a(lib_a-strtod.o)
 .text._strtod_r
                0x00138a08     0x13e8 c:/devkitpro/devkitarm/bin/../lib/gcc/arm-none-eabi/4.9.2/../../../../arm-none-eabi/lib/armv6k/fpu\libg.a(lib_a-strtod.o)
                0x00138a08                _strtod_r
 .text.strtod   0x00139df0       0x20 c:/devkitpro/devkitarm/bin/../lib/gcc/arm-none-eabi/4.9.2/../../../../arm-none-eabi/lib/armv6k/fpu\libg.a(lib_a-strtod.o)
                0x00139df0                strtod
 .text.strtof   0x00139e10       0x48 c:/devkitpro/devkitarm/bin/../lib/gcc/arm-none-eabi/4.9.2/../../../../arm-none-eabi/lib/armv6k/fpu\libg.a(lib_a-strtod.o)
                0x00139e10                strtof
 .text.strtoll  0x00139e58       0x28 c:/devkitpro/devkitarm/bin/../lib/gcc/arm-none-eabi/4.9.2/../../../../arm-none-eabi/lib/armv6k/fpu\libg.a(lib_a-strtoll.o)
                0x00139e58                strtoll
 .text._strtoll_r
                0x00139e80      0x2a0 c:/devkitpro/devkitarm/bin/../lib/gcc/arm-none-eabi/4.9.2/../../../../arm-none-eabi/lib/armv6k/fpu\libg.a(lib_a-strtoll_r.o)
                0x00139e80                _strtoll_r
 .text._strtol_r
                0x0013a120      0x1dc c:/devkitpro/devkitarm/bin/../lib/gcc/arm-none-eabi/4.9.2/../../../../arm-none-eabi/lib/armv6k/fpu\libg.a(lib_a-strtol.o)
                0x0013a120                _strtol_r
 .text.strtol   0x0013a2fc       0x28 c:/devkitpro/devkitarm/bin/../lib/gcc/arm-none-eabi/4.9.2/../../../../arm-none-eabi/lib/armv6k/fpu\libg.a(lib_a-strtol.o)
                0x0013a2fc                strtol
 .text.strtoull
                0x0013a324       0x28 c:/devkitpro/devkitarm/bin/../lib/gcc/arm-none-eabi/4.9.2/../../../../arm-none-eabi/lib/armv6k/fpu\libg.a(lib_a-strtoull.o)
                0x0013a324                strtoull
 .text._strtoull_r
                0x0013a34c      0x260 c:/devkitpro/devkitarm/bin/../lib/gcc/arm-none-eabi/4.9.2/../../../../arm-none-eabi/lib/armv6k/fpu\libg.a(lib_a-strtoull_r.o)
                0x0013a34c                _strtoull_r
 .text._strtoul_r
                0x0013a5ac      0x1cc c:/devkitpro/devkitarm/bin/../lib/gcc/arm-none-eabi/4.9.2/../../../../arm-none-eabi/lib/armv6k/fpu\libg.a(lib_a-strtoul.o)
                0x0013a5ac                _strtoul_r
 .text.strtoul  0x0013a778       0x28 c:/devkitpro/devkitarm/bin/../lib/gcc/arm-none-eabi/4.9.2/../../../../arm-none-eabi/lib/armv6k/fpu\libg.a(lib_a-strtoul.o)
                0x0013a778                strtoul
 .text.get_arg  0x0013a7a0      0x860 c:/devkitpro/devkitarm/bin/../lib/gcc/arm-none-eabi/4.9.2/../../../../arm-none-eabi/lib/armv6k/fpu\libg.a(lib_a-svfiprintf.o)
 .text.__ssprint_r
                0x0013b000      0x1a8 c:/devkitpro/devkitarm/bin/../lib/gcc/arm-none-eabi/4.9.2/../../../../arm-none-eabi/lib/armv6k/fpu\libg.a(lib_a-svfiprintf.o)
                0x0013b000                __ssprint_r
 .text._svfiprintf_r
                0x0013b1a8     0x2fdc c:/devkitpro/devkitarm/bin/../lib/gcc/arm-none-eabi/4.9.2/../../../../arm-none-eabi/lib/armv6k/fpu\libg.a(lib_a-svfiprintf.o)
                0x0013b1a8                _svfiprintf_r
 .text.get_arg  0x0013e184      0x860 c:/devkitpro/devkitarm/bin/../lib/gcc/arm-none-eabi/4.9.2/../../../../arm-none-eabi/lib/armv6k/fpu\libg.a(lib_a-svfprintf.o)
 *fill*         0x0013e9e4        0x4 
 .text._svfprintf_r
                0x0013e9e8     0x4320 c:/devkitpro/devkitarm/bin/../lib/gcc/arm-none-eabi/4.9.2/../../../../arm-none-eabi/lib/armv6k/fpu\libg.a(lib_a-svfprintf.o)
                0x0013e9e8                _svfprintf_r
 .text.__ssvfscanf_r
                0x00142d08     0x2aec c:/devkitpro/devkitarm/bin/../lib/gcc/arm-none-eabi/4.9.2/../../../../arm-none-eabi/lib/armv6k/fpu\libg.a(lib_a-svfscanf.o)
                0x00142d08                __ssvfscanf_r
 .text.close    0x001457f4       0x18 c:/devkitpro/devkitarm/bin/../lib/gcc/arm-none-eabi/4.9.2/../../../../arm-none-eabi/lib/armv6k/fpu\libg.a(lib_a-sysclose.o)
                0x001457f4                close
 .text.fstat    0x0014580c       0x20 c:/devkitpro/devkitarm/bin/../lib/gcc/arm-none-eabi/4.9.2/../../../../arm-none-eabi/lib/armv6k/fpu\libg.a(lib_a-sysfstat.o)
                0x0014580c                fstat
 .text.open     0x0014582c       0x40 c:/devkitpro/devkitarm/bin/../lib/gcc/arm-none-eabi/4.9.2/../../../../arm-none-eabi/lib/armv6k/fpu\libg.a(lib_a-sysopen.o)
                0x0014582c                open
 .text.stat     0x0014586c       0x20 c:/devkitpro/devkitarm/bin/../lib/gcc/arm-none-eabi/4.9.2/../../../../arm-none-eabi/lib/armv6k/fpu\libg.a(lib_a-sysstat.o)
                0x0014586c                stat
 .text.write    0x0014588c       0x28 c:/devkitpro/devkitarm/bin/../lib/gcc/arm-none-eabi/4.9.2/../../../../arm-none-eabi/lib/armv6k/fpu\libg.a(lib_a-syswrite.o)
                0x0014588c                write
 .text.time     0x001458b4       0x40 c:/devkitpro/devkitarm/bin/../lib/gcc/arm-none-eabi/4.9.2/../../../../arm-none-eabi/lib/armv6k/fpu\libg.a(lib_a-time.o)
                0x001458b4                time
 .text.get_arg  0x001458f4      0x860 c:/devkitpro/devkitarm/bin/../lib/gcc/arm-none-eabi/4.9.2/../../../../arm-none-eabi/lib/armv6k/fpu\libg.a(lib_a-vfprintf.o)
 *fill*         0x00146154        0x4 
 .text._vfprintf_r
                0x00146158     0x4408 c:/devkitpro/devkitarm/bin/../lib/gcc/arm-none-eabi/4.9.2/../../../../arm-none-eabi/lib/armv6k/fpu\libg.a(lib_a-vfprintf.o)
                0x00146158                _vfprintf_r
 .text.vfprintf
                0x0014a560       0x28 c:/devkitpro/devkitarm/bin/../lib/gcc/arm-none-eabi/4.9.2/../../../../arm-none-eabi/lib/armv6k/fpu\libg.a(lib_a-vfprintf.o)
                0x0014a560                vfprintf
 .text.__sbprintf
                0x0014a588       0xa8 c:/devkitpro/devkitarm/bin/../lib/gcc/arm-none-eabi/4.9.2/../../../../arm-none-eabi/lib/armv6k/fpu\libg.a(lib_a-vfprintf.o)
 .text._vsprintf_r
                0x0014a630       0x4c c:/devkitpro/devkitarm/bin/../lib/gcc/arm-none-eabi/4.9.2/../../../../arm-none-eabi/lib/armv6k/fpu\libg.a(lib_a-vsprintf.o)
                0x0014a630                _vsprintf_r
 .text.vsprintf
                0x0014a67c       0x28 c:/devkitpro/devkitarm/bin/../lib/gcc/arm-none-eabi/4.9.2/../../../../arm-none-eabi/lib/armv6k/fpu\libg.a(lib_a-vsprintf.o)
                0x0014a67c                vsprintf
 .text.__swbuf_r
                0x0014a6a4      0x124 c:/devkitpro/devkitarm/bin/../lib/gcc/arm-none-eabi/4.9.2/../../../../arm-none-eabi/lib/armv6k/fpu\libg.a(lib_a-wbuf.o)
                0x0014a6a4                __swbuf_r
 .text.__swbuf  0x0014a7c8       0x20 c:/devkitpro/devkitarm/bin/../lib/gcc/arm-none-eabi/4.9.2/../../../../arm-none-eabi/lib/armv6k/fpu\libg.a(lib_a-wbuf.o)
                0x0014a7c8                __swbuf
 .text._wcrtomb_r
                0x0014a7e8       0x8c c:/devkitpro/devkitarm/bin/../lib/gcc/arm-none-eabi/4.9.2/../../../../arm-none-eabi/lib/armv6k/fpu\libg.a(lib_a-wcrtomb.o)
                0x0014a7e8                _wcrtomb_r
 .text.wcrtomb  0x0014a874       0x94 c:/devkitpro/devkitarm/bin/../lib/gcc/arm-none-eabi/4.9.2/../../../../arm-none-eabi/lib/armv6k/fpu\libg.a(lib_a-wcrtomb.o)
                0x0014a874                wcrtomb
 .text._wcsrtombs_r
                0x0014a908       0x20 c:/devkitpro/devkitarm/bin/../lib/gcc/arm-none-eabi/4.9.2/../../../../arm-none-eabi/lib/armv6k/fpu\libg.a(lib_a-wcsrtombs.o)
                0x0014a908                _wcsrtombs_r
 .text.wcsrtombs
                0x0014a928       0x3c c:/devkitpro/devkitarm/bin/../lib/gcc/arm-none-eabi/4.9.2/../../../../arm-none-eabi/lib/armv6k/fpu\libg.a(lib_a-wcsrtombs.o)
                0x0014a928                wcsrtombs
 .text.__utf8_wctomb
                0x0014a964      0x114 c:/devkitpro/devkitarm/bin/../lib/gcc/arm-none-eabi/4.9.2/../../../../arm-none-eabi/lib/armv6k/fpu\libg.a(lib_a-wctomb_r.o)
                0x0014a964                __utf8_wctomb
 .text._wctomb_r
                0x0014aa78       0x48 c:/devkitpro/devkitarm/bin/../lib/gcc/arm-none-eabi/4.9.2/../../../../arm-none-eabi/lib/armv6k/fpu\libg.a(lib_a-wctomb_r.o)
                0x0014aa78                _wctomb_r
 .text.__ascii_wctomb
                0x0014aac0       0x28 c:/devkitpro/devkitarm/bin/../lib/gcc/arm-none-eabi/4.9.2/../../../../arm-none-eabi/lib/armv6k/fpu\libg.a(lib_a-wctomb_r.o)
                0x0014aac0                __ascii_wctomb
 .text.__sjis_wctomb
                0x0014aae8       0x84 c:/devkitpro/devkitarm/bin/../lib/gcc/arm-none-eabi/4.9.2/../../../../arm-none-eabi/lib/armv6k/fpu\libg.a(lib_a-wctomb_r.o)
                0x0014aae8                __sjis_wctomb
 .text.__eucjp_wctomb
                0x0014ab6c       0xc8 c:/devkitpro/devkitarm/bin/../lib/gcc/arm-none-eabi/4.9.2/../../../../arm-none-eabi/lib/armv6k/fpu\libg.a(lib_a-wctomb_r.o)
                0x0014ab6c                __eucjp_wctomb
 .text.__jis_wctomb
                0x0014ac34       0xd4 c:/devkitpro/devkitarm/bin/../lib/gcc/arm-none-eabi/4.9.2/../../../../arm-none-eabi/lib/armv6k/fpu\libg.a(lib_a-wctomb_r.o)
                0x0014ac34                __jis_wctomb
 .text.__swsetup_r
                0x0014ad08      0x14c c:/devkitpro/devkitarm/bin/../lib/gcc/arm-none-eabi/4.9.2/../../../../arm-none-eabi/lib/armv6k/fpu\libg.a(lib_a-wsetup.o)
                0x0014ad08                __swsetup_r
 .text.__call_exitprocs
                0x0014ae54      0x15c c:/devkitpro/devkitarm/bin/../lib/gcc/arm-none-eabi/4.9.2/../../../../arm-none-eabi/lib/armv6k/fpu\libg.a(lib_a-__call_atexit.o)
                0x0014ae54                __call_exitprocs
 .text.quorem   0x0014afb0      0x1c0 c:/devkitpro/devkitarm/bin/../lib/gcc/arm-none-eabi/4.9.2/../../../../arm-none-eabi/lib/armv6k/fpu\libg.a(lib_a-dtoa.o)
 .text._dtoa_r  0x0014b170     0x12e0 c:/devkitpro/devkitarm/bin/../lib/gcc/arm-none-eabi/4.9.2/../../../../arm-none-eabi/lib/armv6k/fpu\libg.a(lib_a-dtoa.o)
                0x0014b170                _dtoa_r
 .text.__sflags
                0x0014c450       0xb0 c:/devkitpro/devkitarm/bin/../lib/gcc/arm-none-eabi/4.9.2/../../../../arm-none-eabi/lib/armv6k/fpu\libg.a(lib_a-flags.o)
                0x0014c450                __sflags
 .text.rshift   0x0014c500       0xec c:/devkitpro/devkitarm/bin/../lib/gcc/arm-none-eabi/4.9.2/../../../../arm-none-eabi/lib/armv6k/fpu\libg.a(lib_a-gdtoa-gethex.o)
 .text.__gethex
                0x0014c5ec      0x7e8 c:/devkitpro/devkitarm/bin/../lib/gcc/arm-none-eabi/4.9.2/../../../../arm-none-eabi/lib/armv6k/fpu\libg.a(lib_a-gdtoa-gethex.o)
                0x0014c5ec                __gethex
 .text.__hexnan
                0x0014cdd4      0x260 c:/devkitpro/devkitarm/bin/../lib/gcc/arm-none-eabi/4.9.2/../../../../arm-none-eabi/lib/armv6k/fpu\libg.a(lib_a-gdtoa-hexnan.o)
                0x0014cdd4                __hexnan
 .text.iswspace
                0x0014d034       0x74 c:/devkitpro/devkitarm/bin/../lib/gcc/arm-none-eabi/4.9.2/../../../../arm-none-eabi/lib/armv6k/fpu\libg.a(lib_a-iswspace.o)
                0x0014d034                iswspace
 .text.__jp2uc  0x0014d0a8      0x204 c:/devkitpro/devkitarm/bin/../lib/gcc/arm-none-eabi/4.9.2/../../../../arm-none-eabi/lib/armv6k/fpu\libg.a(lib_a-jp2uc.o)
 .text._jp2uc   0x0014d2ac       0x84 c:/devkitpro/devkitarm/bin/../lib/gcc/arm-none-eabi/4.9.2/../../../../arm-none-eabi/lib/armv6k/fpu\libg.a(lib_a-jp2uc.o)
                0x0014d2ac                _jp2uc
 .text.__get_locale_env
                0x0014d330       0x8c c:/devkitpro/devkitarm/bin/../lib/gcc/arm-none-eabi/4.9.2/../../../../arm-none-eabi/lib/armv6k/fpu\libg.a(lib_a-locale.o)
 .text.loadlocale
                0x0014d3bc      0x8a4 c:/devkitpro/devkitarm/bin/../lib/gcc/arm-none-eabi/4.9.2/../../../../arm-none-eabi/lib/armv6k/fpu\libg.a(lib_a-locale.o)
 .text.currentlocale
                0x0014dc60       0x88 c:/devkitpro/devkitarm/bin/../lib/gcc/arm-none-eabi/4.9.2/../../../../arm-none-eabi/lib/armv6k/fpu\libg.a(lib_a-locale.o)
 .text._setlocale_r
                0x0014dce8      0x300 c:/devkitpro/devkitarm/bin/../lib/gcc/arm-none-eabi/4.9.2/../../../../arm-none-eabi/lib/armv6k/fpu\libg.a(lib_a-locale.o)
                0x0014dce8                _setlocale_r
 .text.__locale_charset
                0x0014dfe8        0xc c:/devkitpro/devkitarm/bin/../lib/gcc/arm-none-eabi/4.9.2/../../../../arm-none-eabi/lib/armv6k/fpu\libg.a(lib_a-locale.o)
                0x0014dfe8                __locale_charset
 .text.__locale_mb_cur_max
                0x0014dff4       0x10 c:/devkitpro/devkitarm/bin/../lib/gcc/arm-none-eabi/4.9.2/../../../../arm-none-eabi/lib/armv6k/fpu\libg.a(lib_a-locale.o)
                0x0014dff4                __locale_mb_cur_max
 .text.__locale_msgcharset
                0x0014e004        0xc c:/devkitpro/devkitarm/bin/../lib/gcc/arm-none-eabi/4.9.2/../../../../arm-none-eabi/lib/armv6k/fpu\libg.a(lib_a-locale.o)
                0x0014e004                __locale_msgcharset
 .text.__locale_cjk_lang
                0x0014e010       0x10 c:/devkitpro/devkitarm/bin/../lib/gcc/arm-none-eabi/4.9.2/../../../../arm-none-eabi/lib/armv6k/fpu\libg.a(lib_a-locale.o)
                0x0014e010                __locale_cjk_lang
 .text._localeconv_r
                0x0014e020        0xc c:/devkitpro/devkitarm/bin/../lib/gcc/arm-none-eabi/4.9.2/../../../../arm-none-eabi/lib/armv6k/fpu\libg.a(lib_a-locale.o)
                0x0014e020                _localeconv_r
 .text.setlocale
                0x0014e02c       0x20 c:/devkitpro/devkitarm/bin/../lib/gcc/arm-none-eabi/4.9.2/../../../../arm-none-eabi/lib/armv6k/fpu\libg.a(lib_a-locale.o)
                0x0014e02c                setlocale
 .text.localeconv
                0x0014e04c       0x14 c:/devkitpro/devkitarm/bin/../lib/gcc/arm-none-eabi/4.9.2/../../../../arm-none-eabi/lib/armv6k/fpu\libg.a(lib_a-locale.o)
                0x0014e04c                localeconv
 .text._mbrtowc_r
                0x0014e060       0x98 c:/devkitpro/devkitarm/bin/../lib/gcc/arm-none-eabi/4.9.2/../../../../arm-none-eabi/lib/armv6k/fpu\libg.a(lib_a-mbrtowc.o)
                0x0014e060                _mbrtowc_r
 .text.mbrtowc  0x0014e0f8       0x9c c:/devkitpro/devkitarm/bin/../lib/gcc/arm-none-eabi/4.9.2/../../../../arm-none-eabi/lib/armv6k/fpu\libg.a(lib_a-mbrtowc.o)
                0x0014e0f8                mbrtowc
 .text.__utf8_mbtowc
                0x0014e194      0x2fc c:/devkitpro/devkitarm/bin/../lib/gcc/arm-none-eabi/4.9.2/../../../../arm-none-eabi/lib/armv6k/fpu\libg.a(lib_a-mbtowc_r.o)
                0x0014e194                __utf8_mbtowc
 .text._mbtowc_r
                0x0014e490       0x4c c:/devkitpro/devkitarm/bin/../lib/gcc/arm-none-eabi/4.9.2/../../../../arm-none-eabi/lib/armv6k/fpu\libg.a(lib_a-mbtowc_r.o)
                0x0014e490                _mbtowc_r
 .text.__ascii_mbtowc
                0x0014e4dc       0x4c c:/devkitpro/devkitarm/bin/../lib/gcc/arm-none-eabi/4.9.2/../../../../arm-none-eabi/lib/armv6k/fpu\libg.a(lib_a-mbtowc_r.o)
                0x0014e4dc                __ascii_mbtowc
 .text.__sjis_mbtowc
                0x0014e528       0xd4 c:/devkitpro/devkitarm/bin/../lib/gcc/arm-none-eabi/4.9.2/../../../../arm-none-eabi/lib/armv6k/fpu\libg.a(lib_a-mbtowc_r.o)
                0x0014e528                __sjis_mbtowc
 .text.__eucjp_mbtowc
                0x0014e5fc      0x140 c:/devkitpro/devkitarm/bin/../lib/gcc/arm-none-eabi/4.9.2/../../../../arm-none-eabi/lib/armv6k/fpu\libg.a(lib_a-mbtowc_r.o)
                0x0014e5fc                __eucjp_mbtowc
 .text.__jis_mbtowc
                0x0014e73c      0x1a8 c:/devkitpro/devkitarm/bin/../lib/gcc/arm-none-eabi/4.9.2/../../../../arm-none-eabi/lib/armv6k/fpu\libg.a(lib_a-mbtowc_r.o)
                0x0014e73c                __jis_mbtowc
 .text._Balloc  0x0014e8e4       0x8c c:/devkitpro/devkitarm/bin/../lib/gcc/arm-none-eabi/4.9.2/../../../../arm-none-eabi/lib/armv6k/fpu\libg.a(lib_a-mprec.o)
                0x0014e8e4                _Balloc
 .text._Bfree   0x0014e970       0x1c c:/devkitpro/devkitarm/bin/../lib/gcc/arm-none-eabi/4.9.2/../../../../arm-none-eabi/lib/armv6k/fpu\libg.a(lib_a-mprec.o)
                0x0014e970                _Bfree
 .text.__multadd
                0x0014e98c       0xd0 c:/devkitpro/devkitarm/bin/../lib/gcc/arm-none-eabi/4.9.2/../../../../arm-none-eabi/lib/armv6k/fpu\libg.a(lib_a-mprec.o)
                0x0014e98c                __multadd
 .text.__s2b    0x0014ea5c       0xe4 c:/devkitpro/devkitarm/bin/../lib/gcc/arm-none-eabi/4.9.2/../../../../arm-none-eabi/lib/armv6k/fpu\libg.a(lib_a-mprec.o)
                0x0014ea5c                __s2b
 .text.__hi0bits
                0x0014eb40       0x5c c:/devkitpro/devkitarm/bin/../lib/gcc/arm-none-eabi/4.9.2/../../../../arm-none-eabi/lib/armv6k/fpu\libg.a(lib_a-mprec.o)
                0x0014eb40                __hi0bits
 .text.__lo0bits
                0x0014eb9c       0x98 c:/devkitpro/devkitarm/bin/../lib/gcc/arm-none-eabi/4.9.2/../../../../arm-none-eabi/lib/armv6k/fpu\libg.a(lib_a-mprec.o)
                0x0014eb9c                __lo0bits
 .text.__i2b    0x0014ec34       0x20 c:/devkitpro/devkitarm/bin/../lib/gcc/arm-none-eabi/4.9.2/../../../../arm-none-eabi/lib/armv6k/fpu\libg.a(lib_a-mprec.o)
                0x0014ec34                __i2b
 .text.__multiply
                0x0014ec54      0x1dc c:/devkitpro/devkitarm/bin/../lib/gcc/arm-none-eabi/4.9.2/../../../../arm-none-eabi/lib/armv6k/fpu\libg.a(lib_a-mprec.o)
                0x0014ec54                __multiply
 .text.__pow5mult
                0x0014ee30      0x100 c:/devkitpro/devkitarm/bin/../lib/gcc/arm-none-eabi/4.9.2/../../../../arm-none-eabi/lib/armv6k/fpu\libg.a(lib_a-mprec.o)
                0x0014ee30                __pow5mult
 .text.__lshift
                0x0014ef30       0xf4 c:/devkitpro/devkitarm/bin/../lib/gcc/arm-none-eabi/4.9.2/../../../../arm-none-eabi/lib/armv6k/fpu\libg.a(lib_a-mprec.o)
                0x0014ef30                __lshift
 .text.__mcmp   0x0014f024       0x64 c:/devkitpro/devkitarm/bin/../lib/gcc/arm-none-eabi/4.9.2/../../../../arm-none-eabi/lib/armv6k/fpu\libg.a(lib_a-mprec.o)
                0x0014f024                __mcmp
 .text.__mdiff  0x0014f088      0x13c c:/devkitpro/devkitarm/bin/../lib/gcc/arm-none-eabi/4.9.2/../../../../arm-none-eabi/lib/armv6k/fpu\libg.a(lib_a-mprec.o)
                0x0014f088                __mdiff
 .text.__ulp    0x0014f1c4       0x74 c:/devkitpro/devkitarm/bin/../lib/gcc/arm-none-eabi/4.9.2/../../../../arm-none-eabi/lib/armv6k/fpu\libg.a(lib_a-mprec.o)
                0x0014f1c4                __ulp
 .text.__b2d    0x0014f238       0xe4 c:/devkitpro/devkitarm/bin/../lib/gcc/arm-none-eabi/4.9.2/../../../../arm-none-eabi/lib/armv6k/fpu\libg.a(lib_a-mprec.o)
                0x0014f238                __b2d
 .text.__d2b    0x0014f31c      0x104 c:/devkitpro/devkitarm/bin/../lib/gcc/arm-none-eabi/4.9.2/../../../../arm-none-eabi/lib/armv6k/fpu\libg.a(lib_a-mprec.o)
                0x0014f31c                __d2b
 .text.__ratio  0x0014f420       0x7c c:/devkitpro/devkitarm/bin/../lib/gcc/arm-none-eabi/4.9.2/../../../../arm-none-eabi/lib/armv6k/fpu\libg.a(lib_a-mprec.o)
                0x0014f420                __ratio
 *fill*         0x0014f49c        0x4 
 .text._mprec_log10
                0x0014f4a0       0x48 c:/devkitpro/devkitarm/bin/../lib/gcc/arm-none-eabi/4.9.2/../../../../arm-none-eabi/lib/armv6k/fpu\libg.a(lib_a-mprec.o)
                0x0014f4a0                _mprec_log10
 .text.__copybits
                0x0014f4e8       0x6c c:/devkitpro/devkitarm/bin/../lib/gcc/arm-none-eabi/4.9.2/../../../../arm-none-eabi/lib/armv6k/fpu\libg.a(lib_a-mprec.o)
                0x0014f4e8                __copybits
 .text.__any_on
                0x0014f554       0x80 c:/devkitpro/devkitarm/bin/../lib/gcc/arm-none-eabi/4.9.2/../../../../arm-none-eabi/lib/armv6k/fpu\libg.a(lib_a-mprec.o)
                0x0014f554                __any_on
 .text.__sccl   0x0014f5d4       0xd8 c:/devkitpro/devkitarm/bin/../lib/gcc/arm-none-eabi/4.9.2/../../../../arm-none-eabi/lib/armv6k/fpu\libg.a(lib_a-sccl.o)
                0x0014f5d4                __sccl
 .text.nanf     0x0014f6ac        0xc c:/devkitpro/devkitarm/bin/../lib/gcc/arm-none-eabi/4.9.2/../../../../arm-none-eabi/lib/armv6k/fpu\libg.a(lib_a-sf_nan.o)
                0x0014f6ac                nanf
 .text.__fpclassifyd
                0x0014f6b8       0x74 c:/devkitpro/devkitarm/bin/../lib/gcc/arm-none-eabi/4.9.2/../../../../arm-none-eabi/lib/armv6k/fpu\libg.a(lib_a-s_fpclassify.o)
                0x0014f6b8                __fpclassifyd
 *fill*         0x0014f72c        0x4 
 .text.frexp    0x0014f730       0x98 c:/devkitpro/devkitarm/bin/../lib/gcc/arm-none-eabi/4.9.2/../../../../arm-none-eabi/lib/armv6k/fpu\libg.a(lib_a-s_frexp.o)
                0x0014f730                frexp
 .text.stpncpy  0x0014f7c8      0x108 c:/devkitpro/devkitarm/bin/../lib/gcc/arm-none-eabi/4.9.2/../../../../arm-none-eabi/lib/armv6k/fpu\libg.a(lib_a-stpncpy.o)
                0x0014f7c8                stpncpy
 .text.strlcpy  0x0014f8d0       0x48 c:/devkitpro/devkitarm/bin/../lib/gcc/arm-none-eabi/4.9.2/../../../../arm-none-eabi/lib/armv6k/fpu\libg.a(lib_a-strlcpy.o)
                0x0014f8d0                strlcpy
 .text.strncasecmp
                0x0014f918       0x8c c:/devkitpro/devkitarm/bin/../lib/gcc/arm-none-eabi/4.9.2/../../../../arm-none-eabi/lib/armv6k/fpu\libg.a(lib_a-strncasecmp.o)
                0x0014f918                strncasecmp
 .text._sungetc_r
                0x0014f9a4       0xf0 c:/devkitpro/devkitarm/bin/../lib/gcc/arm-none-eabi/4.9.2/../../../../arm-none-eabi/lib/armv6k/fpu\libg.a(lib_a-svfiscanf.o)
                0x0014f9a4                _sungetc_r
 .text.__ssrefill_r
                0x0014fa94       0x6c c:/devkitpro/devkitarm/bin/../lib/gcc/arm-none-eabi/4.9.2/../../../../arm-none-eabi/lib/armv6k/fpu\libg.a(lib_a-svfiscanf.o)
                0x0014fa94                __ssrefill_r
 .text._sfread_r
                0x0014fb00       0xc0 c:/devkitpro/devkitarm/bin/../lib/gcc/arm-none-eabi/4.9.2/../../../../arm-none-eabi/lib/armv6k/fpu\libg.a(lib_a-svfiscanf.o)
                0x0014fb00                _sfread_r
 .text.__ssvfiscanf_r
                0x0014fbc0     0x213c c:/devkitpro/devkitarm/bin/../lib/gcc/arm-none-eabi/4.9.2/../../../../arm-none-eabi/lib/armv6k/fpu\libg.a(lib_a-svfiscanf.o)
                0x0014fbc0                __ssvfiscanf_r
 .text.__submore
                0x00151cfc       0xa8 c:/devkitpro/devkitarm/bin/../lib/gcc/arm-none-eabi/4.9.2/../../../../arm-none-eabi/lib/armv6k/fpu\libg.a(lib_a-ungetc.o)
                0x00151cfc                __submore
 .text._ungetc_r
                0x00151da4      0x238 c:/devkitpro/devkitarm/bin/../lib/gcc/arm-none-eabi/4.9.2/../../../../arm-none-eabi/lib/armv6k/fpu\libg.a(lib_a-ungetc.o)
                0x00151da4                _ungetc_r
 .text.ungetc   0x00151fdc       0x20 c:/devkitpro/devkitarm/bin/../lib/gcc/arm-none-eabi/4.9.2/../../../../arm-none-eabi/lib/armv6k/fpu\libg.a(lib_a-ungetc.o)
                0x00151fdc                ungetc
 .text.get_arg  0x00151ffc      0x860 c:/devkitpro/devkitarm/bin/../lib/gcc/arm-none-eabi/4.9.2/../../../../arm-none-eabi/lib/armv6k/fpu\libg.a(lib_a-vfiprintf.o)
 .text.__sprint_r.part.0
                0x0015285c       0xa4 c:/devkitpro/devkitarm/bin/../lib/gcc/arm-none-eabi/4.9.2/../../../../arm-none-eabi/lib/armv6k/fpu\libg.a(lib_a-vfiprintf.o)
 .text.__sprint_r
                0x00152900       0x1c c:/devkitpro/devkitarm/bin/../lib/gcc/arm-none-eabi/4.9.2/../../../../arm-none-eabi/lib/armv6k/fpu\libg.a(lib_a-vfiprintf.o)
                0x00152900                __sprint_r
 .text._vfiprintf_r
                0x0015291c     0x3114 c:/devkitpro/devkitarm/bin/../lib/gcc/arm-none-eabi/4.9.2/../../../../arm-none-eabi/lib/armv6k/fpu\libg.a(lib_a-vfiprintf.o)
                0x0015291c                _vfiprintf_r
 .text.vfiprintf
                0x00155a30       0x28 c:/devkitpro/devkitarm/bin/../lib/gcc/arm-none-eabi/4.9.2/../../../../arm-none-eabi/lib/armv6k/fpu\libg.a(lib_a-vfiprintf.o)
                0x00155a30                vfiprintf
 .text.__sbprintf
                0x00155a58       0xa8 c:/devkitpro/devkitarm/bin/../lib/gcc/arm-none-eabi/4.9.2/../../../../arm-none-eabi/lib/armv6k/fpu\libg.a(lib_a-vfiprintf.o)
 .text._wcsnrtombs_r
                0x00155b00      0x184 c:/devkitpro/devkitarm/bin/../lib/gcc/arm-none-eabi/4.9.2/../../../../arm-none-eabi/lib/armv6k/fpu\libg.a(lib_a-wcsnrtombs.o)
                0x00155b00                _wcsnrtombs_r
 .text.wcsnrtombs
                0x00155c84       0x40 c:/devkitpro/devkitarm/bin/../lib/gcc/arm-none-eabi/4.9.2/../../../../arm-none-eabi/lib/armv6k/fpu\libg.a(lib_a-wcsnrtombs.o)
                0x00155c84                wcsnrtombs
 .text.__fputwc
                0x00155cc4      0x124 c:/devkitpro/devkitarm/bin/../lib/gcc/arm-none-eabi/4.9.2/../../../../arm-none-eabi/lib/armv6k/fpu\libg.a(lib_a-fputwc.o)
                0x00155cc4                __fputwc
 .text._fputwc_r
                0x00155de8       0xa8 c:/devkitpro/devkitarm/bin/../lib/gcc/arm-none-eabi/4.9.2/../../../../arm-none-eabi/lib/armv6k/fpu\libg.a(lib_a-fputwc.o)
                0x00155de8                _fputwc_r
 .text.fputwc   0x00155e90       0x3c c:/devkitpro/devkitarm/bin/../lib/gcc/arm-none-eabi/4.9.2/../../../../arm-none-eabi/lib/armv6k/fpu\libg.a(lib_a-fputwc.o)
                0x00155e90                fputwc
 .text._findenv_r
                0x00155ecc       0xc8 c:/devkitpro/devkitarm/bin/../lib/gcc/arm-none-eabi/4.9.2/../../../../arm-none-eabi/lib/armv6k/fpu\libg.a(lib_a-getenv_r.o)
                0x00155ecc                _findenv_r
 .text._getenv_r
                0x00155f94       0x18 c:/devkitpro/devkitarm/bin/../lib/gcc/arm-none-eabi/4.9.2/../../../../arm-none-eabi/lib/armv6k/fpu\libg.a(lib_a-getenv_r.o)
                0x00155f94                _getenv_r
 .text.__env_lock
                0x00155fac        0x4 c:/devkitpro/devkitarm/bin/../lib/gcc/arm-none-eabi/4.9.2/../../../../arm-none-eabi/lib/armv6k/fpu\libg.a(lib_a-envlock.o)
                0x00155fac                __env_lock
 .text.__env_unlock
                0x00155fb0        0x4 c:/devkitpro/devkitarm/bin/../lib/gcc/arm-none-eabi/4.9.2/../../../../arm-none-eabi/lib/armv6k/fpu\libg.a(lib_a-envlock.o)
                0x00155fb0                __env_unlock
 .text.strnlen  0x00155fb4       0x5c c:/devkitpro/devkitarm/bin/../lib/gcc/arm-none-eabi/4.9.2/../../../../arm-none-eabi/lib/armv6k/fpu\libg.a(lib_a-strnlen.o)
                0x00155fb4                strnlen
 *(.glue_7)
 .glue_7        0x00156010        0x0 linker stubs
 *(.glue_7t)
 .glue_7t       0x00156010        0x0 linker stubs
 *(.stub)
 *(.gnu.warning)
 *(.gnu.linkonce.t*)
                0x00156010                . = ALIGN (0x4)
 *(.fini)
 .fini          0x00156010        0xc c:/devkitpro/devkitarm/bin/../lib/gcc/arm-none-eabi/4.9.2/armv6k/fpu/crti.o
                0x00156010                _fini
 .fini          0x0015601c        0xc c:/devkitpro/devkitarm/bin/../lib/gcc/arm-none-eabi/4.9.2/armv6k/fpu/crtn.o
                0x00156028                . = ALIGN (0x4)

.vfp11_veneer   0x00156028        0x0
 .vfp11_veneer  0x00156028        0x0 linker stubs

.v4_bx          0x00156028        0x0
 .v4_bx         0x00156028        0x0 linker stubs

.iplt           0x00156028        0x0
 .iplt          0x00156028        0x0 c:/devkitpro/devkitarm/bin/../lib/gcc/arm-none-eabi/4.9.2/../../../../arm-none-eabi/lib/armv6k/fpu/3dsx_crt0.o

.rodata         0x00157000    0x1237c
 *(.rodata)
 .rodata        0x00157000     0x8004 font.bin.o
                0x00157000                font_bin
                0x0015f000                font_bin_size
                0x0015f000                font_bin_end
 *fill*         0x0015f004        0x4 
 .rodata        0x0015f008      0x288 tinyxml2.o
                0x0015f060                vtable for tinyxml2::XMLDeclaration
                0x0015f0b0                vtable for tinyxml2::XMLComment
                0x0015f100                vtable for tinyxml2::XMLText
                0x0015f150                vtable for tinyxml2::XMLUnknown
                0x0015f1a0                vtable for tinyxml2::XMLElement
                0x0015f1f0                vtable for tinyxml2::XMLNode
                0x0015f240                vtable for tinyxml2::XMLDocument
 .rodata        0x0015f290      0x174 khaxinit.o
                0x0015f2a4                KHAX::VersionData::s_versionTable
 .rodata        0x0015f404        0x4 gfx.o
 .rodata        0x0015f408        0x4 menu_boot.o
 .rodata        0x0015f40c        0x4 menu_config.o
 .rodata        0x0015f410        0x4 menu_more.o
 .rodata        0x0015f414        0x4 menu_picker.o
 .rodata        0x0015f418      0x1e4 brahma.o
 .rodata        0x0015f5fc      0xc00 c:/devkitPro/portlibs/armv6k/lib\libconfig.a(libconfig_la-scanner.o)
 .rodata        0x001601fc      0x238 c:/devkitPro/portlibs/armv6k/lib\libconfig.a(libconfig_la-grammar.o)
 .rodata        0x00160434       0x14 c:/devkitPro/libctru/lib\libctru.a(gfx.o)
 .rodata        0x00160448       0x2c c:/devkitPro/libctru/lib\libctru.a(os.o)
 .rodata        0x00160474       0x30 c:/devkitPro/libctru/lib\libctru.a(sdmc_dev.o)
 .rodata        0x001604a4        0xc c:/devkitPro/libctru/lib\libctru.a(apt.o)
 .rodata        0x001604b0       0x50 c:/devkitPro/libctru/lib\libctru.a(soc_common.o)
 .rodata        0x00160500      0x8a8 c:/devkitPro/portlibs/armv6k/lib\libz.a(inflate.o)
 .rodata        0x00160da8      0x130 c:/devkitPro/portlibs/armv6k/lib\libz.a(inftrees.o)
                0x00160ea8                inflate_copyright
 .rodata        0x00160ed8       0x28 c:/devkitPro/portlibs/armv6k/lib\libz.a(zutil.o)
                0x00160ed8                z_errmsg
 .rodata        0x00160f00     0x2000 c:/devkitPro/portlibs/armv6k/lib\libz.a(crc32.o)
 .rodata        0x00162f00      0x738 c:/devkitpro/devkitarm/bin/../lib/gcc/arm-none-eabi/4.9.2/../../../../arm-none-eabi/lib/armv6k/fpu\libstdc++.a(cp-demangle.o)
 .rodata        0x00163638       0x68 c:/devkitpro/devkitarm/bin/../lib/gcc/arm-none-eabi/4.9.2/../../../../arm-none-eabi/lib/armv6k/fpu\libsysbase.a(iosupport.o)
                0x00163638                dotab_stdnull
 .rodata        0x001636a0        0xc c:/devkitpro/devkitarm/bin/../lib/gcc/arm-none-eabi/4.9.2/../../../../arm-none-eabi/lib/armv6k/fpu\libsysbase.a(chdir.o)
                0x001636a0                DIRECTORY_PARENT
                0x001636a4                DIRECTORY_THIS
                0x001636a8                DIRECTORY_SEPARATOR
 *(.roda)
 *(.rodata.*)
 .rodata.str1.4
                0x001636ac       0x51 descriptor.o
                                 0x54 (size before relaxing)
 *fill*         0x001636fd        0x3 
 .rodata._ZTVN8tinyxml212XMLAttributeE
                0x00163700       0x10 tinyxml2.o
                0x00163700                vtable for tinyxml2::XMLAttribute
 .rodata._ZTVN8tinyxml28MemPoolTILi52EEE
                0x00163710       0x28 tinyxml2.o
                0x00163710                vtable for tinyxml2::MemPoolT<52>
 .rodata._ZTVN8tinyxml28MemPoolTILi36EEE
                0x00163738       0x28 tinyxml2.o
                0x00163738                vtable for tinyxml2::MemPoolT<36>
 .rodata._ZTVN8tinyxml28MemPoolTILi48EEE
                0x00163760       0x28 tinyxml2.o
                0x00163760                vtable for tinyxml2::MemPoolT<48>
 .rodata._ZTVN8tinyxml28MemPoolTILi44EEE
                0x00163788       0x28 tinyxml2.o
                0x00163788                vtable for tinyxml2::MemPoolT<44>
 .rodata.str1.4
                0x001637b0      0x2dd tinyxml2.o
                                0x2e8 (size before relaxing)
 *fill*         0x00163a8d        0x3 
 .rodata.str1.4
                0x00163a90        0x8 boot.o
 .rodata.str1.4
                0x00163a98      0x1bb config.o
                                0x1cc (size before relaxing)
 *fill*         0x00163c53        0x1 
 .rodata.str1.4
                0x00163c54       0xde loader.o
                                 0xe4 (size before relaxing)
 *fill*         0x00163d32        0x2 
 .rodata.str1.4
                0x00163d34        0xb main.o
                                 0x10 (size before relaxing)
 *fill*         0x00163d3f        0x1 
 .rodata.str1.4
                0x00163d40       0xd6 menu_boot.o
                                 0xdc (size before relaxing)
 *fill*         0x00163e16        0x2 
 .rodata.str1.4
                0x00163e18       0x5e menu_config.o
                                 0x60 (size before relaxing)
 *fill*         0x00163e76        0x2 
 .rodata.str1.4
                0x00163e78       0xc4 menu_more.o
                                 0xd4 (size before relaxing)
 .rodata.str1.4
                0x00163f3c      0x1fa menu_netloader.o
                                0x204 (size before relaxing)
 *fill*         0x00164136        0x2 
 .rodata.str1.4
                0x00164138       0xf2 menu_picker.o
                                0x120 (size before relaxing)
 *fill*         0x0016422a        0x2 
 .rodata.str1.4
                0x0016422c       0x2b scanner.o
                                 0x38 (size before relaxing)
 *fill*         0x00164257        0x1 
 .rodata.str1.4
                0x00164258       0xe4 utility.o
                                 0xfc (size before relaxing)
 .rodata.str1.4
                0x0016433c       0xce brahma.o
                                 0xd4 (size before relaxing)
 *fill*         0x0016440a        0x2 
 .rodata.str1.4
                0x0016440c       0x74 c:/devkitPro/portlibs/armv6k/lib\libconfig.a(libconfig_la-libconfig.o)
                                 0x90 (size before relaxing)
 .rodata.str1.4
                0x00164480      0x25d c:/devkitPro/portlibs/armv6k/lib\libconfig.a(libconfig_la-scanner.o)
                                0x268 (size before relaxing)
 *fill*         0x001646dd        0x3 
 .rodata.str1.4
                0x001646e0       0x5d c:/devkitPro/portlibs/armv6k/lib\libconfig.a(libconfig_la-grammar.o)
                                 0x60 (size before relaxing)
 *fill*         0x0016473d        0x3 
 .rodata.str1.4
                0x00164740       0x39 c:/devkitPro/portlibs/armv6k/lib\libconfig.a(libconfig_la-scanctx.o)
                                 0x44 (size before relaxing)
 *fill*         0x00164779        0x3 
 .rodata.str1.4
                0x0016477c       0xc4 c:/devkitPro/libctru/lib\libctru.a(os.o)
 .rodata.str1.4
                0x00164840        0x5 c:/devkitPro/libctru/lib\libctru.a(sdmc_dev.o)
                                  0xc (size before relaxing)
 *fill*         0x00164845        0x3 
 .rodata.str1.4
                0x00164848        0xf c:/devkitPro/libctru/lib\libctru.a(srv.o)
                                 0x10 (size before relaxing)
 *fill*         0x00164857        0x1 
 .rodata.str1.4
                0x00164858        0xd c:/devkitPro/libctru/lib\libctru.a(ac.o)
                                 0x10 (size before relaxing)
 *fill*         0x00164865        0x3 
 .rodata.str1.4
                0x00164868       0x1f c:/devkitPro/libctru/lib\libctru.a(am.o)
                                 0x24 (size before relaxing)
 *fill*         0x00164887        0x1 
 .rodata.str1.4
                0x00164888       0x16 c:/devkitPro/libctru/lib\libctru.a(apt.o)
                                 0x18 (size before relaxing)
 *fill*         0x0016489e        0x2 
 .rodata.str1.4
                0x001648a0        0x8 c:/devkitPro/libctru/lib\libctru.a(fs.o)
 .rodata.str1.4
                0x001648a8       0x15 c:/devkitPro/libctru/lib\libctru.a(gsp.o)
                                 0x18 (size before relaxing)
 *fill*         0x001648bd        0x3 
 .rodata.str1.4
                0x001648c0        0x6 c:/devkitPro/libctru/lib\libctru.a(hb.o)
                                  0x8 (size before relaxing)
 *fill*         0x001648c6        0x2 
 .rodata.str1.4
                0x001648c8       0x15 c:/devkitPro/libctru/lib\libctru.a(hid.o)
                                 0x18 (size before relaxing)
 *fill*         0x001648dd        0x3 
 .rodata.str1.4
                0x001648e0        0x7 c:/devkitPro/libctru/lib\libctru.a(irrst.o)
                                  0x8 (size before relaxing)
 *fill*         0x001648e7        0x1 
 .rodata.str1.4
                0x001648e8       0x11 c:/devkitPro/libctru/lib\libctru.a(ptm.o)
                                 0x14 (size before relaxing)
 *fill*         0x001648f9        0x3 
 .rodata.str1.4
                0x001648fc        0x9 c:/devkitPro/libctru/lib\libctru.a(soc_accept.o)
                                  0xc (size before relaxing)
 .rodata.str1.4
                0x00164905        0x4 c:/devkitPro/libctru/lib\libctru.a(soc_bind.o)
 .rodata.str1.4
                0x00164905        0x4 c:/devkitPro/libctru/lib\libctru.a(soc_closesocket.o)
 .rodata.str1.4
                0x00164905        0x4 c:/devkitPro/libctru/lib\libctru.a(soc_fcntl.o)
 .rodata.str1.4
                0x00164905       0x14 c:/devkitPro/libctru/lib\libctru.a(soc_init.o)
 .rodata.str1.4
                0x00164905        0x4 c:/devkitPro/libctru/lib\libctru.a(soc_listen.o)
 .rodata.str1.4
                0x00164905        0x4 c:/devkitPro/libctru/lib\libctru.a(soc_recvfrom.o)
 .rodata.str1.4
                0x00164905        0x4 c:/devkitPro/libctru/lib\libctru.a(soc_sendto.o)
 .rodata.str1.4
                0x00164905        0x8 c:/devkitPro/libctru/lib\libctru.a(soc_socket.o)
 *fill*         0x00164905        0x3 
 .rodata.str1.4
                0x00164908      0x1e7 c:/devkitPro/portlibs/armv6k/lib\libz.a(inflate.o)
                                0x1e8 (size before relaxing)
 *fill*         0x00164aef        0x1 
 .rodata.str1.4
                0x00164af0       0x7d c:/devkitPro/portlibs/armv6k/lib\libz.a(zutil.o)
                                 0x8c (size before relaxing)
 .rodata.str1.4
                0x00164b6d       0x54 c:/devkitPro/portlibs/armv6k/lib\libz.a(inffast.o)
 *fill*         0x00164b6d        0x3 
 .rodata._ZSt7nothrow
                0x00164b70        0x4 c:/devkitpro/devkitarm/bin/../lib/gcc/arm-none-eabi/4.9.2/../../../../arm-none-eabi/lib/armv6k/fpu\libstdc++.a(new_handler.o)
                0x00164b70                std::nothrow
 *fill*         0x00164b74        0x4 
 .rodata._ZTVN10__cxxabiv115__forced_unwindE
                0x00164b78       0x18 c:/devkitpro/devkitarm/bin/../lib/gcc/arm-none-eabi/4.9.2/../../../../arm-none-eabi/lib/armv6k/fpu\libstdc++.a(eh_exception.o)
                0x00164b78                vtable for __cxxabiv1::__forced_unwind
 .rodata._ZTVN10__cxxabiv119__foreign_exceptionE
                0x00164b90       0x18 c:/devkitpro/devkitarm/bin/../lib/gcc/arm-none-eabi/4.9.2/../../../../arm-none-eabi/lib/armv6k/fpu\libstdc++.a(eh_exception.o)
                0x00164b90                vtable for __cxxabiv1::__foreign_exception
 .rodata._ZTSN10__cxxabiv115__forced_unwindE
                0x00164ba8       0x20 c:/devkitpro/devkitarm/bin/../lib/gcc/arm-none-eabi/4.9.2/../../../../arm-none-eabi/lib/armv6k/fpu\libstdc++.a(eh_exception.o)
                0x00164ba8                typeinfo name for __cxxabiv1::__forced_unwind
 .rodata._ZTIN10__cxxabiv115__forced_unwindE
                0x00164bc8        0x8 c:/devkitpro/devkitarm/bin/../lib/gcc/arm-none-eabi/4.9.2/../../../../arm-none-eabi/lib/armv6k/fpu\libstdc++.a(eh_exception.o)
                0x00164bc8                typeinfo for __cxxabiv1::__forced_unwind
 .rodata._ZTISt9exception
                0x00164bd0        0x8 c:/devkitpro/devkitarm/bin/../lib/gcc/arm-none-eabi/4.9.2/../../../../arm-none-eabi/lib/armv6k/fpu\libstdc++.a(eh_exception.o)
                0x00164bd0                typeinfo for std::exception
 .rodata._ZTSN10__cxxabiv119__foreign_exceptionE
                0x00164bd8       0x24 c:/devkitpro/devkitarm/bin/../lib/gcc/arm-none-eabi/4.9.2/../../../../arm-none-eabi/lib/armv6k/fpu\libstdc++.a(eh_exception.o)
                0x00164bd8                typeinfo name for __cxxabiv1::__foreign_exception
 .rodata.str1.4
                0x00164bfc       0x23 c:/devkitpro/devkitarm/bin/../lib/gcc/arm-none-eabi/4.9.2/../../../../arm-none-eabi/lib/armv6k/fpu\libstdc++.a(eh_exception.o)
                                 0x24 (size before relaxing)
 *fill*         0x00164c1f        0x1 
 .rodata._ZTIN10__cxxabiv119__foreign_exceptionE
                0x00164c20        0x8 c:/devkitpro/devkitarm/bin/../lib/gcc/arm-none-eabi/4.9.2/../../../../arm-none-eabi/lib/armv6k/fpu\libstdc++.a(eh_exception.o)
                0x00164c20                typeinfo for __cxxabiv1::__foreign_exception
 .rodata._ZTVSt9exception
                0x00164c28       0x18 c:/devkitpro/devkitarm/bin/../lib/gcc/arm-none-eabi/4.9.2/../../../../arm-none-eabi/lib/armv6k/fpu\libstdc++.a(eh_exception.o)
                0x00164c28                vtable for std::exception
 .rodata._ZTVSt13bad_exception
                0x00164c40       0x18 c:/devkitpro/devkitarm/bin/../lib/gcc/arm-none-eabi/4.9.2/../../../../arm-none-eabi/lib/armv6k/fpu\libstdc++.a(eh_exception.o)
                0x00164c40                vtable for std::bad_exception
 .rodata._ZTSSt9exception
                0x00164c58       0x10 c:/devkitpro/devkitarm/bin/../lib/gcc/arm-none-eabi/4.9.2/../../../../arm-none-eabi/lib/armv6k/fpu\libstdc++.a(eh_exception.o)
                0x00164c58                typeinfo name for std::exception
 .rodata._ZTSSt13bad_exception
                0x00164c68       0x14 c:/devkitpro/devkitarm/bin/../lib/gcc/arm-none-eabi/4.9.2/../../../../arm-none-eabi/lib/armv6k/fpu\libstdc++.a(eh_exception.o)
                0x00164c68                typeinfo name for std::bad_exception
 .rodata._ZTISt13bad_exception
                0x00164c7c        0xc c:/devkitpro/devkitarm/bin/../lib/gcc/arm-none-eabi/4.9.2/../../../../arm-none-eabi/lib/armv6k/fpu\libstdc++.a(eh_exception.o)
                0x00164c7c                typeinfo for std::bad_exception
 .rodata._ZTVN10__cxxabiv120__si_class_type_infoE
                0x00164c88       0x30 c:/devkitpro/devkitarm/bin/../lib/gcc/arm-none-eabi/4.9.2/../../../../arm-none-eabi/lib/armv6k/fpu\libstdc++.a(si_class_type_info.o)
                0x00164c88                vtable for __cxxabiv1::__si_class_type_info
 .rodata._ZTIN10__cxxabiv120__si_class_type_infoE
                0x00164cb8        0xc c:/devkitpro/devkitarm/bin/../lib/gcc/arm-none-eabi/4.9.2/../../../../arm-none-eabi/lib/armv6k/fpu\libstdc++.a(si_class_type_info.o)
                0x00164cb8                typeinfo for __cxxabiv1::__si_class_type_info
 .rodata._ZTSN10__cxxabiv120__si_class_type_infoE
                0x00164cc4       0x28 c:/devkitpro/devkitarm/bin/../lib/gcc/arm-none-eabi/4.9.2/../../../../arm-none-eabi/lib/armv6k/fpu\libstdc++.a(si_class_type_info.o)
                0x00164cc4                typeinfo name for __cxxabiv1::__si_class_type_info
 .rodata._ZTISt9type_info
                0x00164cec        0x8 c:/devkitpro/devkitarm/bin/../lib/gcc/arm-none-eabi/4.9.2/../../../../arm-none-eabi/lib/armv6k/fpu\libstdc++.a(tinfo.o)
                0x00164cec                typeinfo for std::type_info
 .rodata._ZTSSt9type_info
                0x00164cf4       0x10 c:/devkitpro/devkitarm/bin/../lib/gcc/arm-none-eabi/4.9.2/../../../../arm-none-eabi/lib/armv6k/fpu\libstdc++.a(tinfo.o)
                0x00164cf4                typeinfo name for std::type_info
 *fill*         0x00164d04        0x4 
 .rodata._ZTVSt9type_info
                0x00164d08       0x20 c:/devkitpro/devkitarm/bin/../lib/gcc/arm-none-eabi/4.9.2/../../../../arm-none-eabi/lib/armv6k/fpu\libstdc++.a(tinfo.o)
                0x00164d08                vtable for std::type_info
 .rodata.str1.4
                0x00164d28       0x3b c:/devkitpro/devkitarm/bin/../lib/gcc/arm-none-eabi/4.9.2/../../../../arm-none-eabi/lib/armv6k/fpu\libstdc++.a(pure.o)
                                 0x3c (size before relaxing)
 *fill*         0x00164d63        0x5 
 .rodata._ZTVN10__cxxabiv117__class_type_infoE
                0x00164d68       0x30 c:/devkitpro/devkitarm/bin/../lib/gcc/arm-none-eabi/4.9.2/../../../../arm-none-eabi/lib/armv6k/fpu\libstdc++.a(class_type_info.o)
                0x00164d68                vtable for __cxxabiv1::__class_type_info
 .rodata._ZTIN10__cxxabiv117__class_type_infoE
                0x00164d98        0xc c:/devkitpro/devkitarm/bin/../lib/gcc/arm-none-eabi/4.9.2/../../../../arm-none-eabi/lib/armv6k/fpu\libstdc++.a(class_type_info.o)
                0x00164d98                typeinfo for __cxxabiv1::__class_type_info
 .rodata._ZTSN10__cxxabiv117__class_type_infoE
                0x00164da4       0x24 c:/devkitpro/devkitarm/bin/../lib/gcc/arm-none-eabi/4.9.2/../../../../arm-none-eabi/lib/armv6k/fpu\libstdc++.a(class_type_info.o)
                0x00164da4                typeinfo name for __cxxabiv1::__class_type_info
 .rodata._ZTVSt9bad_alloc
                0x00164dc8       0x18 c:/devkitpro/devkitarm/bin/../lib/gcc/arm-none-eabi/4.9.2/../../../../arm-none-eabi/lib/armv6k/fpu\libstdc++.a(bad_alloc.o)
                0x00164dc8                vtable for std::bad_alloc
 .rodata._ZTISt9bad_alloc
                0x00164de0        0xc c:/devkitpro/devkitarm/bin/../lib/gcc/arm-none-eabi/4.9.2/../../../../arm-none-eabi/lib/armv6k/fpu\libstdc++.a(bad_alloc.o)
                0x00164de0                typeinfo for std::bad_alloc
 .rodata.str1.4
                0x00164dec        0xf c:/devkitpro/devkitarm/bin/../lib/gcc/arm-none-eabi/4.9.2/../../../../arm-none-eabi/lib/armv6k/fpu\libstdc++.a(bad_alloc.o)
                                 0x10 (size before relaxing)
 *fill*         0x00164dfb        0x1 
 .rodata._ZTSSt9bad_alloc
                0x00164dfc       0x10 c:/devkitpro/devkitarm/bin/../lib/gcc/arm-none-eabi/4.9.2/../../../../arm-none-eabi/lib/armv6k/fpu\libstdc++.a(bad_alloc.o)
                0x00164dfc                typeinfo name for std::bad_alloc
 .rodata.str1.4
                0x00164e0c       0x94 c:/devkitpro/devkitarm/bin/../lib/gcc/arm-none-eabi/4.9.2/../../../../arm-none-eabi/lib/armv6k/fpu\libstdc++.a(vterminate.o)
 .rodata.str1.4
                0x00164ea0      0x7a6 c:/devkitpro/devkitarm/bin/../lib/gcc/arm-none-eabi/4.9.2/../../../../arm-none-eabi/lib/armv6k/fpu\libstdc++.a(cp-demangle.o)
                                0x840 (size before relaxing)
 *fill*         0x00165646        0x2 
 .rodata._ctype_
                0x00165648      0x104 c:/devkitpro/devkitarm/bin/../lib/gcc/arm-none-eabi/4.9.2/../../../../arm-none-eabi/lib/armv6k/fpu\libg.a(lib_a-ctype_.o)
                0x00165648                _ctype_
 .rodata.str1.4
                0x0016574c        0x2 c:/devkitpro/devkitarm/bin/../lib/gcc/arm-none-eabi/4.9.2/../../../../arm-none-eabi/lib/armv6k/fpu\libg.a(lib_a-impure.o)
                                  0x4 (size before relaxing)
 *fill*         0x0016574e        0x2 
 .rodata._global_impure_ptr
                0x00165750        0x4 c:/devkitpro/devkitarm/bin/../lib/gcc/arm-none-eabi/4.9.2/../../../../arm-none-eabi/lib/armv6k/fpu\libg.a(lib_a-impure.o)
                0x00165750                _global_impure_ptr
 .rodata.str1.4
                0x00165754        0x4 c:/devkitpro/devkitarm/bin/../lib/gcc/arm-none-eabi/4.9.2/../../../../arm-none-eabi/lib/armv6k/fpu\libg.a(lib_a-puts.o)
 .rodata.fpinan.5303
                0x00165754       0x14 c:/devkitpro/devkitarm/bin/../lib/gcc/arm-none-eabi/4.9.2/../../../../arm-none-eabi/lib/armv6k/fpu\libg.a(lib_a-strtod.o)
 .rodata.str1.4
                0x00165768        0xa c:/devkitpro/devkitarm/bin/../lib/gcc/arm-none-eabi/4.9.2/../../../../arm-none-eabi/lib/armv6k/fpu\libg.a(lib_a-strtod.o)
                                 0x10 (size before relaxing)
 *fill*         0x00165772        0x6 
 .rodata.tinytens
                0x00165778       0x28 c:/devkitpro/devkitarm/bin/../lib/gcc/arm-none-eabi/4.9.2/../../../../arm-none-eabi/lib/armv6k/fpu\libg.a(lib_a-strtod.o)
 .rodata.fpi.5267
                0x001657a0       0x14 c:/devkitpro/devkitarm/bin/../lib/gcc/arm-none-eabi/4.9.2/../../../../arm-none-eabi/lib/armv6k/fpu\libg.a(lib_a-strtod.o)
 .rodata.__state_table
                0x001657b4       0x6c c:/devkitpro/devkitarm/bin/../lib/gcc/arm-none-eabi/4.9.2/../../../../arm-none-eabi/lib/armv6k/fpu\libg.a(lib_a-svfiprintf.o)
                0x001657b4                __state_table
 .rodata.blanks.7015
                0x00165820       0x10 c:/devkitpro/devkitarm/bin/../lib/gcc/arm-none-eabi/4.9.2/../../../../arm-none-eabi/lib/armv6k/fpu\libg.a(lib_a-svfiprintf.o)
 .rodata.__chclass
                0x00165830      0x100 c:/devkitpro/devkitarm/bin/../lib/gcc/arm-none-eabi/4.9.2/../../../../arm-none-eabi/lib/armv6k/fpu\libg.a(lib_a-svfiprintf.o)
                0x00165830                __chclass
 .rodata.str1.4
                0x00165930       0x2f c:/devkitpro/devkitarm/bin/../lib/gcc/arm-none-eabi/4.9.2/../../../../arm-none-eabi/lib/armv6k/fpu\libg.a(lib_a-svfiprintf.o)
                                 0x30 (size before relaxing)
 *fill*         0x0016595f        0x1 
 .rodata.__action_table
                0x00165960       0x6c c:/devkitpro/devkitarm/bin/../lib/gcc/arm-none-eabi/4.9.2/../../../../arm-none-eabi/lib/armv6k/fpu\libg.a(lib_a-svfiprintf.o)
                0x00165960                __action_table
 .rodata.zeroes.7016
                0x001659cc       0x10 c:/devkitpro/devkitarm/bin/../lib/gcc/arm-none-eabi/4.9.2/../../../../arm-none-eabi/lib/armv6k/fpu\libg.a(lib_a-svfiprintf.o)
 .rodata.zeroes.7037
                0x001659dc       0x10 c:/devkitpro/devkitarm/bin/../lib/gcc/arm-none-eabi/4.9.2/../../../../arm-none-eabi/lib/armv6k/fpu\libg.a(lib_a-svfprintf.o)
 .rodata.str1.4
                0x001659ec       0x12 c:/devkitpro/devkitarm/bin/../lib/gcc/arm-none-eabi/4.9.2/../../../../arm-none-eabi/lib/armv6k/fpu\libg.a(lib_a-svfprintf.o)
                                 0x44 (size before relaxing)
 *fill*         0x001659fe        0x2 
 .rodata.blanks.7036
                0x00165a00       0x10 c:/devkitpro/devkitarm/bin/../lib/gcc/arm-none-eabi/4.9.2/../../../../arm-none-eabi/lib/armv6k/fpu\libg.a(lib_a-svfprintf.o)
 .rodata.str1.4
                0x00165a10        0x5 c:/devkitpro/devkitarm/bin/../lib/gcc/arm-none-eabi/4.9.2/../../../../arm-none-eabi/lib/armv6k/fpu\libg.a(lib_a-svfscanf.o)
                                  0x8 (size before relaxing)
 *fill*         0x00165a15        0x3 
 .rodata.basefix.6958
                0x00165a18       0x24 c:/devkitpro/devkitarm/bin/../lib/gcc/arm-none-eabi/4.9.2/../../../../arm-none-eabi/lib/armv6k/fpu\libg.a(lib_a-svfscanf.o)
 .rodata.zeroes.7052
                0x00165a3c       0x10 c:/devkitpro/devkitarm/bin/../lib/gcc/arm-none-eabi/4.9.2/../../../../arm-none-eabi/lib/armv6k/fpu\libg.a(lib_a-vfprintf.o)
 .rodata.str1.4
                0x00165a4c       0x44 c:/devkitpro/devkitarm/bin/../lib/gcc/arm-none-eabi/4.9.2/../../../../arm-none-eabi/lib/armv6k/fpu\libg.a(lib_a-vfprintf.o)
 .rodata.blanks.7051
                0x00165a4c       0x10 c:/devkitpro/devkitarm/bin/../lib/gcc/arm-none-eabi/4.9.2/../../../../arm-none-eabi/lib/armv6k/fpu\libg.a(lib_a-vfprintf.o)
 .rodata.str1.4
                0x00165a5c       0x10 c:/devkitpro/devkitarm/bin/../lib/gcc/arm-none-eabi/4.9.2/../../../../arm-none-eabi/lib/armv6k/fpu\libg.a(lib_a-dtoa.o)
                                 0x14 (size before relaxing)
 .rodata.__hexdig
                0x00165a6c      0x100 c:/devkitpro/devkitarm/bin/../lib/gcc/arm-none-eabi/4.9.2/../../../../arm-none-eabi/lib/armv6k/fpu\libg.a(lib_a-gdtoa-gethex.o)
                0x00165a6c                __hexdig
 .rodata.a1     0x00165b6c       0xbc c:/devkitpro/devkitarm/bin/../lib/gcc/arm-none-eabi/4.9.2/../../../../arm-none-eabi/lib/armv6k/fpu\libg.a(lib_a-jp2uc.o)
 .rodata.a2     0x00165c28       0xbc c:/devkitpro/devkitarm/bin/../lib/gcc/arm-none-eabi/4.9.2/../../../../arm-none-eabi/lib/armv6k/fpu\libg.a(lib_a-jp2uc.o)
 .rodata.a3     0x00165ce4       0x5c c:/devkitpro/devkitarm/bin/../lib/gcc/arm-none-eabi/4.9.2/../../../../arm-none-eabi/lib/armv6k/fpu\libg.a(lib_a-jp2uc.o)
 .rodata.a6     0x00165d40       0x70 c:/devkitpro/devkitarm/bin/../lib/gcc/arm-none-eabi/4.9.2/../../../../arm-none-eabi/lib/armv6k/fpu\libg.a(lib_a-jp2uc.o)
 .rodata.a7     0x00165db0       0xa4 c:/devkitpro/devkitarm/bin/../lib/gcc/arm-none-eabi/4.9.2/../../../../arm-none-eabi/lib/armv6k/fpu\libg.a(lib_a-jp2uc.o)
 .rodata.a8     0x00165e54       0x40 c:/devkitpro/devkitarm/bin/../lib/gcc/arm-none-eabi/4.9.2/../../../../arm-none-eabi/lib/armv6k/fpu\libg.a(lib_a-jp2uc.o)
 .rodata.str1.4
                0x00165e94       0x12 c:/devkitpro/devkitarm/bin/../lib/gcc/arm-none-eabi/4.9.2/../../../../arm-none-eabi/lib/armv6k/fpu\libg.a(lib_a-jp2uc.o)
                                 0x14 (size before relaxing)
 *fill*         0x00165ea6        0x2 
 .rodata.b02cf  0x00165ea8     0x172c c:/devkitpro/devkitarm/bin/../lib/gcc/arm-none-eabi/4.9.2/../../../../arm-none-eabi/lib/armv6k/fpu\libg.a(lib_a-jp2uc.o)
 .rodata.d02f4  0x001675d4     0x1a7c c:/devkitpro/devkitarm/bin/../lib/gcc/arm-none-eabi/4.9.2/../../../../arm-none-eabi/lib/armv6k/fpu\libg.a(lib_a-jp2uc.o)
 .rodata.str1.4
                0x00169050      0x10c c:/devkitpro/devkitarm/bin/../lib/gcc/arm-none-eabi/4.9.2/../../../../arm-none-eabi/lib/armv6k/fpu\libg.a(lib_a-locale.o)
                                0x130 (size before relaxing)
 .rodata.categories
                0x0016915c       0x1c c:/devkitpro/devkitarm/bin/../lib/gcc/arm-none-eabi/4.9.2/../../../../arm-none-eabi/lib/armv6k/fpu\libg.a(lib_a-locale.o)
 .rodata.str1.4
                0x00169178        0x4 c:/devkitpro/devkitarm/bin/../lib/gcc/arm-none-eabi/4.9.2/../../../../arm-none-eabi/lib/armv6k/fpu\libg.a(lib_a-mbrtowc.o)
 .rodata.JIS_state_table
                0x00169178       0x48 c:/devkitpro/devkitarm/bin/../lib/gcc/arm-none-eabi/4.9.2/../../../../arm-none-eabi/lib/armv6k/fpu\libg.a(lib_a-mbtowc_r.o)
 .rodata.JIS_action_table
                0x001691c0       0x48 c:/devkitpro/devkitarm/bin/../lib/gcc/arm-none-eabi/4.9.2/../../../../arm-none-eabi/lib/armv6k/fpu\libg.a(lib_a-mbtowc_r.o)
 .rodata.p05.5298
                0x00169208        0xc c:/devkitpro/devkitarm/bin/../lib/gcc/arm-none-eabi/4.9.2/../../../../arm-none-eabi/lib/armv6k/fpu\libg.a(lib_a-mprec.o)
 *fill*         0x00169214        0x4 
 .rodata.__mprec_tens
                0x00169218       0xc8 c:/devkitpro/devkitarm/bin/../lib/gcc/arm-none-eabi/4.9.2/../../../../arm-none-eabi/lib/armv6k/fpu\libg.a(lib_a-mprec.o)
                0x00169218                __mprec_tens
 .rodata.__mprec_bigtens
                0x001692e0       0x28 c:/devkitpro/devkitarm/bin/../lib/gcc/arm-none-eabi/4.9.2/../../../../arm-none-eabi/lib/armv6k/fpu\libg.a(lib_a-mprec.o)
                0x001692e0                __mprec_bigtens
 .rodata.__mprec_tinytens
                0x00169308       0x28 c:/devkitpro/devkitarm/bin/../lib/gcc/arm-none-eabi/4.9.2/../../../../arm-none-eabi/lib/armv6k/fpu\libg.a(lib_a-mprec.o)
                0x00169308                __mprec_tinytens
 .rodata.basefix.6409
                0x00169330       0x24 c:/devkitpro/devkitarm/bin/../lib/gcc/arm-none-eabi/4.9.2/../../../../arm-none-eabi/lib/armv6k/fpu\libg.a(lib_a-svfiscanf.o)
 .rodata.zeroes.7030
                0x00169354       0x10 c:/devkitpro/devkitarm/bin/../lib/gcc/arm-none-eabi/4.9.2/../../../../arm-none-eabi/lib/armv6k/fpu\libg.a(lib_a-vfiprintf.o)
 .rodata.str1.4
                0x00169364       0x30 c:/devkitpro/devkitarm/bin/../lib/gcc/arm-none-eabi/4.9.2/../../../../arm-none-eabi/lib/armv6k/fpu\libg.a(lib_a-vfiprintf.o)
 .rodata.blanks.7029
                0x00169364       0x10 c:/devkitpro/devkitarm/bin/../lib/gcc/arm-none-eabi/4.9.2/../../../../arm-none-eabi/lib/armv6k/fpu\libg.a(lib_a-vfiprintf.o)
 .rodata.str1.4
                0x00169374        0x8 c:/devkitpro/devkitarm/bin/../lib/gcc/arm-none-eabi/4.9.2/../../../../arm-none-eabi/lib/armv6k/fpu\libsysbase.a(iosupport.o)
 *all.rodata*(*)
 *(.gnu.linkonce.r*)
                0x00169394                . = ALIGN (0x4)

.ARM.extab      0x0016937c      0x148
 *(.ARM.extab* .gnu.linkonce.armextab.*)
 .ARM.extab.text._ZSt15set_new_handlerPFvvE
                0x0016937c        0x0 c:/devkitpro/devkitarm/bin/../lib/gcc/arm-none-eabi/4.9.2/../../../../arm-none-eabi/lib/armv6k/fpu\libstdc++.a(new_handler.o)
 .ARM.extab.text._ZSt15get_new_handlerv
                0x0016937c        0x0 c:/devkitpro/devkitarm/bin/../lib/gcc/arm-none-eabi/4.9.2/../../../../arm-none-eabi/lib/armv6k/fpu\libstdc++.a(new_handler.o)
 .ARM.extab.text._ZdaPv
                0x0016937c        0x0 c:/devkitpro/devkitarm/bin/../lib/gcc/arm-none-eabi/4.9.2/../../../../arm-none-eabi/lib/armv6k/fpu\libstdc++.a(del_opv.o)
 .ARM.extab.text._Znaj
                0x0016937c       0x24 c:/devkitpro/devkitarm/bin/../lib/gcc/arm-none-eabi/4.9.2/../../../../arm-none-eabi/lib/armv6k/fpu\libstdc++.a(new_opv.o)
 .ARM.extab.text.__cxa_type_match
                0x001693a0        0x0 c:/devkitpro/devkitarm/bin/../lib/gcc/arm-none-eabi/4.9.2/../../../../arm-none-eabi/lib/armv6k/fpu\libstdc++.a(eh_arm.o)
 .ARM.extab.text.__cxa_begin_cleanup
                0x001693a0        0x0 c:/devkitpro/devkitarm/bin/../lib/gcc/arm-none-eabi/4.9.2/../../../../arm-none-eabi/lib/armv6k/fpu\libstdc++.a(eh_arm.o)
 .ARM.extab.text.__gnu_end_cleanup
                0x001693a0        0x0 c:/devkitpro/devkitarm/bin/../lib/gcc/arm-none-eabi/4.9.2/../../../../arm-none-eabi/lib/armv6k/fpu\libstdc++.a(eh_arm.o)
 .ARM.extab.text._ZNSt9exceptionD2Ev
                0x001693a0        0x0 c:/devkitpro/devkitarm/bin/../lib/gcc/arm-none-eabi/4.9.2/../../../../arm-none-eabi/lib/armv6k/fpu\libstdc++.a(eh_exception.o)
 .ARM.extab.text._ZNSt13bad_exceptionD2Ev
                0x001693a0        0x0 c:/devkitpro/devkitarm/bin/../lib/gcc/arm-none-eabi/4.9.2/../../../../arm-none-eabi/lib/armv6k/fpu\libstdc++.a(eh_exception.o)
 .ARM.extab.text._ZNKSt9exception4whatEv
                0x001693a0        0x0 c:/devkitpro/devkitarm/bin/../lib/gcc/arm-none-eabi/4.9.2/../../../../arm-none-eabi/lib/armv6k/fpu\libstdc++.a(eh_exception.o)
 .ARM.extab.text._ZNKSt13bad_exception4whatEv
                0x001693a0        0x0 c:/devkitpro/devkitarm/bin/../lib/gcc/arm-none-eabi/4.9.2/../../../../arm-none-eabi/lib/armv6k/fpu\libstdc++.a(eh_exception.o)
 .ARM.extab.text._ZNSt9exceptionD0Ev
                0x001693a0        0x0 c:/devkitpro/devkitarm/bin/../lib/gcc/arm-none-eabi/4.9.2/../../../../arm-none-eabi/lib/armv6k/fpu\libstdc++.a(eh_exception.o)
 .ARM.extab.text._ZNSt13bad_exceptionD0Ev
                0x001693a0        0x0 c:/devkitpro/devkitarm/bin/../lib/gcc/arm-none-eabi/4.9.2/../../../../arm-none-eabi/lib/armv6k/fpu\libstdc++.a(eh_exception.o)
 .ARM.extab.text._ZN10__cxxabiv115__forced_unwindD2Ev
                0x001693a0        0x0 c:/devkitpro/devkitarm/bin/../lib/gcc/arm-none-eabi/4.9.2/../../../../arm-none-eabi/lib/armv6k/fpu\libstdc++.a(eh_exception.o)
 .ARM.extab.text._ZN10__cxxabiv115__forced_unwindD0Ev
                0x001693a0        0x0 c:/devkitpro/devkitarm/bin/../lib/gcc/arm-none-eabi/4.9.2/../../../../arm-none-eabi/lib/armv6k/fpu\libstdc++.a(eh_exception.o)
 .ARM.extab.text._ZN10__cxxabiv119__foreign_exceptionD2Ev
                0x001693a0        0x0 c:/devkitpro/devkitarm/bin/../lib/gcc/arm-none-eabi/4.9.2/../../../../arm-none-eabi/lib/armv6k/fpu\libstdc++.a(eh_exception.o)
 .ARM.extab.text._ZN10__cxxabiv119__foreign_exceptionD0Ev
                0x001693a0        0x0 c:/devkitpro/devkitarm/bin/../lib/gcc/arm-none-eabi/4.9.2/../../../../arm-none-eabi/lib/armv6k/fpu\libstdc++.a(eh_exception.o)
 .ARM.extab.text._ZN10__cxxabiv120__si_class_type_infoD2Ev
                0x001693a0        0x0 c:/devkitpro/devkitarm/bin/../lib/gcc/arm-none-eabi/4.9.2/../../../../arm-none-eabi/lib/armv6k/fpu\libstdc++.a(si_class_type_info.o)
 .ARM.extab.text._ZN10__cxxabiv120__si_class_type_infoD0Ev
                0x001693a0        0x0 c:/devkitpro/devkitarm/bin/../lib/gcc/arm-none-eabi/4.9.2/../../../../arm-none-eabi/lib/armv6k/fpu\libstdc++.a(si_class_type_info.o)
 .ARM.extab.text._ZNK10__cxxabiv120__si_class_type_info20__do_find_public_srcEiPKvPKNS_17__class_type_infoES2_
                0x001693a0        0x0 c:/devkitpro/devkitarm/bin/../lib/gcc/arm-none-eabi/4.9.2/../../../../arm-none-eabi/lib/armv6k/fpu\libstdc++.a(si_class_type_info.o)
 .ARM.extab.text._ZNK10__cxxabiv120__si_class_type_info12__do_dyncastEiNS_17__class_type_info10__sub_kindEPKS1_PKvS4_S6_RNS1_16__dyncast_resultE
                0x001693a0        0x0 c:/devkitpro/devkitarm/bin/../lib/gcc/arm-none-eabi/4.9.2/../../../../arm-none-eabi/lib/armv6k/fpu\libstdc++.a(si_class_type_info.o)
 .ARM.extab.text._ZNK10__cxxabiv120__si_class_type_info11__do_upcastEPKNS_17__class_type_infoEPKvRNS1_15__upcast_resultE
                0x001693a0        0x0 c:/devkitpro/devkitarm/bin/../lib/gcc/arm-none-eabi/4.9.2/../../../../arm-none-eabi/lib/armv6k/fpu\libstdc++.a(si_class_type_info.o)
 .ARM.extab.text._ZN10__cxxabiv1L24__is_gxx_exception_classEPc
                0x001693a0        0x0 c:/devkitpro/devkitarm/bin/../lib/gcc/arm-none-eabi/4.9.2/../../../../arm-none-eabi/lib/armv6k/fpu\libstdc++.a(eh_call.o)
 .ARM.extab.text.__cxa_call_terminate
                0x001693a0        0x0 c:/devkitpro/devkitarm/bin/../lib/gcc/arm-none-eabi/4.9.2/../../../../arm-none-eabi/lib/armv6k/fpu\libstdc++.a(eh_call.o)
 .ARM.extab.text.__cxa_call_unexpected
                0x001693a0       0x28 c:/devkitpro/devkitarm/bin/../lib/gcc/arm-none-eabi/4.9.2/../../../../arm-none-eabi/lib/armv6k/fpu\libstdc++.a(eh_call.o)
 .ARM.extab.text.__cxa_get_globals_fast
                0x001693c8        0x0 c:/devkitpro/devkitarm/bin/../lib/gcc/arm-none-eabi/4.9.2/../../../../arm-none-eabi/lib/armv6k/fpu\libstdc++.a(eh_globals.o)
 .ARM.extab.text.__cxa_get_globals
                0x001693c8        0x0 c:/devkitpro/devkitarm/bin/../lib/gcc/arm-none-eabi/4.9.2/../../../../arm-none-eabi/lib/armv6k/fpu\libstdc++.a(eh_globals.o)
 .ARM.extab.text.__cxa_get_exception_ptr
                0x001693c8        0x0 c:/devkitpro/devkitarm/bin/../lib/gcc/arm-none-eabi/4.9.2/../../../../arm-none-eabi/lib/armv6k/fpu\libstdc++.a(eh_catch.o)
 .ARM.extab.text.__cxa_begin_catch
                0x001693c8       0x20 c:/devkitpro/devkitarm/bin/../lib/gcc/arm-none-eabi/4.9.2/../../../../arm-none-eabi/lib/armv6k/fpu\libstdc++.a(eh_catch.o)
 .ARM.extab.text.__cxa_end_catch
                0x001693e8        0x0 c:/devkitpro/devkitarm/bin/../lib/gcc/arm-none-eabi/4.9.2/../../../../arm-none-eabi/lib/armv6k/fpu\libstdc++.a(eh_catch.o)
 .ARM.extab.text._ZSt18uncaught_exceptionv
                0x001693e8        0x0 c:/devkitpro/devkitarm/bin/../lib/gcc/arm-none-eabi/4.9.2/../../../../arm-none-eabi/lib/armv6k/fpu\libstdc++.a(eh_catch.o)
 .ARM.extab.text._ZNSt9type_infoD2Ev
                0x001693e8        0x0 c:/devkitpro/devkitarm/bin/../lib/gcc/arm-none-eabi/4.9.2/../../../../arm-none-eabi/lib/armv6k/fpu\libstdc++.a(tinfo.o)
 .ARM.extab.text._ZNKSt9type_info14__is_pointer_pEv
                0x001693e8        0x0 c:/devkitpro/devkitarm/bin/../lib/gcc/arm-none-eabi/4.9.2/../../../../arm-none-eabi/lib/armv6k/fpu\libstdc++.a(tinfo.o)
 .ARM.extab.text._ZNKSt9type_info15__is_function_pEv
                0x001693e8        0x0 c:/devkitpro/devkitarm/bin/../lib/gcc/arm-none-eabi/4.9.2/../../../../arm-none-eabi/lib/armv6k/fpu\libstdc++.a(tinfo.o)
 .ARM.extab.text._ZNKSt9type_info11__do_upcastEPKN10__cxxabiv117__class_type_infoEPPv
                0x001693e8        0x0 c:/devkitpro/devkitarm/bin/../lib/gcc/arm-none-eabi/4.9.2/../../../../arm-none-eabi/lib/armv6k/fpu\libstdc++.a(tinfo.o)
 .ARM.extab.text._ZNSt9type_infoD0Ev
                0x001693e8        0x0 c:/devkitpro/devkitarm/bin/../lib/gcc/arm-none-eabi/4.9.2/../../../../arm-none-eabi/lib/armv6k/fpu\libstdc++.a(tinfo.o)
 .ARM.extab.text._ZNKSt9type_infoeqERKS_
                0x001693e8        0x0 c:/devkitpro/devkitarm/bin/../lib/gcc/arm-none-eabi/4.9.2/../../../../arm-none-eabi/lib/armv6k/fpu\libstdc++.a(tinfo.o)
 .ARM.extab.text._ZNKSt9type_info10__do_catchEPKS_PPvj
                0x001693e8        0x0 c:/devkitpro/devkitarm/bin/../lib/gcc/arm-none-eabi/4.9.2/../../../../arm-none-eabi/lib/armv6k/fpu\libstdc++.a(tinfo.o)
 .ARM.extab.text.__cxa_pure_virtual
                0x001693e8        0xc c:/devkitpro/devkitarm/bin/../lib/gcc/arm-none-eabi/4.9.2/../../../../arm-none-eabi/lib/armv6k/fpu\libstdc++.a(pure.o)
 .ARM.extab.text.__cxa_deleted_virtual
                0x001693f4        0xc c:/devkitpro/devkitarm/bin/../lib/gcc/arm-none-eabi/4.9.2/../../../../arm-none-eabi/lib/armv6k/fpu\libstdc++.a(pure.o)
 .ARM.extab.text._ZL12read_sleb128PKhPl
                0x00169400        0x0 c:/devkitpro/devkitarm/bin/../lib/gcc/arm-none-eabi/4.9.2/../../../../arm-none-eabi/lib/armv6k/fpu\libstdc++.a(eh_personality.o)
 .ARM.extab.text._ZL28read_encoded_value_with_basehjPKhPj
                0x00169400        0x0 c:/devkitpro/devkitarm/bin/../lib/gcc/arm-none-eabi/4.9.2/../../../../arm-none-eabi/lib/armv6k/fpu\libstdc++.a(eh_personality.o)
 .ARM.extab.text._ZL21base_of_encoded_valuehP15_Unwind_Context
                0x00169400        0xc c:/devkitpro/devkitarm/bin/../lib/gcc/arm-none-eabi/4.9.2/../../../../arm-none-eabi/lib/armv6k/fpu\libstdc++.a(eh_personality.o)
 .ARM.extab.text._ZL17parse_lsda_headerP15_Unwind_ContextPKhP16lsda_header_info
                0x0016940c        0x0 c:/devkitpro/devkitarm/bin/../lib/gcc/arm-none-eabi/4.9.2/../../../../arm-none-eabi/lib/armv6k/fpu\libstdc++.a(eh_personality.o)
 .ARM.extab.text.__gxx_personality_v0
                0x0016940c       0x24 c:/devkitpro/devkitarm/bin/../lib/gcc/arm-none-eabi/4.9.2/../../../../arm-none-eabi/lib/armv6k/fpu\libstdc++.a(eh_personality.o)
 .ARM.extab.text._ZdlPv
                0x00169430        0x0 c:/devkitpro/devkitarm/bin/../lib/gcc/arm-none-eabi/4.9.2/../../../../arm-none-eabi/lib/armv6k/fpu\libstdc++.a(del_op.o)
 .ARM.extab.text._Znwj
                0x00169430        0x0 c:/devkitpro/devkitarm/bin/../lib/gcc/arm-none-eabi/4.9.2/../../../../arm-none-eabi/lib/armv6k/fpu\libstdc++.a(new_op.o)
 .ARM.extab.text._ZnajRKSt9nothrow_t
                0x00169430        0x0 c:/devkitpro/devkitarm/bin/../lib/gcc/arm-none-eabi/4.9.2/../../../../arm-none-eabi/lib/armv6k/fpu\libstdc++.a(new_opvnt.o)
 .ARM.extab.text.__cxa_allocate_exception
                0x00169430        0x0 c:/devkitpro/devkitarm/bin/../lib/gcc/arm-none-eabi/4.9.2/../../../../arm-none-eabi/lib/armv6k/fpu\libstdc++.a(eh_alloc.o)
 .ARM.extab.text.__cxa_free_exception
                0x00169430        0x0 c:/devkitpro/devkitarm/bin/../lib/gcc/arm-none-eabi/4.9.2/../../../../arm-none-eabi/lib/armv6k/fpu\libstdc++.a(eh_alloc.o)
 .ARM.extab.text.__cxa_allocate_dependent_exception
                0x00169430        0x0 c:/devkitpro/devkitarm/bin/../lib/gcc/arm-none-eabi/4.9.2/../../../../arm-none-eabi/lib/armv6k/fpu\libstdc++.a(eh_alloc.o)
 .ARM.extab.text.__cxa_free_dependent_exception
                0x00169430        0x0 c:/devkitpro/devkitarm/bin/../lib/gcc/arm-none-eabi/4.9.2/../../../../arm-none-eabi/lib/armv6k/fpu\libstdc++.a(eh_alloc.o)
 .ARM.extab.text._ZNK10__cxxabiv117__class_type_info11__do_upcastEPKS0_PPv
                0x00169430        0x0 c:/devkitpro/devkitarm/bin/../lib/gcc/arm-none-eabi/4.9.2/../../../../arm-none-eabi/lib/armv6k/fpu\libstdc++.a(class_type_info.o)
 .ARM.extab.text._ZNK10__cxxabiv117__class_type_info20__do_find_public_srcEiPKvPKS0_S2_
                0x00169430        0x0 c:/devkitpro/devkitarm/bin/../lib/gcc/arm-none-eabi/4.9.2/../../../../arm-none-eabi/lib/armv6k/fpu\libstdc++.a(class_type_info.o)
 .ARM.extab.text._ZN10__cxxabiv117__class_type_infoD2Ev
                0x00169430        0x0 c:/devkitpro/devkitarm/bin/../lib/gcc/arm-none-eabi/4.9.2/../../../../arm-none-eabi/lib/armv6k/fpu\libstdc++.a(class_type_info.o)
 .ARM.extab.text._ZN10__cxxabiv117__class_type_infoD0Ev
                0x00169430        0x0 c:/devkitpro/devkitarm/bin/../lib/gcc/arm-none-eabi/4.9.2/../../../../arm-none-eabi/lib/armv6k/fpu\libstdc++.a(class_type_info.o)
 .ARM.extab.text._ZNK10__cxxabiv117__class_type_info11__do_upcastEPKS0_PKvRNS0_15__upcast_resultE
                0x00169430        0x0 c:/devkitpro/devkitarm/bin/../lib/gcc/arm-none-eabi/4.9.2/../../../../arm-none-eabi/lib/armv6k/fpu\libstdc++.a(class_type_info.o)
 .ARM.extab.text._ZNK10__cxxabiv117__class_type_info10__do_catchEPKSt9type_infoPPvj
                0x00169430        0x0 c:/devkitpro/devkitarm/bin/../lib/gcc/arm-none-eabi/4.9.2/../../../../arm-none-eabi/lib/armv6k/fpu\libstdc++.a(class_type_info.o)
 .ARM.extab.text._ZNK10__cxxabiv117__class_type_info12__do_dyncastEiNS0_10__sub_kindEPKS0_PKvS3_S5_RNS0_16__dyncast_resultE
                0x00169430        0x0 c:/devkitpro/devkitarm/bin/../lib/gcc/arm-none-eabi/4.9.2/../../../../arm-none-eabi/lib/armv6k/fpu\libstdc++.a(class_type_info.o)
 .ARM.extab.text._ZN10__cxxabiv111__terminateEPFvvE
                0x00169430       0x2c c:/devkitpro/devkitarm/bin/../lib/gcc/arm-none-eabi/4.9.2/../../../../arm-none-eabi/lib/armv6k/fpu\libstdc++.a(eh_terminate.o)
 .ARM.extab.text._ZSt9terminatev
                0x0016945c        0x0 c:/devkitpro/devkitarm/bin/../lib/gcc/arm-none-eabi/4.9.2/../../../../arm-none-eabi/lib/armv6k/fpu\libstdc++.a(eh_terminate.o)
 .ARM.extab.text._ZN10__cxxabiv112__unexpectedEPFvvE
                0x0016945c        0xc c:/devkitpro/devkitarm/bin/../lib/gcc/arm-none-eabi/4.9.2/../../../../arm-none-eabi/lib/armv6k/fpu\libstdc++.a(eh_terminate.o)
 .ARM.extab.text._ZSt10unexpectedv
                0x00169468        0xc c:/devkitpro/devkitarm/bin/../lib/gcc/arm-none-eabi/4.9.2/../../../../arm-none-eabi/lib/armv6k/fpu\libstdc++.a(eh_terminate.o)
 .ARM.extab.text._ZSt13set_terminatePFvvE
                0x00169474        0x0 c:/devkitpro/devkitarm/bin/../lib/gcc/arm-none-eabi/4.9.2/../../../../arm-none-eabi/lib/armv6k/fpu\libstdc++.a(eh_terminate.o)
 .ARM.extab.text._ZSt13get_terminatev
                0x00169474        0x0 c:/devkitpro/devkitarm/bin/../lib/gcc/arm-none-eabi/4.9.2/../../../../arm-none-eabi/lib/armv6k/fpu\libstdc++.a(eh_terminate.o)
 .ARM.extab.text._ZSt14set_unexpectedPFvvE
                0x00169474        0x0 c:/devkitpro/devkitarm/bin/../lib/gcc/arm-none-eabi/4.9.2/../../../../arm-none-eabi/lib/armv6k/fpu\libstdc++.a(eh_terminate.o)
 .ARM.extab.text._ZSt14get_unexpectedv
                0x00169474        0x0 c:/devkitpro/devkitarm/bin/../lib/gcc/arm-none-eabi/4.9.2/../../../../arm-none-eabi/lib/armv6k/fpu\libstdc++.a(eh_terminate.o)
 .ARM.extab.text._ZNKSt9bad_alloc4whatEv
                0x00169474        0x0 c:/devkitpro/devkitarm/bin/../lib/gcc/arm-none-eabi/4.9.2/../../../../arm-none-eabi/lib/armv6k/fpu\libstdc++.a(bad_alloc.o)
 .ARM.extab.text._ZNSt9bad_allocD2Ev
                0x00169474        0x0 c:/devkitpro/devkitarm/bin/../lib/gcc/arm-none-eabi/4.9.2/../../../../arm-none-eabi/lib/armv6k/fpu\libstdc++.a(bad_alloc.o)
 .ARM.extab.text._ZNSt9bad_allocD0Ev
                0x00169474        0x0 c:/devkitpro/devkitarm/bin/../lib/gcc/arm-none-eabi/4.9.2/../../../../arm-none-eabi/lib/armv6k/fpu\libstdc++.a(bad_alloc.o)
 .ARM.extab.text._ZL23__gxx_exception_cleanup19_Unwind_Reason_CodeP21_Unwind_Control_Block
                0x00169474        0x0 c:/devkitpro/devkitarm/bin/../lib/gcc/arm-none-eabi/4.9.2/../../../../arm-none-eabi/lib/armv6k/fpu\libstdc++.a(eh_throw.o)
 .ARM.extab.text.__cxa_throw
                0x00169474        0x0 c:/devkitpro/devkitarm/bin/../lib/gcc/arm-none-eabi/4.9.2/../../../../arm-none-eabi/lib/armv6k/fpu\libstdc++.a(eh_throw.o)
 .ARM.extab.text.__cxa_rethrow
                0x00169474        0x0 c:/devkitpro/devkitarm/bin/../lib/gcc/arm-none-eabi/4.9.2/../../../../arm-none-eabi/lib/armv6k/fpu\libstdc++.a(eh_throw.o)
 .ARM.extab.text._ZnwjRKSt9nothrow_t
                0x00169474       0x1c c:/devkitpro/devkitarm/bin/../lib/gcc/arm-none-eabi/4.9.2/../../../../arm-none-eabi/lib/armv6k/fpu\libstdc++.a(new_opnt.o)
 .ARM.extab.text._ZN9__gnu_cxx27__verbose_terminate_handlerEv
                0x00169490       0x34 c:/devkitpro/devkitarm/bin/../lib/gcc/arm-none-eabi/4.9.2/../../../../arm-none-eabi/lib/armv6k/fpu\libstdc++.a(vterminate.o)
 .ARM.extab.text.__cxa_current_exception_type
                0x001694c4        0x0 c:/devkitpro/devkitarm/bin/../lib/gcc/arm-none-eabi/4.9.2/../../../../arm-none-eabi/lib/armv6k/fpu\libstdc++.a(eh_type.o)
                0x001694c4                __exidx_start = .

ARM.exidx       0x001694c4      0x148
 *(.ARM.exidx* .gnu.linkonce.armexidx.*)
 .ARM.exidx.text._ZSt15set_new_handlerPFvvE
                0x001694c4        0x8 c:/devkitpro/devkitarm/bin/../lib/gcc/arm-none-eabi/4.9.2/../../../../arm-none-eabi/lib/armv6k/fpu\libstdc++.a(new_handler.o)
 .ARM.exidx.text._ZSt15get_new_handlerv
                0x001694cc        0x0 c:/devkitpro/devkitarm/bin/../lib/gcc/arm-none-eabi/4.9.2/../../../../arm-none-eabi/lib/armv6k/fpu\libstdc++.a(new_handler.o)
                                  0x8 (size before relaxing)
 .ARM.exidx.text._ZdaPv
                0x001694cc        0x0 c:/devkitpro/devkitarm/bin/../lib/gcc/arm-none-eabi/4.9.2/../../../../arm-none-eabi/lib/armv6k/fpu\libstdc++.a(del_opv.o)
                                  0x8 (size before relaxing)
 .ARM.exidx.text._Znaj
                0x001694cc       0x10 c:/devkitpro/devkitarm/bin/../lib/gcc/arm-none-eabi/4.9.2/../../../../arm-none-eabi/lib/armv6k/fpu\libstdc++.a(new_opv.o)
                                  0x8 (size before relaxing)
 .ARM.exidx.text.__cxa_type_match
                0x001694dc        0x8 c:/devkitpro/devkitarm/bin/../lib/gcc/arm-none-eabi/4.9.2/../../../../arm-none-eabi/lib/armv6k/fpu\libstdc++.a(eh_arm.o)
 .ARM.exidx.text.__cxa_begin_cleanup
                0x001694e4        0x8 c:/devkitpro/devkitarm/bin/../lib/gcc/arm-none-eabi/4.9.2/../../../../arm-none-eabi/lib/armv6k/fpu\libstdc++.a(eh_arm.o)
 .ARM.exidx.text.__gnu_end_cleanup
                0x001694ec        0x0 c:/devkitpro/devkitarm/bin/../lib/gcc/arm-none-eabi/4.9.2/../../../../arm-none-eabi/lib/armv6k/fpu\libstdc++.a(eh_arm.o)
                                  0x8 (size before relaxing)
 .ARM.exidx.text._ZNSt9exceptionD2Ev
                0x001694ec        0x0 c:/devkitpro/devkitarm/bin/../lib/gcc/arm-none-eabi/4.9.2/../../../../arm-none-eabi/lib/armv6k/fpu\libstdc++.a(eh_exception.o)
                                  0x8 (size before relaxing)
 .ARM.exidx.text._ZNSt13bad_exceptionD2Ev
                0x001694ec        0x0 c:/devkitpro/devkitarm/bin/../lib/gcc/arm-none-eabi/4.9.2/../../../../arm-none-eabi/lib/armv6k/fpu\libstdc++.a(eh_exception.o)
                                  0x8 (size before relaxing)
 .ARM.exidx.text._ZNKSt9exception4whatEv
                0x001694ec        0x0 c:/devkitpro/devkitarm/bin/../lib/gcc/arm-none-eabi/4.9.2/../../../../arm-none-eabi/lib/armv6k/fpu\libstdc++.a(eh_exception.o)
                                  0x8 (size before relaxing)
 .ARM.exidx.text._ZNKSt13bad_exception4whatEv
                0x001694ec        0x0 c:/devkitpro/devkitarm/bin/../lib/gcc/arm-none-eabi/4.9.2/../../../../arm-none-eabi/lib/armv6k/fpu\libstdc++.a(eh_exception.o)
                                  0x8 (size before relaxing)
 .ARM.exidx.text._ZNSt9exceptionD0Ev
                0x001694ec        0x0 c:/devkitpro/devkitarm/bin/../lib/gcc/arm-none-eabi/4.9.2/../../../../arm-none-eabi/lib/armv6k/fpu\libstdc++.a(eh_exception.o)
                                  0x8 (size before relaxing)
 .ARM.exidx.text._ZNSt13bad_exceptionD0Ev
                0x001694ec        0x0 c:/devkitpro/devkitarm/bin/../lib/gcc/arm-none-eabi/4.9.2/../../../../arm-none-eabi/lib/armv6k/fpu\libstdc++.a(eh_exception.o)
                                  0x8 (size before relaxing)
 .ARM.exidx.text._ZN10__cxxabiv115__forced_unwindD2Ev
                0x001694ec        0x0 c:/devkitpro/devkitarm/bin/../lib/gcc/arm-none-eabi/4.9.2/../../../../arm-none-eabi/lib/armv6k/fpu\libstdc++.a(eh_exception.o)
                                  0x8 (size before relaxing)
 .ARM.exidx.text._ZN10__cxxabiv115__forced_unwindD0Ev
                0x001694ec        0x0 c:/devkitpro/devkitarm/bin/../lib/gcc/arm-none-eabi/4.9.2/../../../../arm-none-eabi/lib/armv6k/fpu\libstdc++.a(eh_exception.o)
                                  0x8 (size before relaxing)
 .ARM.exidx.text._ZN10__cxxabiv119__foreign_exceptionD2Ev
                0x001694ec        0x0 c:/devkitpro/devkitarm/bin/../lib/gcc/arm-none-eabi/4.9.2/../../../../arm-none-eabi/lib/armv6k/fpu\libstdc++.a(eh_exception.o)
                                  0x8 (size before relaxing)
 .ARM.exidx.text._ZN10__cxxabiv119__foreign_exceptionD0Ev
                0x001694ec        0x0 c:/devkitpro/devkitarm/bin/../lib/gcc/arm-none-eabi/4.9.2/../../../../arm-none-eabi/lib/armv6k/fpu\libstdc++.a(eh_exception.o)
                                  0x8 (size before relaxing)
 .ARM.exidx.text._ZN10__cxxabiv120__si_class_type_infoD2Ev
                0x001694ec        0x8 c:/devkitpro/devkitarm/bin/../lib/gcc/arm-none-eabi/4.9.2/../../../../arm-none-eabi/lib/armv6k/fpu\libstdc++.a(si_class_type_info.o)
 .ARM.exidx.text._ZN10__cxxabiv120__si_class_type_infoD0Ev
                0x001694f4        0x0 c:/devkitpro/devkitarm/bin/../lib/gcc/arm-none-eabi/4.9.2/../../../../arm-none-eabi/lib/armv6k/fpu\libstdc++.a(si_class_type_info.o)
                                  0x8 (size before relaxing)
 .ARM.exidx.text._ZNK10__cxxabiv120__si_class_type_info20__do_find_public_srcEiPKvPKNS_17__class_type_infoES2_
                0x001694f4        0x8 c:/devkitpro/devkitarm/bin/../lib/gcc/arm-none-eabi/4.9.2/../../../../arm-none-eabi/lib/armv6k/fpu\libstdc++.a(si_class_type_info.o)
 .ARM.exidx.text._ZNK10__cxxabiv120__si_class_type_info12__do_dyncastEiNS_17__class_type_info10__sub_kindEPKS1_PKvS4_S6_RNS1_16__dyncast_resultE
                0x001694fc        0x8 c:/devkitpro/devkitarm/bin/../lib/gcc/arm-none-eabi/4.9.2/../../../../arm-none-eabi/lib/armv6k/fpu\libstdc++.a(si_class_type_info.o)
 .ARM.exidx.text._ZNK10__cxxabiv120__si_class_type_info11__do_upcastEPKNS_17__class_type_infoEPKvRNS1_15__upcast_resultE
                0x00169504        0x8 c:/devkitpro/devkitarm/bin/../lib/gcc/arm-none-eabi/4.9.2/../../../../arm-none-eabi/lib/armv6k/fpu\libstdc++.a(si_class_type_info.o)
 .ARM.exidx.text._ZN10__cxxabiv1L24__is_gxx_exception_classEPc
                0x0016950c        0x8 c:/devkitpro/devkitarm/bin/../lib/gcc/arm-none-eabi/4.9.2/../../../../arm-none-eabi/lib/armv6k/fpu\libstdc++.a(eh_call.o)
 .ARM.exidx.text.__cxa_call_terminate
                0x00169514        0x0 c:/devkitpro/devkitarm/bin/../lib/gcc/arm-none-eabi/4.9.2/../../../../arm-none-eabi/lib/armv6k/fpu\libstdc++.a(eh_call.o)
                                  0x8 (size before relaxing)
 .ARM.exidx.text.__cxa_call_unexpected
                0x00169514        0x8 c:/devkitpro/devkitarm/bin/../lib/gcc/arm-none-eabi/4.9.2/../../../../arm-none-eabi/lib/armv6k/fpu\libstdc++.a(eh_call.o)
 .ARM.exidx.text.__cxa_get_globals_fast
                0x0016951c        0x8 c:/devkitpro/devkitarm/bin/../lib/gcc/arm-none-eabi/4.9.2/../../../../arm-none-eabi/lib/armv6k/fpu\libstdc++.a(eh_globals.o)
 .ARM.exidx.text.__cxa_get_globals
                0x00169524        0x0 c:/devkitpro/devkitarm/bin/../lib/gcc/arm-none-eabi/4.9.2/../../../../arm-none-eabi/lib/armv6k/fpu\libstdc++.a(eh_globals.o)
                                  0x8 (size before relaxing)
 .ARM.exidx.text.__cxa_get_exception_ptr
                0x00169524        0x0 c:/devkitpro/devkitarm/bin/../lib/gcc/arm-none-eabi/4.9.2/../../../../arm-none-eabi/lib/armv6k/fpu\libstdc++.a(eh_catch.o)
                                  0x8 (size before relaxing)
 .ARM.exidx.text.__cxa_begin_catch
                0x00169524        0x8 c:/devkitpro/devkitarm/bin/../lib/gcc/arm-none-eabi/4.9.2/../../../../arm-none-eabi/lib/armv6k/fpu\libstdc++.a(eh_catch.o)
 .ARM.exidx.text.__cxa_end_catch
                0x0016952c        0x8 c:/devkitpro/devkitarm/bin/../lib/gcc/arm-none-eabi/4.9.2/../../../../arm-none-eabi/lib/armv6k/fpu\libstdc++.a(eh_catch.o)
 .ARM.exidx.text._ZSt18uncaught_exceptionv
                0x00169534        0x0 c:/devkitpro/devkitarm/bin/../lib/gcc/arm-none-eabi/4.9.2/../../../../arm-none-eabi/lib/armv6k/fpu\libstdc++.a(eh_catch.o)
                                  0x8 (size before relaxing)
 .ARM.exidx.text._ZNSt9type_infoD2Ev
                0x00169534        0x0 c:/devkitpro/devkitarm/bin/../lib/gcc/arm-none-eabi/4.9.2/../../../../arm-none-eabi/lib/armv6k/fpu\libstdc++.a(tinfo.o)
                                  0x8 (size before relaxing)
 .ARM.exidx.text._ZNKSt9type_info14__is_pointer_pEv
                0x00169534        0x0 c:/devkitpro/devkitarm/bin/../lib/gcc/arm-none-eabi/4.9.2/../../../../arm-none-eabi/lib/armv6k/fpu\libstdc++.a(tinfo.o)
                                  0x8 (size before relaxing)
 .ARM.exidx.text._ZNKSt9type_info15__is_function_pEv
                0x00169534        0x0 c:/devkitpro/devkitarm/bin/../lib/gcc/arm-none-eabi/4.9.2/../../../../arm-none-eabi/lib/armv6k/fpu\libstdc++.a(tinfo.o)
                                  0x8 (size before relaxing)
 .ARM.exidx.text._ZNKSt9type_info11__do_upcastEPKN10__cxxabiv117__class_type_infoEPPv
                0x00169534        0x0 c:/devkitpro/devkitarm/bin/../lib/gcc/arm-none-eabi/4.9.2/../../../../arm-none-eabi/lib/armv6k/fpu\libstdc++.a(tinfo.o)
                                  0x8 (size before relaxing)
 .ARM.exidx.text._ZNSt9type_infoD0Ev
                0x00169534        0x0 c:/devkitpro/devkitarm/bin/../lib/gcc/arm-none-eabi/4.9.2/../../../../arm-none-eabi/lib/armv6k/fpu\libstdc++.a(tinfo.o)
                                  0x8 (size before relaxing)
 .ARM.exidx.text._ZNKSt9type_infoeqERKS_
                0x00169534        0x0 c:/devkitpro/devkitarm/bin/../lib/gcc/arm-none-eabi/4.9.2/../../../../arm-none-eabi/lib/armv6k/fpu\libstdc++.a(tinfo.o)
                                  0x8 (size before relaxing)
 .ARM.exidx.text._ZNKSt9type_info10__do_catchEPKS_PPvj
                0x00169534        0x0 c:/devkitpro/devkitarm/bin/../lib/gcc/arm-none-eabi/4.9.2/../../../../arm-none-eabi/lib/armv6k/fpu\libstdc++.a(tinfo.o)
                                  0x8 (size before relaxing)
 .ARM.exidx.text.__cxa_pure_virtual
                0x00169534        0x8 c:/devkitpro/devkitarm/bin/../lib/gcc/arm-none-eabi/4.9.2/../../../../arm-none-eabi/lib/armv6k/fpu\libstdc++.a(pure.o)
 .ARM.exidx.text.__cxa_deleted_virtual
                0x0016953c        0x8 c:/devkitpro/devkitarm/bin/../lib/gcc/arm-none-eabi/4.9.2/../../../../arm-none-eabi/lib/armv6k/fpu\libstdc++.a(pure.o)
 .ARM.exidx.text._ZL12read_sleb128PKhPl
                0x00169544        0x8 c:/devkitpro/devkitarm/bin/../lib/gcc/arm-none-eabi/4.9.2/../../../../arm-none-eabi/lib/armv6k/fpu\libstdc++.a(eh_personality.o)
 .ARM.exidx.text._ZL28read_encoded_value_with_basehjPKhPj
                0x0016954c        0x8 c:/devkitpro/devkitarm/bin/../lib/gcc/arm-none-eabi/4.9.2/../../../../arm-none-eabi/lib/armv6k/fpu\libstdc++.a(eh_personality.o)
 .ARM.exidx.text._ZL21base_of_encoded_valuehP15_Unwind_Context
                0x00169554        0x8 c:/devkitpro/devkitarm/bin/../lib/gcc/arm-none-eabi/4.9.2/../../../../arm-none-eabi/lib/armv6k/fpu\libstdc++.a(eh_personality.o)
 .ARM.exidx.text._ZL17parse_lsda_headerP15_Unwind_ContextPKhP16lsda_header_info
                0x0016955c        0x8 c:/devkitpro/devkitarm/bin/../lib/gcc/arm-none-eabi/4.9.2/../../../../arm-none-eabi/lib/armv6k/fpu\libstdc++.a(eh_personality.o)
 .ARM.exidx.text.__gxx_personality_v0
                0x00169564        0x8 c:/devkitpro/devkitarm/bin/../lib/gcc/arm-none-eabi/4.9.2/../../../../arm-none-eabi/lib/armv6k/fpu\libstdc++.a(eh_personality.o)
 .ARM.exidx.text._ZdlPv
                0x0016956c        0x8 c:/devkitpro/devkitarm/bin/../lib/gcc/arm-none-eabi/4.9.2/../../../../arm-none-eabi/lib/armv6k/fpu\libstdc++.a(del_op.o)
 .ARM.exidx.text._Znwj
                0x00169574        0x8 c:/devkitpro/devkitarm/bin/../lib/gcc/arm-none-eabi/4.9.2/../../../../arm-none-eabi/lib/armv6k/fpu\libstdc++.a(new_op.o)
 .ARM.exidx.text._ZnajRKSt9nothrow_t
                0x0016957c        0x8 c:/devkitpro/devkitarm/bin/../lib/gcc/arm-none-eabi/4.9.2/../../../../arm-none-eabi/lib/armv6k/fpu\libstdc++.a(new_opvnt.o)
 .ARM.exidx.text.__cxa_allocate_exception
                0x00169584        0x0 c:/devkitpro/devkitarm/bin/../lib/gcc/arm-none-eabi/4.9.2/../../../../arm-none-eabi/lib/armv6k/fpu\libstdc++.a(eh_alloc.o)
                                  0x8 (size before relaxing)
 .ARM.exidx.text.__cxa_free_exception
                0x00169584        0x0 c:/devkitpro/devkitarm/bin/../lib/gcc/arm-none-eabi/4.9.2/../../../../arm-none-eabi/lib/armv6k/fpu\libstdc++.a(eh_alloc.o)
                                  0x8 (size before relaxing)
 .ARM.exidx.text.__cxa_allocate_dependent_exception
                0x00169584        0x0 c:/devkitpro/devkitarm/bin/../lib/gcc/arm-none-eabi/4.9.2/../../../../arm-none-eabi/lib/armv6k/fpu\libstdc++.a(eh_alloc.o)
                                  0x8 (size before relaxing)
 .ARM.exidx.text.__cxa_free_dependent_exception
                0x00169584        0x0 c:/devkitpro/devkitarm/bin/../lib/gcc/arm-none-eabi/4.9.2/../../../../arm-none-eabi/lib/armv6k/fpu\libstdc++.a(eh_alloc.o)
                                  0x8 (size before relaxing)
 .ARM.exidx.text._ZNK10__cxxabiv117__class_type_info11__do_upcastEPKS0_PPv
                0x00169584        0x8 c:/devkitpro/devkitarm/bin/../lib/gcc/arm-none-eabi/4.9.2/../../../../arm-none-eabi/lib/armv6k/fpu\libstdc++.a(class_type_info.o)
 .ARM.exidx.text._ZNK10__cxxabiv117__class_type_info20__do_find_public_srcEiPKvPKS0_S2_
                0x0016958c        0x8 c:/devkitpro/devkitarm/bin/../lib/gcc/arm-none-eabi/4.9.2/../../../../arm-none-eabi/lib/armv6k/fpu\libstdc++.a(class_type_info.o)
 .ARM.exidx.text._ZN10__cxxabiv117__class_type_infoD2Ev
                0x00169594        0x8 c:/devkitpro/devkitarm/bin/../lib/gcc/arm-none-eabi/4.9.2/../../../../arm-none-eabi/lib/armv6k/fpu\libstdc++.a(class_type_info.o)
 .ARM.exidx.text._ZN10__cxxabiv117__class_type_infoD0Ev
                0x0016959c        0x0 c:/devkitpro/devkitarm/bin/../lib/gcc/arm-none-eabi/4.9.2/../../../../arm-none-eabi/lib/armv6k/fpu\libstdc++.a(class_type_info.o)
                                  0x8 (size before relaxing)
 .ARM.exidx.text._ZNK10__cxxabiv117__class_type_info11__do_upcastEPKS0_PKvRNS0_15__upcast_resultE
                0x0016959c        0x8 c:/devkitpro/devkitarm/bin/../lib/gcc/arm-none-eabi/4.9.2/../../../../arm-none-eabi/lib/armv6k/fpu\libstdc++.a(class_type_info.o)
 .ARM.exidx.text._ZNK10__cxxabiv117__class_type_info10__do_catchEPKSt9type_infoPPvj
                0x001695a4        0x8 c:/devkitpro/devkitarm/bin/../lib/gcc/arm-none-eabi/4.9.2/../../../../arm-none-eabi/lib/armv6k/fpu\libstdc++.a(class_type_info.o)
 .ARM.exidx.text._ZNK10__cxxabiv117__class_type_info12__do_dyncastEiNS0_10__sub_kindEPKS0_PKvS3_S5_RNS0_16__dyncast_resultE
                0x001695ac        0x8 c:/devkitpro/devkitarm/bin/../lib/gcc/arm-none-eabi/4.9.2/../../../../arm-none-eabi/lib/armv6k/fpu\libstdc++.a(class_type_info.o)
 .ARM.exidx.text._ZN10__cxxabiv111__terminateEPFvvE
                0x001695b4        0x8 c:/devkitpro/devkitarm/bin/../lib/gcc/arm-none-eabi/4.9.2/../../../../arm-none-eabi/lib/armv6k/fpu\libstdc++.a(eh_terminate.o)
 .ARM.exidx.text._ZSt9terminatev
                0x001695bc        0x8 c:/devkitpro/devkitarm/bin/../lib/gcc/arm-none-eabi/4.9.2/../../../../arm-none-eabi/lib/armv6k/fpu\libstdc++.a(eh_terminate.o)
 .ARM.exidx.text._ZN10__cxxabiv112__unexpectedEPFvvE
                0x001695c4        0x8 c:/devkitpro/devkitarm/bin/../lib/gcc/arm-none-eabi/4.9.2/../../../../arm-none-eabi/lib/armv6k/fpu\libstdc++.a(eh_terminate.o)
 .ARM.exidx.text._ZSt10unexpectedv
                0x001695cc        0x8 c:/devkitpro/devkitarm/bin/../lib/gcc/arm-none-eabi/4.9.2/../../../../arm-none-eabi/lib/armv6k/fpu\libstdc++.a(eh_terminate.o)
 .ARM.exidx.text._ZSt13set_terminatePFvvE
                0x001695d4        0x8 c:/devkitpro/devkitarm/bin/../lib/gcc/arm-none-eabi/4.9.2/../../../../arm-none-eabi/lib/armv6k/fpu\libstdc++.a(eh_terminate.o)
 .ARM.exidx.text._ZSt13get_terminatev
                0x001695dc        0x0 c:/devkitpro/devkitarm/bin/../lib/gcc/arm-none-eabi/4.9.2/../../../../arm-none-eabi/lib/armv6k/fpu\libstdc++.a(eh_terminate.o)
                                  0x8 (size before relaxing)
 .ARM.exidx.text._ZSt14set_unexpectedPFvvE
                0x001695dc        0x0 c:/devkitpro/devkitarm/bin/../lib/gcc/arm-none-eabi/4.9.2/../../../../arm-none-eabi/lib/armv6k/fpu\libstdc++.a(eh_terminate.o)
                                  0x8 (size before relaxing)
 .ARM.exidx.text._ZSt14get_unexpectedv
                0x001695dc        0x0 c:/devkitpro/devkitarm/bin/../lib/gcc/arm-none-eabi/4.9.2/../../../../arm-none-eabi/lib/armv6k/fpu\libstdc++.a(eh_terminate.o)
                                  0x8 (size before relaxing)
 .ARM.exidx.text._ZNKSt9bad_alloc4whatEv
                0x001695dc        0x0 c:/devkitpro/devkitarm/bin/../lib/gcc/arm-none-eabi/4.9.2/../../../../arm-none-eabi/lib/armv6k/fpu\libstdc++.a(bad_alloc.o)
                                  0x8 (size before relaxing)
 .ARM.exidx.text._ZNSt9bad_allocD2Ev
                0x001695dc        0x0 c:/devkitpro/devkitarm/bin/../lib/gcc/arm-none-eabi/4.9.2/../../../../arm-none-eabi/lib/armv6k/fpu\libstdc++.a(bad_alloc.o)
                                  0x8 (size before relaxing)
 .ARM.exidx.text._ZNSt9bad_allocD0Ev
                0x001695dc        0x0 c:/devkitpro/devkitarm/bin/../lib/gcc/arm-none-eabi/4.9.2/../../../../arm-none-eabi/lib/armv6k/fpu\libstdc++.a(bad_alloc.o)
                                  0x8 (size before relaxing)
 .ARM.exidx.text._ZL23__gxx_exception_cleanup19_Unwind_Reason_CodeP21_Unwind_Control_Block
                0x001695dc        0x8 c:/devkitpro/devkitarm/bin/../lib/gcc/arm-none-eabi/4.9.2/../../../../arm-none-eabi/lib/armv6k/fpu\libstdc++.a(eh_throw.o)
 .ARM.exidx.text.__cxa_throw
                0x001695e4        0x8 c:/devkitpro/devkitarm/bin/../lib/gcc/arm-none-eabi/4.9.2/../../../../arm-none-eabi/lib/armv6k/fpu\libstdc++.a(eh_throw.o)
 .ARM.exidx.text.__cxa_rethrow
                0x001695ec        0x8 c:/devkitpro/devkitarm/bin/../lib/gcc/arm-none-eabi/4.9.2/../../../../arm-none-eabi/lib/armv6k/fpu\libstdc++.a(eh_throw.o)
 .ARM.exidx.text._ZnwjRKSt9nothrow_t
                0x001695f4        0x8 c:/devkitpro/devkitarm/bin/../lib/gcc/arm-none-eabi/4.9.2/../../../../arm-none-eabi/lib/armv6k/fpu\libstdc++.a(new_opnt.o)
 .ARM.exidx.text._ZN9__gnu_cxx27__verbose_terminate_handlerEv
                0x001695fc        0x8 c:/devkitpro/devkitarm/bin/../lib/gcc/arm-none-eabi/4.9.2/../../../../arm-none-eabi/lib/armv6k/fpu\libstdc++.a(vterminate.o)
 .ARM.exidx.text.__cxa_current_exception_type
                0x00169604        0x8 c:/devkitpro/devkitarm/bin/../lib/gcc/arm-none-eabi/4.9.2/../../../../arm-none-eabi/lib/armv6k/fpu\libstdc++.a(eh_type.o)
                0x0016960c                __exidx_end = .

.rel.dyn        0x0016960c        0x0
 .rel.iplt      0x0016960c        0x0 c:/devkitpro/devkitarm/bin/../lib/gcc/arm-none-eabi/4.9.2/../../../../arm-none-eabi/lib/armv6k/fpu/3dsx_crt0.o

.data           0x0016a000     0xd5ec
 *(.data)
 .data          0x0016a000        0x0 c:/devkitpro/devkitarm/bin/../lib/gcc/arm-none-eabi/4.9.2/../../../../arm-none-eabi/lib/armv6k/fpu/3dsx_crt0.o
 .data          0x0016a000        0x0 c:/devkitpro/devkitarm/bin/../lib/gcc/arm-none-eabi/4.9.2/armv6k/fpu/crti.o
 .data          0x0016a000        0x4 c:/devkitpro/devkitarm/bin/../lib/gcc/arm-none-eabi/4.9.2/armv6k/fpu/crtbegin.o
                0x0016a000                __dso_handle
 .data          0x0016a004        0x0 font.bin.o
 .data          0x0016a004        0x0 descriptor.o
 .data          0x0016a004       0x50 tinyxml2.o
                0x0016a004                tinyxml2::XMLDocument::_errorNames
 .data          0x0016a054        0x0 khaxinit.o
 .data          0x0016a054       0x14 boot.o
                0x0016a054                targetProcessId
                0x0016a058                callBootloader_2x
                0x0016a05c                callBootloaderRunTitle_2x
                0x0016a060                callBootloaderNewProcess_2x
                0x0016a064                getBestProcess_2x
 .data          0x0016a068        0x0 config.o
 .data          0x0016a068       0x24 font.o
                0x0016a068                fontSelected
                0x0016a074                fontTitle
                0x0016a080                fontDefault
 .data          0x0016a08c     0x531c font1.o
                0x0016a08c                font1Data
                0x0016cfa8                font1Desc
 .data          0x0016f3a8     0x3ce4 font2.o
                0x0016f3a8                font2Data
                0x00170c8c                font2Desc
 .data          0x0017308c        0x0 gfx.o
 .data          0x0017308c        0x0 loader.o
 .data          0x0017308c        0x0 main.o
 .data          0x0017308c        0x1 menu_boot.o
                0x0017308c                timer
 .data          0x0017308d        0x0 menu_config.o
 *fill*         0x0017308d        0x3 
 .data          0x00173090      0xa00 menu_more.o
 .data          0x00173a90        0xc menu_netloader.o
 .data          0x00173a9c        0x0 menu_picker.o
 .data          0x00173a9c       0x14 scanner.o
                0x00173a9c                servicesThatMatter
 .data          0x00173ab0        0x4 text.o
                0x00173ab0                font
 .data          0x00173ab4        0x0 utility.o
 .data          0x00173ab4        0x0 brahma.o
 .data          0x00173ab4        0x0 arm11.o
 .data          0x00173ab4        0x0 utils.o
 .data          0x00173ab4        0x0 c:/devkitPro/portlibs/armv6k/lib\libconfig.a(libconfig_la-libconfig.o)
 .data          0x00173ab4        0x0 c:/devkitPro/portlibs/armv6k/lib\libconfig.a(libconfig_la-scanner.o)
 .data          0x00173ab4        0x0 c:/devkitPro/portlibs/armv6k/lib\libconfig.a(libconfig_la-grammar.o)
 .data          0x00173ab4        0x0 c:/devkitPro/portlibs/armv6k/lib\libconfig.a(libconfig_la-scanctx.o)
 .data          0x00173ab4        0x0 c:/devkitPro/portlibs/armv6k/lib\libconfig.a(libconfig_la-strbuf.o)
 .data          0x00173ab4        0x0 c:/devkitPro/libctru/lib\libctru.a(linear.o)
 .data          0x00173ab4        0x0 c:/devkitPro/libctru/lib\libctru.a(mem_pool.o)
 .data          0x00173ab4        0xc c:/devkitPro/libctru/lib\libctru.a(gfx.o)
 .data          0x00173ac0        0x0 c:/devkitPro/libctru/lib\libctru.a(os.o)
 .data          0x00173ac0     0x1084 c:/devkitPro/libctru/lib\libctru.a(sdmc_dev.o)
 .data          0x00174b44        0x0 c:/devkitPro/libctru/lib\libctru.a(srv.o)
 .data          0x00174b44        0x0 c:/devkitPro/libctru/lib\libctru.a(ac.o)
 .data          0x00174b44        0x0 c:/devkitPro/libctru/lib\libctru.a(am.o)
 .data          0x00174b44        0x0 c:/devkitPro/libctru/lib\libctru.a(apt.o)
 .data          0x00174b44        0x0 c:/devkitPro/libctru/lib\libctru.a(fs.o)
 .data          0x00174b44        0x0 c:/devkitPro/libctru/lib\libctru.a(gsp.o)
 .data          0x00174b44        0x0 c:/devkitPro/libctru/lib\libctru.a(gx.o)
 .data          0x00174b44        0x0 c:/devkitPro/libctru/lib\libctru.a(hb.o)
 .data          0x00174b44        0x0 c:/devkitPro/libctru/lib\libctru.a(hid.o)
 .data          0x00174b44        0x0 c:/devkitPro/libctru/lib\libctru.a(irrst.o)
 .data          0x00174b44        0x0 c:/devkitPro/libctru/lib\libctru.a(ptm.o)
 .data          0x00174b44        0x0 c:/devkitPro/libctru/lib\libctru.a(soc_accept.o)
 .data          0x00174b44        0x0 c:/devkitPro/libctru/lib\libctru.a(soc_bind.o)
 .data          0x00174b44        0x0 c:/devkitPro/libctru/lib\libctru.a(soc_closesocket.o)
 .data          0x00174b44        0x0 c:/devkitPro/libctru/lib\libctru.a(soc_common.o)
 .data          0x00174b44        0x0 c:/devkitPro/libctru/lib\libctru.a(soc_fcntl.o)
 .data          0x00174b44        0x0 c:/devkitPro/libctru/lib\libctru.a(soc_gethostid.o)
 .data          0x00174b44        0x0 c:/devkitPro/libctru/lib\libctru.a(soc_inet_ntoa.o)
 .data          0x00174b44       0x68 c:/devkitPro/libctru/lib\libctru.a(soc_init.o)
 .data          0x00174bac        0x0 c:/devkitPro/libctru/lib\libctru.a(soc_listen.o)
 .data          0x00174bac        0x0 c:/devkitPro/libctru/lib\libctru.a(soc_recv.o)
 .data          0x00174bac        0x0 c:/devkitPro/libctru/lib\libctru.a(soc_recvfrom.o)
 .data          0x00174bac        0x0 c:/devkitPro/libctru/lib\libctru.a(soc_send.o)
 .data          0x00174bac        0x0 c:/devkitPro/libctru/lib\libctru.a(soc_sendto.o)
 .data          0x00174bac        0x0 c:/devkitPro/libctru/lib\libctru.a(soc_socket.o)
 .data          0x00174bac        0x0 c:/devkitPro/libctru/lib\libctru.a(rbtree_find.o)
 .data          0x00174bac        0x0 c:/devkitPro/libctru/lib\libctru.a(rbtree_init.o)
 .data          0x00174bac        0x0 c:/devkitPro/libctru/lib\libctru.a(rbtree_insert.o)
 .data          0x00174bac        0x0 c:/devkitPro/libctru/lib\libctru.a(rbtree_remove.o)
 .data          0x00174bac        0x0 c:/devkitPro/libctru/lib\libctru.a(rbtree_rotate.o)
 .data          0x00174bac        0x0 c:/devkitPro/libctru/lib\libctru.a(decode_utf8.o)
 .data          0x00174bac        0x0 c:/devkitPro/libctru/lib\libctru.a(utf16_to_utf8.o)
 .data          0x00174bac        0x0 c:/devkitPro/libctru/lib\libctru.a(utf8_to_utf16.o)
 .data          0x00174bac        0x0 c:/devkitPro/libctru/lib\libctru.a(allocateHeaps.o)
 .data          0x00174bac        0x0 c:/devkitPro/libctru/lib\libctru.a(initArgv.o)
 .data          0x00174bac        0x0 c:/devkitPro/libctru/lib\libctru.a(initSystem.o)
 .data          0x00174bac        0x0 c:/devkitPro/libctru/lib\libctru.a(svc.o)
 .data          0x00174bac        0x4 c:/devkitPro/libctru/lib\libctru.a(stack_adjust.o)
                0x00174bac                __stacksize__
 .data          0x00174bb0        0x0 c:/devkitPro/libctru/lib\libctru.a(mappable.o)
 .data          0x00174bb0        0x0 c:/devkitPro/libctru/lib\libctru.a(vram.o)
 .data          0x00174bb0        0x0 c:/devkitPro/libctru/lib\libctru.a(rbtree_iterator.o)
 .data          0x00174bb0        0x0 c:/devkitPro/libctru/lib\libctru.a(decode_utf16.o)
 .data          0x00174bb0        0x0 c:/devkitPro/libctru/lib\libctru.a(encode_utf16.o)
 .data          0x00174bb0        0x0 c:/devkitPro/libctru/lib\libctru.a(encode_utf8.o)
 .data          0x00174bb0        0x0 c:/devkitPro/libctru/lib\libctru.a(appExit.o)
 .data          0x00174bb0        0x0 c:/devkitPro/libctru/lib\libctru.a(appInit.o)
 .data          0x00174bb0        0x0 c:/devkitPro/libctru/lib\libctru.a(ctru_exit.o)
 .data          0x00174bb0        0x0 c:/devkitPro/portlibs/armv6k/lib\libz.a(inflate.o)
 .data          0x00174bb0        0x0 c:/devkitPro/portlibs/armv6k/lib\libz.a(inftrees.o)
 .data          0x00174bb0        0x0 c:/devkitPro/portlibs/armv6k/lib\libz.a(zutil.o)
 .data          0x00174bb0        0x0 c:/devkitPro/portlibs/armv6k/lib\libz.a(adler32.o)
 .data          0x00174bb0        0x0 c:/devkitPro/portlibs/armv6k/lib\libz.a(crc32.o)
 .data          0x00174bb0        0x0 c:/devkitPro/portlibs/armv6k/lib\libz.a(inffast.o)
 .data          0x00174bb0        0x0 c:/devkitpro/devkitarm/bin/../lib/gcc/arm-none-eabi/4.9.2/../../../../arm-none-eabi/lib/armv6k/fpu\libstdc++.a(new_handler.o)
 .data          0x00174bb0        0x0 c:/devkitpro/devkitarm/bin/../lib/gcc/arm-none-eabi/4.9.2/../../../../arm-none-eabi/lib/armv6k/fpu\libstdc++.a(del_opv.o)
 .data          0x00174bb0        0x0 c:/devkitpro/devkitarm/bin/../lib/gcc/arm-none-eabi/4.9.2/../../../../arm-none-eabi/lib/armv6k/fpu\libstdc++.a(new_opv.o)
 .data          0x00174bb0        0x0 c:/devkitpro/devkitarm/bin/../lib/gcc/arm-none-eabi/4.9.2/../../../../arm-none-eabi/lib/armv6k/fpu\libstdc++.a(eh_arm.o)
 .data          0x00174bb0        0x0 c:/devkitpro/devkitarm/bin/../lib/gcc/arm-none-eabi/4.9.2/../../../../arm-none-eabi/lib/armv6k/fpu\libstdc++.a(eh_exception.o)
 .data          0x00174bb0        0x0 c:/devkitpro/devkitarm/bin/../lib/gcc/arm-none-eabi/4.9.2/../../../../arm-none-eabi/lib/armv6k/fpu\libstdc++.a(si_class_type_info.o)
 .data          0x00174bb0        0x0 c:/devkitpro/devkitarm/bin/../lib/gcc/arm-none-eabi/4.9.2/../../../../arm-none-eabi/lib/armv6k/fpu\libstdc++.a(eh_call.o)
 .data          0x00174bb0        0x0 c:/devkitpro/devkitarm/bin/../lib/gcc/arm-none-eabi/4.9.2/../../../../arm-none-eabi/lib/armv6k/fpu\libstdc++.a(eh_globals.o)
 .data          0x00174bb0        0x0 c:/devkitpro/devkitarm/bin/../lib/gcc/arm-none-eabi/4.9.2/../../../../arm-none-eabi/lib/armv6k/fpu\libstdc++.a(eh_catch.o)
 .data          0x00174bb0        0x0 c:/devkitpro/devkitarm/bin/../lib/gcc/arm-none-eabi/4.9.2/../../../../arm-none-eabi/lib/armv6k/fpu\libstdc++.a(tinfo.o)
 .data          0x00174bb0        0x0 c:/devkitpro/devkitarm/bin/../lib/gcc/arm-none-eabi/4.9.2/../../../../arm-none-eabi/lib/armv6k/fpu\libstdc++.a(pure.o)
 .data          0x00174bb0        0x0 c:/devkitpro/devkitarm/bin/../lib/gcc/arm-none-eabi/4.9.2/../../../../arm-none-eabi/lib/armv6k/fpu\libstdc++.a(eh_personality.o)
 .data          0x00174bb0        0x0 c:/devkitpro/devkitarm/bin/../lib/gcc/arm-none-eabi/4.9.2/../../../../arm-none-eabi/lib/armv6k/fpu\libstdc++.a(del_op.o)
 .data          0x00174bb0        0x0 c:/devkitpro/devkitarm/bin/../lib/gcc/arm-none-eabi/4.9.2/../../../../arm-none-eabi/lib/armv6k/fpu\libstdc++.a(new_op.o)
 .data          0x00174bb0        0x0 c:/devkitpro/devkitarm/bin/../lib/gcc/arm-none-eabi/4.9.2/../../../../arm-none-eabi/lib/armv6k/fpu\libstdc++.a(new_opvnt.o)
 .data          0x00174bb0        0x0 c:/devkitpro/devkitarm/bin/../lib/gcc/arm-none-eabi/4.9.2/../../../../arm-none-eabi/lib/armv6k/fpu\libstdc++.a(eh_alloc.o)
 .data          0x00174bb0        0x0 c:/devkitpro/devkitarm/bin/../lib/gcc/arm-none-eabi/4.9.2/../../../../arm-none-eabi/lib/armv6k/fpu\libstdc++.a(class_type_info.o)
 .data          0x00174bb0        0x0 c:/devkitpro/devkitarm/bin/../lib/gcc/arm-none-eabi/4.9.2/../../../../arm-none-eabi/lib/armv6k/fpu\libstdc++.a(eh_terminate.o)
 .data          0x00174bb0        0x0 c:/devkitpro/devkitarm/bin/../lib/gcc/arm-none-eabi/4.9.2/../../../../arm-none-eabi/lib/armv6k/fpu\libstdc++.a(eh_unex_handler.o)
 .data          0x00174bb0        0x0 c:/devkitpro/devkitarm/bin/../lib/gcc/arm-none-eabi/4.9.2/../../../../arm-none-eabi/lib/armv6k/fpu\libstdc++.a(bad_alloc.o)
 .data          0x00174bb0        0x0 c:/devkitpro/devkitarm/bin/../lib/gcc/arm-none-eabi/4.9.2/../../../../arm-none-eabi/lib/armv6k/fpu\libstdc++.a(eh_throw.o)
 .data          0x00174bb0        0x0 c:/devkitpro/devkitarm/bin/../lib/gcc/arm-none-eabi/4.9.2/../../../../arm-none-eabi/lib/armv6k/fpu\libstdc++.a(new_opnt.o)
 .data          0x00174bb0        0x0 c:/devkitpro/devkitarm/bin/../lib/gcc/arm-none-eabi/4.9.2/../../../../arm-none-eabi/lib/armv6k/fpu\libstdc++.a(eh_term_handler.o)
 .data          0x00174bb0        0x0 c:/devkitpro/devkitarm/bin/../lib/gcc/arm-none-eabi/4.9.2/../../../../arm-none-eabi/lib/armv6k/fpu\libstdc++.a(vterminate.o)
 .data          0x00174bb0        0x0 c:/devkitpro/devkitarm/bin/../lib/gcc/arm-none-eabi/4.9.2/../../../../arm-none-eabi/lib/armv6k/fpu\libstdc++.a(eh_type.o)
 .data          0x00174bb0        0x0 c:/devkitpro/devkitarm/bin/../lib/gcc/arm-none-eabi/4.9.2/../../../../arm-none-eabi/lib/armv6k/fpu\libstdc++.a(cp-demangle.o)
 .data          0x00174bb0        0x0 c:/devkitpro/devkitarm/bin/../lib/gcc/arm-none-eabi/4.9.2/armv6k/fpu\libgcc.a(_udivsi3.o)
 .data          0x00174bb0        0x0 c:/devkitpro/devkitarm/bin/../lib/gcc/arm-none-eabi/4.9.2/armv6k/fpu\libgcc.a(_dvmd_tls.o)
 .data          0x00174bb0        0x0 c:/devkitpro/devkitarm/bin/../lib/gcc/arm-none-eabi/4.9.2/armv6k/fpu\libgcc.a(_arm_addsubdf3.o)
 .data          0x00174bb0        0x0 c:/devkitpro/devkitarm/bin/../lib/gcc/arm-none-eabi/4.9.2/armv6k/fpu\libgcc.a(_arm_addsubsf3.o)
 .data          0x00174bb0        0x0 c:/devkitpro/devkitarm/bin/../lib/gcc/arm-none-eabi/4.9.2/armv6k/fpu\libgcc.a(_fixdfdi.o)
 .data          0x00174bb0        0x0 c:/devkitpro/devkitarm/bin/../lib/gcc/arm-none-eabi/4.9.2/armv6k/fpu\libgcc.a(_fixunsdfdi.o)
 .data          0x00174bb0        0x0 c:/devkitpro/devkitarm/bin/../lib/gcc/arm-none-eabi/4.9.2/armv6k/fpu\libgcc.a(unwind-arm.o)
 .data          0x00174bb0        0x0 c:/devkitpro/devkitarm/bin/../lib/gcc/arm-none-eabi/4.9.2/armv6k/fpu\libgcc.a(libunwind.o)
 .data          0x00174bb0        0x0 c:/devkitpro/devkitarm/bin/../lib/gcc/arm-none-eabi/4.9.2/armv6k/fpu\libgcc.a(pr-support.o)
 .data          0x00174bb0        0x0 c:/devkitpro/devkitarm/bin/../lib/gcc/arm-none-eabi/4.9.2/../../../../arm-none-eabi/lib/armv6k/fpu\libg.a(lib_a-abort.o)
 .data          0x00174bb0        0x0 c:/devkitpro/devkitarm/bin/../lib/gcc/arm-none-eabi/4.9.2/../../../../arm-none-eabi/lib/armv6k/fpu\libg.a(lib_a-atof.o)
 .data          0x00174bb0        0x0 c:/devkitpro/devkitarm/bin/../lib/gcc/arm-none-eabi/4.9.2/../../../../arm-none-eabi/lib/armv6k/fpu\libg.a(lib_a-atoi.o)
 .data          0x00174bb0        0x0 c:/devkitpro/devkitarm/bin/../lib/gcc/arm-none-eabi/4.9.2/../../../../arm-none-eabi/lib/armv6k/fpu\libg.a(lib_a-atoll.o)
 .data          0x00174bb0        0x0 c:/devkitpro/devkitarm/bin/../lib/gcc/arm-none-eabi/4.9.2/../../../../arm-none-eabi/lib/armv6k/fpu\libg.a(lib_a-bsearch.o)
 .data          0x00174bb0        0x0 c:/devkitpro/devkitarm/bin/../lib/gcc/arm-none-eabi/4.9.2/../../../../arm-none-eabi/lib/armv6k/fpu\libg.a(lib_a-calloc.o)
 .data          0x00174bb0        0x0 c:/devkitpro/devkitarm/bin/../lib/gcc/arm-none-eabi/4.9.2/../../../../arm-none-eabi/lib/armv6k/fpu\libg.a(lib_a-callocr.o)
 .data          0x00174bb0        0x0 c:/devkitpro/devkitarm/bin/../lib/gcc/arm-none-eabi/4.9.2/../../../../arm-none-eabi/lib/armv6k/fpu\libg.a(lib_a-ctype_.o)
 .data          0x00174bb0        0x0 c:/devkitpro/devkitarm/bin/../lib/gcc/arm-none-eabi/4.9.2/../../../../arm-none-eabi/lib/armv6k/fpu\libg.a(lib_a-errno.o)
 .data          0x00174bb0        0x0 c:/devkitpro/devkitarm/bin/../lib/gcc/arm-none-eabi/4.9.2/../../../../arm-none-eabi/lib/armv6k/fpu\libg.a(lib_a-exit.o)
 .data          0x00174bb0        0x0 c:/devkitpro/devkitarm/bin/../lib/gcc/arm-none-eabi/4.9.2/../../../../arm-none-eabi/lib/armv6k/fpu\libg.a(lib_a-fclose.o)
 .data          0x00174bb0        0x0 c:/devkitpro/devkitarm/bin/../lib/gcc/arm-none-eabi/4.9.2/../../../../arm-none-eabi/lib/armv6k/fpu\libg.a(lib_a-ferror.o)
 .data          0x00174bb0        0x0 c:/devkitpro/devkitarm/bin/../lib/gcc/arm-none-eabi/4.9.2/../../../../arm-none-eabi/lib/armv6k/fpu\libg.a(lib_a-fflush.o)
 .data          0x00174bb0        0x0 c:/devkitpro/devkitarm/bin/../lib/gcc/arm-none-eabi/4.9.2/../../../../arm-none-eabi/lib/armv6k/fpu\libg.a(lib_a-fgetc.o)
 .data          0x00174bb0        0x0 c:/devkitpro/devkitarm/bin/../lib/gcc/arm-none-eabi/4.9.2/../../../../arm-none-eabi/lib/armv6k/fpu\libg.a(lib_a-fileno.o)
 .data          0x00174bb0        0x0 c:/devkitpro/devkitarm/bin/../lib/gcc/arm-none-eabi/4.9.2/../../../../arm-none-eabi/lib/armv6k/fpu\libg.a(lib_a-findfp.o)
 .data          0x00174bb0        0x0 c:/devkitpro/devkitarm/bin/../lib/gcc/arm-none-eabi/4.9.2/../../../../arm-none-eabi/lib/armv6k/fpu\libg.a(lib_a-fini.o)
 .data          0x00174bb0        0x0 c:/devkitpro/devkitarm/bin/../lib/gcc/arm-none-eabi/4.9.2/../../../../arm-none-eabi/lib/armv6k/fpu\libg.a(lib_a-fopen.o)
 .data          0x00174bb0        0x0 c:/devkitpro/devkitarm/bin/../lib/gcc/arm-none-eabi/4.9.2/../../../../arm-none-eabi/lib/armv6k/fpu\libg.a(lib_a-fprintf.o)
 .data          0x00174bb0        0x0 c:/devkitpro/devkitarm/bin/../lib/gcc/arm-none-eabi/4.9.2/../../../../arm-none-eabi/lib/armv6k/fpu\libg.a(lib_a-fputc.o)
 .data          0x00174bb0        0x0 c:/devkitpro/devkitarm/bin/../lib/gcc/arm-none-eabi/4.9.2/../../../../arm-none-eabi/lib/armv6k/fpu\libg.a(lib_a-fputs.o)
 .data          0x00174bb0        0x0 c:/devkitpro/devkitarm/bin/../lib/gcc/arm-none-eabi/4.9.2/../../../../arm-none-eabi/lib/armv6k/fpu\libg.a(lib_a-fread.o)
 .data          0x00174bb0        0x0 c:/devkitpro/devkitarm/bin/../lib/gcc/arm-none-eabi/4.9.2/../../../../arm-none-eabi/lib/armv6k/fpu\libg.a(lib_a-freer.o)
 .data          0x00174bb0        0x0 c:/devkitpro/devkitarm/bin/../lib/gcc/arm-none-eabi/4.9.2/../../../../arm-none-eabi/lib/armv6k/fpu\libg.a(lib_a-fseek.o)
 .data          0x00174bb0        0x0 c:/devkitpro/devkitarm/bin/../lib/gcc/arm-none-eabi/4.9.2/../../../../arm-none-eabi/lib/armv6k/fpu\libg.a(lib_a-fseeko.o)
 .data          0x00174bb0        0x0 c:/devkitpro/devkitarm/bin/../lib/gcc/arm-none-eabi/4.9.2/../../../../arm-none-eabi/lib/armv6k/fpu\libg.a(lib_a-ftell.o)
 .data          0x00174bb0        0x0 c:/devkitpro/devkitarm/bin/../lib/gcc/arm-none-eabi/4.9.2/../../../../arm-none-eabi/lib/armv6k/fpu\libg.a(lib_a-ftello.o)
 .data          0x00174bb0        0x0 c:/devkitpro/devkitarm/bin/../lib/gcc/arm-none-eabi/4.9.2/../../../../arm-none-eabi/lib/armv6k/fpu\libg.a(lib_a-fvwrite.o)
 .data          0x00174bb0        0x0 c:/devkitpro/devkitarm/bin/../lib/gcc/arm-none-eabi/4.9.2/../../../../arm-none-eabi/lib/armv6k/fpu\libg.a(lib_a-fwalk.o)
 .data          0x00174bb0        0x0 c:/devkitpro/devkitarm/bin/../lib/gcc/arm-none-eabi/4.9.2/../../../../arm-none-eabi/lib/armv6k/fpu\libg.a(lib_a-fwrite.o)
 .data          0x00174bb0        0x0 c:/devkitpro/devkitarm/bin/../lib/gcc/arm-none-eabi/4.9.2/../../../../arm-none-eabi/lib/armv6k/fpu\libg.a(lib_a-impure.o)
 .data          0x00174bb0        0x0 c:/devkitpro/devkitarm/bin/../lib/gcc/arm-none-eabi/4.9.2/../../../../arm-none-eabi/lib/armv6k/fpu\libg.a(lib_a-init.o)
 .data          0x00174bb0        0x0 c:/devkitpro/devkitarm/bin/../lib/gcc/arm-none-eabi/4.9.2/../../../../arm-none-eabi/lib/armv6k/fpu\libg.a(lib_a-isalpha.o)
 .data          0x00174bb0        0x0 c:/devkitpro/devkitarm/bin/../lib/gcc/arm-none-eabi/4.9.2/../../../../arm-none-eabi/lib/armv6k/fpu\libg.a(lib_a-isspace.o)
 .data          0x00174bb0        0x0 c:/devkitpro/devkitarm/bin/../lib/gcc/arm-none-eabi/4.9.2/../../../../arm-none-eabi/lib/armv6k/fpu\libg.a(lib_a-makebuf.o)
 .data          0x00174bb0        0x0 c:/devkitpro/devkitarm/bin/../lib/gcc/arm-none-eabi/4.9.2/../../../../arm-none-eabi/lib/armv6k/fpu\libg.a(lib_a-malign.o)
 .data          0x00174bb0        0x0 c:/devkitpro/devkitarm/bin/../lib/gcc/arm-none-eabi/4.9.2/../../../../arm-none-eabi/lib/armv6k/fpu\libg.a(lib_a-malignr.o)
 .data          0x00174bb0        0x0 c:/devkitpro/devkitarm/bin/../lib/gcc/arm-none-eabi/4.9.2/../../../../arm-none-eabi/lib/armv6k/fpu\libg.a(lib_a-malloc.o)
 .data          0x00174bb0        0x0 c:/devkitpro/devkitarm/bin/../lib/gcc/arm-none-eabi/4.9.2/../../../../arm-none-eabi/lib/armv6k/fpu\libg.a(lib_a-mallocr.o)
 .data          0x00174bb0        0x0 c:/devkitpro/devkitarm/bin/../lib/gcc/arm-none-eabi/4.9.2/../../../../arm-none-eabi/lib/armv6k/fpu\libg.a(lib_a-memchr.o)
 .data          0x00174bb0        0x0 c:/devkitpro/devkitarm/bin/../lib/gcc/arm-none-eabi/4.9.2/../../../../arm-none-eabi/lib/armv6k/fpu\libg.a(lib_a-memcmp.o)
 .data          0x00174bb0        0x0 c:/devkitpro/devkitarm/bin/../lib/gcc/arm-none-eabi/4.9.2/../../../../arm-none-eabi/lib/armv6k/fpu\libg.a(lib_a-memcpy.o)
 .data          0x00174bb0        0x0 c:/devkitpro/devkitarm/bin/../lib/gcc/arm-none-eabi/4.9.2/../../../../arm-none-eabi/lib/armv6k/fpu\libg.a(lib_a-memmove.o)
 .data          0x00174bb0        0x0 c:/devkitpro/devkitarm/bin/../lib/gcc/arm-none-eabi/4.9.2/../../../../arm-none-eabi/lib/armv6k/fpu\libg.a(lib_a-memset.o)
 .data          0x00174bb0        0x0 c:/devkitpro/devkitarm/bin/../lib/gcc/arm-none-eabi/4.9.2/../../../../arm-none-eabi/lib/armv6k/fpu\libg.a(lib_a-mlock.o)
 .data          0x00174bb0        0x0 c:/devkitpro/devkitarm/bin/../lib/gcc/arm-none-eabi/4.9.2/../../../../arm-none-eabi/lib/armv6k/fpu\libg.a(lib_a-printf.o)
 .data          0x00174bb0        0x0 c:/devkitpro/devkitarm/bin/../lib/gcc/arm-none-eabi/4.9.2/../../../../arm-none-eabi/lib/armv6k/fpu\libg.a(lib_a-putchar.o)
 .data          0x00174bb0        0x0 c:/devkitpro/devkitarm/bin/../lib/gcc/arm-none-eabi/4.9.2/../../../../arm-none-eabi/lib/armv6k/fpu\libg.a(lib_a-putc.o)
 .data          0x00174bb0        0x0 c:/devkitpro/devkitarm/bin/../lib/gcc/arm-none-eabi/4.9.2/../../../../arm-none-eabi/lib/armv6k/fpu\libg.a(lib_a-puts.o)
 .data          0x00174bb0        0x0 c:/devkitpro/devkitarm/bin/../lib/gcc/arm-none-eabi/4.9.2/../../../../arm-none-eabi/lib/armv6k/fpu\libg.a(lib_a-qsort.o)
 .data          0x00174bb0        0x0 c:/devkitpro/devkitarm/bin/../lib/gcc/arm-none-eabi/4.9.2/../../../../arm-none-eabi/lib/armv6k/fpu\libg.a(lib_a-rand.o)
 .data          0x00174bb0        0x0 c:/devkitpro/devkitarm/bin/../lib/gcc/arm-none-eabi/4.9.2/../../../../arm-none-eabi/lib/armv6k/fpu\libg.a(lib_a-realloc.o)
 .data          0x00174bb0        0x0 c:/devkitpro/devkitarm/bin/../lib/gcc/arm-none-eabi/4.9.2/../../../../arm-none-eabi/lib/armv6k/fpu\libg.a(lib_a-reallocr.o)
 .data          0x00174bb0        0x0 c:/devkitpro/devkitarm/bin/../lib/gcc/arm-none-eabi/4.9.2/../../../../arm-none-eabi/lib/armv6k/fpu\libg.a(lib_a-refill.o)
 .data          0x00174bb0        0x0 c:/devkitpro/devkitarm/bin/../lib/gcc/arm-none-eabi/4.9.2/../../../../arm-none-eabi/lib/armv6k/fpu\libg.a(lib_a-rewind.o)
 .data          0x00174bb0        0x0 c:/devkitpro/devkitarm/bin/../lib/gcc/arm-none-eabi/4.9.2/../../../../arm-none-eabi/lib/armv6k/fpu\libg.a(lib_a-rget.o)
 .data          0x00174bb0        0x0 c:/devkitpro/devkitarm/bin/../lib/gcc/arm-none-eabi/4.9.2/../../../../arm-none-eabi/lib/armv6k/fpu\libg.a(lib_a-setvbuf.o)
 .data          0x00174bb0        0x0 c:/devkitpro/devkitarm/bin/../lib/gcc/arm-none-eabi/4.9.2/../../../../arm-none-eabi/lib/armv6k/fpu\libg.a(lib_a-signal.o)
 .data          0x00174bb0        0x0 c:/devkitpro/devkitarm/bin/../lib/gcc/arm-none-eabi/4.9.2/../../../../arm-none-eabi/lib/armv6k/fpu\libg.a(lib_a-siprintf.o)
 .data          0x00174bb0        0x0 c:/devkitpro/devkitarm/bin/../lib/gcc/arm-none-eabi/4.9.2/../../../../arm-none-eabi/lib/armv6k/fpu\libg.a(lib_a-snprintf.o)
 .data          0x00174bb0        0x0 c:/devkitpro/devkitarm/bin/../lib/gcc/arm-none-eabi/4.9.2/../../../../arm-none-eabi/lib/armv6k/fpu\libg.a(lib_a-sprintf.o)
 .data          0x00174bb0        0x0 c:/devkitpro/devkitarm/bin/../lib/gcc/arm-none-eabi/4.9.2/../../../../arm-none-eabi/lib/armv6k/fpu\libg.a(lib_a-sscanf.o)
 .data          0x00174bb0        0x0 c:/devkitpro/devkitarm/bin/../lib/gcc/arm-none-eabi/4.9.2/../../../../arm-none-eabi/lib/armv6k/fpu\libg.a(lib_a-stdio.o)
 .data          0x00174bb0        0x0 c:/devkitpro/devkitarm/bin/../lib/gcc/arm-none-eabi/4.9.2/../../../../arm-none-eabi/lib/armv6k/fpu\libg.a(lib_a-strcasecmp.o)
 .data          0x00174bb0        0x0 c:/devkitpro/devkitarm/bin/../lib/gcc/arm-none-eabi/4.9.2/../../../../arm-none-eabi/lib/armv6k/fpu\libg.a(lib_a-strcat.o)
 .data          0x00174bb0        0x0 c:/devkitpro/devkitarm/bin/../lib/gcc/arm-none-eabi/4.9.2/../../../../arm-none-eabi/lib/armv6k/fpu\libg.a(lib_a-strchr.o)
 .data          0x00174bb0        0x0 c:/devkitpro/devkitarm/bin/../lib/gcc/arm-none-eabi/4.9.2/../../../../arm-none-eabi/lib/armv6k/fpu\libg.a(lib_a-strcmp.o)
 .data          0x00174bb0        0x0 c:/devkitpro/devkitarm/bin/../lib/gcc/arm-none-eabi/4.9.2/../../../../arm-none-eabi/lib/armv6k/fpu\libg.a(lib_a-strcpy.o)
 .data          0x00174bb0        0x0 c:/devkitpro/devkitarm/bin/../lib/gcc/arm-none-eabi/4.9.2/../../../../arm-none-eabi/lib/armv6k/fpu\libg.a(lib_a-strdup.o)
 .data          0x00174bb0        0x0 c:/devkitpro/devkitarm/bin/../lib/gcc/arm-none-eabi/4.9.2/../../../../arm-none-eabi/lib/armv6k/fpu\libg.a(lib_a-strdup_r.o)
 .data          0x00174bb0        0x0 c:/devkitpro/devkitarm/bin/../lib/gcc/arm-none-eabi/4.9.2/../../../../arm-none-eabi/lib/armv6k/fpu\libg.a(lib_a-strlen.o)
 .data          0x00174bb0        0x0 c:/devkitpro/devkitarm/bin/../lib/gcc/arm-none-eabi/4.9.2/../../../../arm-none-eabi/lib/armv6k/fpu\libg.a(lib_a-strncat.o)
 .data          0x00174bb0        0x0 c:/devkitpro/devkitarm/bin/../lib/gcc/arm-none-eabi/4.9.2/../../../../arm-none-eabi/lib/armv6k/fpu\libg.a(lib_a-strncmp.o)
 .data          0x00174bb0        0x0 c:/devkitpro/devkitarm/bin/../lib/gcc/arm-none-eabi/4.9.2/../../../../arm-none-eabi/lib/armv6k/fpu\libg.a(lib_a-strncpy.o)
 .data          0x00174bb0        0x0 c:/devkitpro/devkitarm/bin/../lib/gcc/arm-none-eabi/4.9.2/../../../../arm-none-eabi/lib/armv6k/fpu\libg.a(lib_a-strrchr.o)
 .data          0x00174bb0        0x0 c:/devkitpro/devkitarm/bin/../lib/gcc/arm-none-eabi/4.9.2/../../../../arm-none-eabi/lib/armv6k/fpu\libg.a(lib_a-strtod.o)
 .data          0x00174bb0        0x0 c:/devkitpro/devkitarm/bin/../lib/gcc/arm-none-eabi/4.9.2/../../../../arm-none-eabi/lib/armv6k/fpu\libg.a(lib_a-strtoll.o)
 .data          0x00174bb0        0x0 c:/devkitpro/devkitarm/bin/../lib/gcc/arm-none-eabi/4.9.2/../../../../arm-none-eabi/lib/armv6k/fpu\libg.a(lib_a-strtoll_r.o)
 .data          0x00174bb0        0x0 c:/devkitpro/devkitarm/bin/../lib/gcc/arm-none-eabi/4.9.2/../../../../arm-none-eabi/lib/armv6k/fpu\libg.a(lib_a-strtol.o)
 .data          0x00174bb0        0x0 c:/devkitpro/devkitarm/bin/../lib/gcc/arm-none-eabi/4.9.2/../../../../arm-none-eabi/lib/armv6k/fpu\libg.a(lib_a-strtoull.o)
 .data          0x00174bb0        0x0 c:/devkitpro/devkitarm/bin/../lib/gcc/arm-none-eabi/4.9.2/../../../../arm-none-eabi/lib/armv6k/fpu\libg.a(lib_a-strtoull_r.o)
 .data          0x00174bb0        0x0 c:/devkitpro/devkitarm/bin/../lib/gcc/arm-none-eabi/4.9.2/../../../../arm-none-eabi/lib/armv6k/fpu\libg.a(lib_a-strtoul.o)
 .data          0x00174bb0        0x0 c:/devkitpro/devkitarm/bin/../lib/gcc/arm-none-eabi/4.9.2/../../../../arm-none-eabi/lib/armv6k/fpu\libg.a(lib_a-svfiprintf.o)
 .data          0x00174bb0        0x0 c:/devkitpro/devkitarm/bin/../lib/gcc/arm-none-eabi/4.9.2/../../../../arm-none-eabi/lib/armv6k/fpu\libg.a(lib_a-svfprintf.o)
 .data          0x00174bb0        0x0 c:/devkitpro/devkitarm/bin/../lib/gcc/arm-none-eabi/4.9.2/../../../../arm-none-eabi/lib/armv6k/fpu\libg.a(lib_a-svfscanf.o)
 .data          0x00174bb0        0x0 c:/devkitpro/devkitarm/bin/../lib/gcc/arm-none-eabi/4.9.2/../../../../arm-none-eabi/lib/armv6k/fpu\libg.a(lib_a-sysclose.o)
 .data          0x00174bb0        0x0 c:/devkitpro/devkitarm/bin/../lib/gcc/arm-none-eabi/4.9.2/../../../../arm-none-eabi/lib/armv6k/fpu\libg.a(lib_a-sysfstat.o)
 .data          0x00174bb0        0x0 c:/devkitpro/devkitarm/bin/../lib/gcc/arm-none-eabi/4.9.2/../../../../arm-none-eabi/lib/armv6k/fpu\libg.a(lib_a-sysopen.o)
 .data          0x00174bb0        0x0 c:/devkitpro/devkitarm/bin/../lib/gcc/arm-none-eabi/4.9.2/../../../../arm-none-eabi/lib/armv6k/fpu\libg.a(lib_a-sysstat.o)
 .data          0x00174bb0        0x0 c:/devkitpro/devkitarm/bin/../lib/gcc/arm-none-eabi/4.9.2/../../../../arm-none-eabi/lib/armv6k/fpu\libg.a(lib_a-syswrite.o)
 .data          0x00174bb0        0x0 c:/devkitpro/devkitarm/bin/../lib/gcc/arm-none-eabi/4.9.2/../../../../arm-none-eabi/lib/armv6k/fpu\libg.a(lib_a-time.o)
 .data          0x00174bb0        0x0 c:/devkitpro/devkitarm/bin/../lib/gcc/arm-none-eabi/4.9.2/../../../../arm-none-eabi/lib/armv6k/fpu\libg.a(lib_a-vfprintf.o)
 .data          0x00174bb0        0x0 c:/devkitpro/devkitarm/bin/../lib/gcc/arm-none-eabi/4.9.2/../../../../arm-none-eabi/lib/armv6k/fpu\libg.a(lib_a-vsprintf.o)
 .data          0x00174bb0        0x0 c:/devkitpro/devkitarm/bin/../lib/gcc/arm-none-eabi/4.9.2/../../../../arm-none-eabi/lib/armv6k/fpu\libg.a(lib_a-wbuf.o)
 .data          0x00174bb0        0x0 c:/devkitpro/devkitarm/bin/../lib/gcc/arm-none-eabi/4.9.2/../../../../arm-none-eabi/lib/armv6k/fpu\libg.a(lib_a-wcrtomb.o)
 .data          0x00174bb0        0x0 c:/devkitpro/devkitarm/bin/../lib/gcc/arm-none-eabi/4.9.2/../../../../arm-none-eabi/lib/armv6k/fpu\libg.a(lib_a-wcsrtombs.o)
 .data          0x00174bb0        0x0 c:/devkitpro/devkitarm/bin/../lib/gcc/arm-none-eabi/4.9.2/../../../../arm-none-eabi/lib/armv6k/fpu\libg.a(lib_a-wctomb_r.o)
 .data          0x00174bb0        0x0 c:/devkitpro/devkitarm/bin/../lib/gcc/arm-none-eabi/4.9.2/../../../../arm-none-eabi/lib/armv6k/fpu\libg.a(lib_a-wsetup.o)
 .data          0x00174bb0        0x0 c:/devkitpro/devkitarm/bin/../lib/gcc/arm-none-eabi/4.9.2/../../../../arm-none-eabi/lib/armv6k/fpu\libg.a(lib_a-__call_atexit.o)
 .data          0x00174bb0        0x0 c:/devkitpro/devkitarm/bin/../lib/gcc/arm-none-eabi/4.9.2/../../../../arm-none-eabi/lib/armv6k/fpu\libg.a(lib_a-dtoa.o)
 .data          0x00174bb0        0x0 c:/devkitpro/devkitarm/bin/../lib/gcc/arm-none-eabi/4.9.2/../../../../arm-none-eabi/lib/armv6k/fpu\libg.a(lib_a-flags.o)
 .data          0x00174bb0        0x0 c:/devkitpro/devkitarm/bin/../lib/gcc/arm-none-eabi/4.9.2/../../../../arm-none-eabi/lib/armv6k/fpu\libg.a(lib_a-gdtoa-gethex.o)
 .data          0x00174bb0        0x0 c:/devkitpro/devkitarm/bin/../lib/gcc/arm-none-eabi/4.9.2/../../../../arm-none-eabi/lib/armv6k/fpu\libg.a(lib_a-gdtoa-hexnan.o)
 .data          0x00174bb0        0x0 c:/devkitpro/devkitarm/bin/../lib/gcc/arm-none-eabi/4.9.2/../../../../arm-none-eabi/lib/armv6k/fpu\libg.a(lib_a-iswspace.o)
 .data          0x00174bb0        0x0 c:/devkitpro/devkitarm/bin/../lib/gcc/arm-none-eabi/4.9.2/../../../../arm-none-eabi/lib/armv6k/fpu\libg.a(lib_a-jp2uc.o)
 .data          0x00174bb0        0x0 c:/devkitpro/devkitarm/bin/../lib/gcc/arm-none-eabi/4.9.2/../../../../arm-none-eabi/lib/armv6k/fpu\libg.a(lib_a-locale.o)
 .data          0x00174bb0        0x0 c:/devkitpro/devkitarm/bin/../lib/gcc/arm-none-eabi/4.9.2/../../../../arm-none-eabi/lib/armv6k/fpu\libg.a(lib_a-mbrtowc.o)
 .data          0x00174bb0        0x0 c:/devkitpro/devkitarm/bin/../lib/gcc/arm-none-eabi/4.9.2/../../../../arm-none-eabi/lib/armv6k/fpu\libg.a(lib_a-mbtowc_r.o)
 .data          0x00174bb0        0x0 c:/devkitpro/devkitarm/bin/../lib/gcc/arm-none-eabi/4.9.2/../../../../arm-none-eabi/lib/armv6k/fpu\libg.a(lib_a-mprec.o)
 .data          0x00174bb0        0x0 c:/devkitpro/devkitarm/bin/../lib/gcc/arm-none-eabi/4.9.2/../../../../arm-none-eabi/lib/armv6k/fpu\libg.a(lib_a-sccl.o)
 .data          0x00174bb0        0x0 c:/devkitpro/devkitarm/bin/../lib/gcc/arm-none-eabi/4.9.2/../../../../arm-none-eabi/lib/armv6k/fpu\libg.a(lib_a-sf_nan.o)
 .data          0x00174bb0        0x0 c:/devkitpro/devkitarm/bin/../lib/gcc/arm-none-eabi/4.9.2/../../../../arm-none-eabi/lib/armv6k/fpu\libg.a(lib_a-s_fpclassify.o)
 .data          0x00174bb0        0x0 c:/devkitpro/devkitarm/bin/../lib/gcc/arm-none-eabi/4.9.2/../../../../arm-none-eabi/lib/armv6k/fpu\libg.a(lib_a-s_frexp.o)
 .data          0x00174bb0        0x0 c:/devkitpro/devkitarm/bin/../lib/gcc/arm-none-eabi/4.9.2/../../../../arm-none-eabi/lib/armv6k/fpu\libg.a(lib_a-stpncpy.o)
 .data          0x00174bb0        0x0 c:/devkitpro/devkitarm/bin/../lib/gcc/arm-none-eabi/4.9.2/../../../../arm-none-eabi/lib/armv6k/fpu\libg.a(lib_a-strlcpy.o)
 .data          0x00174bb0        0x0 c:/devkitpro/devkitarm/bin/../lib/gcc/arm-none-eabi/4.9.2/../../../../arm-none-eabi/lib/armv6k/fpu\libg.a(lib_a-strncasecmp.o)
 .data          0x00174bb0        0x0 c:/devkitpro/devkitarm/bin/../lib/gcc/arm-none-eabi/4.9.2/../../../../arm-none-eabi/lib/armv6k/fpu\libg.a(lib_a-svfiscanf.o)
 .data          0x00174bb0        0x0 c:/devkitpro/devkitarm/bin/../lib/gcc/arm-none-eabi/4.9.2/../../../../arm-none-eabi/lib/armv6k/fpu\libg.a(lib_a-ungetc.o)
 .data          0x00174bb0        0x0 c:/devkitpro/devkitarm/bin/../lib/gcc/arm-none-eabi/4.9.2/../../../../arm-none-eabi/lib/armv6k/fpu\libg.a(lib_a-vfiprintf.o)
 .data          0x00174bb0        0x0 c:/devkitpro/devkitarm/bin/../lib/gcc/arm-none-eabi/4.9.2/../../../../arm-none-eabi/lib/armv6k/fpu\libg.a(lib_a-wcsnrtombs.o)
 .data          0x00174bb0        0x0 c:/devkitpro/devkitarm/bin/../lib/gcc/arm-none-eabi/4.9.2/../../../../arm-none-eabi/lib/armv6k/fpu\libg.a(lib_a-fputwc.o)
 .data          0x00174bb0        0x0 c:/devkitpro/devkitarm/bin/../lib/gcc/arm-none-eabi/4.9.2/../../../../arm-none-eabi/lib/armv6k/fpu\libg.a(lib_a-getenv_r.o)
 .data          0x00174bb0        0x0 c:/devkitpro/devkitarm/bin/../lib/gcc/arm-none-eabi/4.9.2/../../../../arm-none-eabi/lib/armv6k/fpu\libg.a(lib_a-environ.o)
 .data          0x00174bb0        0x0 c:/devkitpro/devkitarm/bin/../lib/gcc/arm-none-eabi/4.9.2/../../../../arm-none-eabi/lib/armv6k/fpu\libg.a(lib_a-envlock.o)
 .data          0x00174bb0       0x44 c:/devkitpro/devkitarm/bin/../lib/gcc/arm-none-eabi/4.9.2/../../../../arm-none-eabi/lib/armv6k/fpu\libsysbase.a(iosupport.o)
                0x00174bb4                devoptab_list
 .data          0x00174bf4        0x0 c:/devkitpro/devkitarm/bin/../lib/gcc/arm-none-eabi/4.9.2/../../../../arm-none-eabi/lib/armv6k/fpu\libsysbase.a(close.o)
 .data          0x00174bf4        0x0 c:/devkitpro/devkitarm/bin/../lib/gcc/arm-none-eabi/4.9.2/../../../../arm-none-eabi/lib/armv6k/fpu\libsysbase.a(fstat.o)
 .data          0x00174bf4        0x0 c:/devkitpro/devkitarm/bin/../lib/gcc/arm-none-eabi/4.9.2/../../../../arm-none-eabi/lib/armv6k/fpu\libsysbase.a(getpid.o)
 .data          0x00174bf4        0x0 c:/devkitpro/devkitarm/bin/../lib/gcc/arm-none-eabi/4.9.2/../../../../arm-none-eabi/lib/armv6k/fpu\libsysbase.a(gettod.o)
 .data          0x00174bf4        0x0 c:/devkitpro/devkitarm/bin/../lib/gcc/arm-none-eabi/4.9.2/../../../../arm-none-eabi/lib/armv6k/fpu\libsysbase.a(isatty.o)
 .data          0x00174bf4        0x0 c:/devkitpro/devkitarm/bin/../lib/gcc/arm-none-eabi/4.9.2/../../../../arm-none-eabi/lib/armv6k/fpu\libsysbase.a(kill.o)
 .data          0x00174bf4        0x0 c:/devkitpro/devkitarm/bin/../lib/gcc/arm-none-eabi/4.9.2/../../../../arm-none-eabi/lib/armv6k/fpu\libsysbase.a(lseek.o)
 .data          0x00174bf4        0x0 c:/devkitpro/devkitarm/bin/../lib/gcc/arm-none-eabi/4.9.2/../../../../arm-none-eabi/lib/armv6k/fpu\libsysbase.a(open.o)
 .data          0x00174bf4        0x0 c:/devkitpro/devkitarm/bin/../lib/gcc/arm-none-eabi/4.9.2/../../../../arm-none-eabi/lib/armv6k/fpu\libsysbase.a(read.o)
 .data          0x00174bf4        0x0 c:/devkitpro/devkitarm/bin/../lib/gcc/arm-none-eabi/4.9.2/../../../../arm-none-eabi/lib/armv6k/fpu\libsysbase.a(sbrk.o)
 .data          0x00174bf4        0x0 c:/devkitpro/devkitarm/bin/../lib/gcc/arm-none-eabi/4.9.2/../../../../arm-none-eabi/lib/armv6k/fpu\libsysbase.a(stat.o)
 .data          0x00174bf4        0x0 c:/devkitpro/devkitarm/bin/../lib/gcc/arm-none-eabi/4.9.2/../../../../arm-none-eabi/lib/armv6k/fpu\libsysbase.a(write.o)
 .data          0x00174bf4        0x0 c:/devkitpro/devkitarm/bin/../lib/gcc/arm-none-eabi/4.9.2/../../../../arm-none-eabi/lib/armv6k/fpu\libsysbase.a(_exit.o)
 .data          0x00174bf4        0x0 c:/devkitpro/devkitarm/bin/../lib/gcc/arm-none-eabi/4.9.2/../../../../arm-none-eabi/lib/armv6k/fpu\libsysbase.a(malloc_vars.o)
 .data          0x00174bf4     0x1000 c:/devkitpro/devkitarm/bin/../lib/gcc/arm-none-eabi/4.9.2/../../../../arm-none-eabi/lib/armv6k/fpu\libsysbase.a(chdir.o)
 .data          0x00175bf4        0x0 c:/devkitpro/devkitarm/bin/../lib/gcc/arm-none-eabi/4.9.2/../../../../arm-none-eabi/lib/armv6k/fpu\libsysbase.a(flock.o)
 .data          0x00175bf4        0x0 c:/devkitpro/devkitarm/bin/../lib/gcc/arm-none-eabi/4.9.2/../../../../arm-none-eabi/lib/armv6k/fpu\libsysbase.a(syscall_support.o)
 .data          0x00175bf4     0x1024 c:/devkitpro/devkitarm/bin/../lib/gcc/arm-none-eabi/4.9.2/../../../../arm-none-eabi/lib/armv6k/fpu\libsysbase.a(handle_manager.o)
 .data          0x00176c18        0x0 c:/devkitpro/devkitarm/bin/../lib/gcc/arm-none-eabi/4.9.2/../../../../arm-none-eabi/lib/armv6k/fpu\libsysbase.a(ftruncate.o)
 .data          0x00176c18        0x0 c:/devkitpro/devkitarm/bin/../lib/gcc/arm-none-eabi/4.9.2/../../../../arm-none-eabi/lib/armv6k/fpu\libsysbase.a(dirent.o)
 .data          0x00176c18        0x0 c:/devkitpro/devkitarm/bin/../lib/gcc/arm-none-eabi/4.9.2/../../../../arm-none-eabi/lib/armv6k/fpu\libsysbase.a(getreent.o)
 .data          0x00176c18        0x0 c:/devkitpro/devkitarm/bin/../lib/gcc/arm-none-eabi/4.9.2/armv6k/fpu\libgcc.a(_divsi3.o)
 .data          0x00176c18        0x0 c:/devkitpro/devkitarm/bin/../lib/gcc/arm-none-eabi/4.9.2/armv6k/fpu\libgcc.a(_aeabi_uldivmod.o)
 .data          0x00176c18        0x0 c:/devkitpro/devkitarm/bin/../lib/gcc/arm-none-eabi/4.9.2/armv6k/fpu\libgcc.a(bpabi.o)
 .data          0x00176c18        0x0 c:/devkitpro/devkitarm/bin/../lib/gcc/arm-none-eabi/4.9.2/armv6k/fpu\libgcc.a(_divdi3.o)
 .data          0x00176c18        0x0 c:/devkitpro/devkitarm/bin/../lib/gcc/arm-none-eabi/4.9.2/armv6k/fpu\libgcc.a(_udivdi3.o)
 .data          0x00176c18        0x0 c:/devkitpro/devkitarm/bin/../lib/gcc/arm-none-eabi/4.9.2/../../../../arm-none-eabi/lib/armv6k/fpu\libg.a(lib_a-strnlen.o)
 .data          0x00176c18        0x0 c:/devkitpro/devkitarm/bin/../lib/gcc/arm-none-eabi/4.9.2/armv6k/fpu/crtend.o
 .data          0x00176c18        0x0 c:/devkitpro/devkitarm/bin/../lib/gcc/arm-none-eabi/4.9.2/armv6k/fpu/crtn.o
 *(.data.*)
 .data._ZN10__cxxabiv120__unexpected_handlerE
                0x00176c18        0x4 c:/devkitpro/devkitarm/bin/../lib/gcc/arm-none-eabi/4.9.2/../../../../arm-none-eabi/lib/armv6k/fpu\libstdc++.a(eh_unex_handler.o)
                0x00176c18                __cxxabiv1::__unexpected_handler
 .data._ZN10__cxxabiv119__terminate_handlerE
                0x00176c1c        0x4 c:/devkitpro/devkitarm/bin/../lib/gcc/arm-none-eabi/4.9.2/../../../../arm-none-eabi/lib/armv6k/fpu\libstdc++.a(eh_term_handler.o)
                0x00176c1c                __cxxabiv1::__terminate_handler
 .data.__ctype_ptr__
                0x00176c20        0x4 c:/devkitpro/devkitarm/bin/../lib/gcc/arm-none-eabi/4.9.2/../../../../arm-none-eabi/lib/armv6k/fpu\libg.a(lib_a-ctype_.o)
                0x00176c20                __ctype_ptr__
 *fill*         0x00176c24        0x4 
 .data.impure_data
                0x00176c28      0x428 c:/devkitpro/devkitarm/bin/../lib/gcc/arm-none-eabi/4.9.2/../../../../arm-none-eabi/lib/armv6k/fpu\libg.a(lib_a-impure.o)
 .data._impure_ptr
                0x00177050        0x4 c:/devkitpro/devkitarm/bin/../lib/gcc/arm-none-eabi/4.9.2/../../../../arm-none-eabi/lib/armv6k/fpu\libg.a(lib_a-impure.o)
                0x00177050                _impure_ptr
 .data.__malloc_av_
                0x00177054      0x408 c:/devkitpro/devkitarm/bin/../lib/gcc/arm-none-eabi/4.9.2/../../../../arm-none-eabi/lib/armv6k/fpu\libg.a(lib_a-mallocr.o)
                0x00177054                __malloc_av_
 .data.__malloc_trim_threshold
                0x0017745c        0x4 c:/devkitpro/devkitarm/bin/../lib/gcc/arm-none-eabi/4.9.2/../../../../arm-none-eabi/lib/armv6k/fpu\libg.a(lib_a-mallocr.o)
                0x0017745c                __malloc_trim_threshold
 .data.__malloc_sbrk_base
                0x00177460        0x4 c:/devkitpro/devkitarm/bin/../lib/gcc/arm-none-eabi/4.9.2/../../../../arm-none-eabi/lib/armv6k/fpu\libg.a(lib_a-mallocr.o)
                0x00177460                __malloc_sbrk_base
 .data.__wctomb
                0x00177464        0x4 c:/devkitpro/devkitarm/bin/../lib/gcc/arm-none-eabi/4.9.2/../../../../arm-none-eabi/lib/armv6k/fpu\libg.a(lib_a-wctomb_r.o)
                0x00177464                __wctomb
 .data.lc_message_charset
                0x00177468       0x20 c:/devkitpro/devkitarm/bin/../lib/gcc/arm-none-eabi/4.9.2/../../../../arm-none-eabi/lib/armv6k/fpu\libg.a(lib_a-locale.o)
 .data.lconv    0x00177488       0x38 c:/devkitpro/devkitarm/bin/../lib/gcc/arm-none-eabi/4.9.2/../../../../arm-none-eabi/lib/armv6k/fpu\libg.a(lib_a-locale.o)
 .data.current_categories
                0x001774c0       0xe0 c:/devkitpro/devkitarm/bin/../lib/gcc/arm-none-eabi/4.9.2/../../../../arm-none-eabi/lib/armv6k/fpu\libg.a(lib_a-locale.o)
 .data.lc_ctype_charset
                0x001775a0       0x20 c:/devkitpro/devkitarm/bin/../lib/gcc/arm-none-eabi/4.9.2/../../../../arm-none-eabi/lib/armv6k/fpu\libg.a(lib_a-locale.o)
 .data.__default_locale
                0x001775c0       0x20 c:/devkitpro/devkitarm/bin/../lib/gcc/arm-none-eabi/4.9.2/../../../../arm-none-eabi/lib/armv6k/fpu\libg.a(lib_a-locale.o)
                0x001775c0                __default_locale
 .data.__mb_cur_max
                0x001775e0        0x4 c:/devkitpro/devkitarm/bin/../lib/gcc/arm-none-eabi/4.9.2/../../../../arm-none-eabi/lib/armv6k/fpu\libg.a(lib_a-locale.o)
                0x001775e0                __mb_cur_max
 .data.__mbtowc
                0x001775e4        0x4 c:/devkitpro/devkitarm/bin/../lib/gcc/arm-none-eabi/4.9.2/../../../../arm-none-eabi/lib/armv6k/fpu\libg.a(lib_a-mbtowc_r.o)
                0x001775e4                __mbtowc
 .data.environ  0x001775e8        0x4 c:/devkitpro/devkitarm/bin/../lib/gcc/arm-none-eabi/4.9.2/../../../../arm-none-eabi/lib/armv6k/fpu\libg.a(lib_a-environ.o)
                0x001775e8                environ
 *(.gnu.linkonce.d*)
                0x001775ec                . = ALIGN (0x4)

.igot.plt       0x001775ec        0x0
 .igot.plt      0x001775ec        0x0 c:/devkitpro/devkitarm/bin/../lib/gcc/arm-none-eabi/4.9.2/../../../../arm-none-eabi/lib/armv6k/fpu/3dsx_crt0.o

.eh_frame       0x001775ec       0x74
 .eh_frame      0x001775ec        0x0 c:/devkitpro/devkitarm/bin/../lib/gcc/arm-none-eabi/4.9.2/armv6k/fpu/crtbegin.o
 .eh_frame      0x001775ec       0x70 c:/devkitpro/devkitarm/bin/../lib/gcc/arm-none-eabi/4.9.2/../../../../arm-none-eabi/lib/armv6k/fpu\libg.a(lib_a-strcmp.o)
 .eh_frame      0x0017765c        0x4 c:/devkitpro/devkitarm/bin/../lib/gcc/arm-none-eabi/4.9.2/armv6k/fpu/crtend.o

.jcr            0x00177660        0x4
 .jcr           0x00177660        0x0 c:/devkitpro/devkitarm/bin/../lib/gcc/arm-none-eabi/4.9.2/armv6k/fpu/crtbegin.o
 .jcr           0x00177660        0x4 c:/devkitpro/devkitarm/bin/../lib/gcc/arm-none-eabi/4.9.2/armv6k/fpu/crtend.o

.tm_clone_table
                0x00177664        0x0
 .tm_clone_table
                0x00177664        0x0 c:/devkitpro/devkitarm/bin/../lib/gcc/arm-none-eabi/4.9.2/armv6k/fpu/crtbegin.o
 .tm_clone_table
                0x00177664        0x0 c:/devkitpro/devkitarm/bin/../lib/gcc/arm-none-eabi/4.9.2/armv6k/fpu/crtend.o
                0x00177664                __TMC_END__

.preinit_array  0x00177664        0x0
                0x00177664                PROVIDE (__preinit_array_start, .)
 *(.preinit_array)
                0x00177664                PROVIDE (__preinit_array_end, .)

.init_array     0x00177664        0x4
                0x00177664                PROVIDE (__init_array_start, .)
 *(SORT(.init_array.*))
 *(.init_array)
 .init_array    0x00177664        0x4 c:/devkitpro/devkitarm/bin/../lib/gcc/arm-none-eabi/4.9.2/armv6k/fpu/crtbegin.o
                0x00177668                PROVIDE (__init_array_end, .)

.fini_array     0x00177668        0x4
                0x00177668                PROVIDE (__fini_array_start, .)
 *(.fini_array)
 .fini_array    0x00177668        0x4 c:/devkitpro/devkitarm/bin/../lib/gcc/arm-none-eabi/4.9.2/armv6k/fpu/crtbegin.o
 *(SORT(.fini_array.*))
                0x0017766c                PROVIDE (__fini_array_end, .)

.ctors
 *crtbegin.o(.ctors)
 *(EXCLUDE_FILE(*crtend.o) .ctors)
 *(SORT(.ctors.*))
 *(.ctors)

.dtors
 *crtbegin.o(.dtors)
 *(EXCLUDE_FILE(*crtend.o) .dtors)
 *(SORT(.dtors.*))
 *(.dtors)
                0x0017766c                __bss_start__ = .

.bss            0x0017766c    0x16234
 *(.dynbss)
 *(.bss)
 .bss           0x0017766c        0x0 c:/devkitpro/devkitarm/bin/../lib/gcc/arm-none-eabi/4.9.2/../../../../arm-none-eabi/lib/armv6k/fpu/3dsx_crt0.o
 .bss           0x0017766c        0x0 c:/devkitpro/devkitarm/bin/../lib/gcc/arm-none-eabi/4.9.2/armv6k/fpu/crti.o
 .bss           0x0017766c       0x1c c:/devkitpro/devkitarm/bin/../lib/gcc/arm-none-eabi/4.9.2/armv6k/fpu/crtbegin.o
 .bss           0x00177688        0x0 font.bin.o
 .bss           0x00177688        0x0 descriptor.o
 .bss           0x00177688        0x0 tinyxml2.o
 .bss           0x00177688        0x8 khaxinit.o
                0x00177688                KHAX::MemChunkHax::s_instance
                0x0017768c                KHAX::inited
 .bss           0x00177690      0x808 boot.o
 .bss           0x00177e98        0xc config.o
                0x00177e98                setting_root
                0x00177e9c                setting_boot
                0x00177ea0                setting_entries
 .bss           0x00177ea4        0x0 font.o
 .bss           0x00177ea4        0x0 font1.o
 .bss           0x00177ea4        0x0 font2.o
 .bss           0x00177ea4        0x0 gfx.o
 .bss           0x00177ea4        0x0 loader.o
 .bss           0x00177ea4       0x80 main.o
 .bss           0x00177f24        0x0 menu_boot.o
 .bss           0x00177f24        0x0 menu_config.o
 .bss           0x00177f24        0x4 menu_more.o
 .bss           0x00177f28      0x514 menu_netloader.o
                0x0017832c                netloadedPath
                0x00178430                netloaded_cmdlen
                0x00178434                netloaded_commandline
                0x00178438                netloader_boot
 .bss           0x0017843c        0xc menu_picker.o
 .bss           0x00178448     0x1210 scanner.o
 .bss           0x00179658        0x0 text.o
 .bss           0x00179658        0x0 utility.o
 .bss           0x00179658       0x44 brahma.o
 .bss           0x0017969c        0x0 arm11.o
 .bss           0x0017969c        0x0 utils.o
 .bss           0x0017969c        0x0 c:/devkitPro/portlibs/armv6k/lib\libconfig.a(libconfig_la-libconfig.o)
 .bss           0x0017969c        0x0 c:/devkitPro/portlibs/armv6k/lib\libconfig.a(libconfig_la-scanner.o)
 .bss           0x0017969c        0x0 c:/devkitPro/portlibs/armv6k/lib\libconfig.a(libconfig_la-grammar.o)
 .bss           0x0017969c        0x0 c:/devkitPro/portlibs/armv6k/lib\libconfig.a(libconfig_la-scanctx.o)
 .bss           0x0017969c        0x0 c:/devkitPro/portlibs/armv6k/lib\libconfig.a(libconfig_la-strbuf.o)
 .bss           0x0017969c       0x14 c:/devkitPro/libctru/lib\libctru.a(linear.o)
 .bss           0x001796b0        0x0 c:/devkitPro/libctru/lib\libctru.a(mem_pool.o)
 .bss           0x001796b0        0xc c:/devkitPro/libctru/lib\libctru.a(gfx.o)
                0x001796b4                screenFree
 .bss           0x001796bc        0x1 c:/devkitPro/libctru/lib\libctru.a(os.o)
                0x001796bc                __ctru_speedup
 *fill*         0x001796bd        0x3 
 .bss           0x001796c0     0x700c c:/devkitPro/libctru/lib\libctru.a(sdmc_dev.o)
 .bss           0x001806cc        0x4 c:/devkitPro/libctru/lib\libctru.a(srv.o)
 .bss           0x001806d0        0x4 c:/devkitPro/libctru/lib\libctru.a(ac.o)
 .bss           0x001806d4        0x4 c:/devkitPro/libctru/lib\libctru.a(am.o)
 .bss           0x001806d8       0x5c c:/devkitPro/libctru/lib\libctru.a(apt.o)
                0x001806dc                aptStatusEvent
                0x001806ec                aptStatus
                0x001806f0                aptStatusPower
                0x001806f4                aptSleepSync
                0x0018071c                aptStatusBeforeSleep
 .bss           0x00180734        0x8 c:/devkitPro/libctru/lib\libctru.a(fs.o)
 .bss           0x0018073c       0x10 c:/devkitPro/libctru/lib\libctru.a(gsp.o)
                0x00180744                gspGpuHandle
                0x00180748                gspLcdHandle
 .bss           0x0018074c        0x0 c:/devkitPro/libctru/lib\libctru.a(gx.o)
 .bss           0x0018074c        0x4 c:/devkitPro/libctru/lib\libctru.a(hb.o)
 .bss           0x00180750       0x2c c:/devkitPro/libctru/lib\libctru.a(hid.o)
 .bss           0x0018077c        0xc c:/devkitPro/libctru/lib\libctru.a(irrst.o)
 .bss           0x00180788        0x8 c:/devkitPro/libctru/lib\libctru.a(ptm.o)
 .bss           0x00180790        0x0 c:/devkitPro/libctru/lib\libctru.a(soc_accept.o)
 .bss           0x00180790        0x0 c:/devkitPro/libctru/lib\libctru.a(soc_bind.o)
 .bss           0x00180790        0x0 c:/devkitPro/libctru/lib\libctru.a(soc_closesocket.o)
 .bss           0x00180790        0xc c:/devkitPro/libctru/lib\libctru.a(soc_common.o)
                0x00180790                h_errno
                0x00180794                socMemhandle
                0x00180798                SOCU_handle
 .bss           0x0018079c        0x0 c:/devkitPro/libctru/lib\libctru.a(soc_fcntl.o)
 .bss           0x0018079c        0x0 c:/devkitPro/libctru/lib\libctru.a(soc_gethostid.o)
 .bss           0x0018079c       0x10 c:/devkitPro/libctru/lib\libctru.a(soc_inet_ntoa.o)
 .bss           0x001807ac        0x0 c:/devkitPro/libctru/lib\libctru.a(soc_init.o)
 .bss           0x001807ac        0x0 c:/devkitPro/libctru/lib\libctru.a(soc_listen.o)
 .bss           0x001807ac        0x0 c:/devkitPro/libctru/lib\libctru.a(soc_recv.o)
 .bss           0x001807ac        0x0 c:/devkitPro/libctru/lib\libctru.a(soc_recvfrom.o)
 .bss           0x001807ac        0x0 c:/devkitPro/libctru/lib\libctru.a(soc_send.o)
 .bss           0x001807ac        0x0 c:/devkitPro/libctru/lib\libctru.a(soc_sendto.o)
 .bss           0x001807ac        0x0 c:/devkitPro/libctru/lib\libctru.a(soc_socket.o)
 .bss           0x001807ac        0x0 c:/devkitPro/libctru/lib\libctru.a(rbtree_find.o)
 .bss           0x001807ac        0x0 c:/devkitPro/libctru/lib\libctru.a(rbtree_init.o)
 .bss           0x001807ac        0x0 c:/devkitPro/libctru/lib\libctru.a(rbtree_insert.o)
 .bss           0x001807ac        0x0 c:/devkitPro/libctru/lib\libctru.a(rbtree_remove.o)
 .bss           0x001807ac        0x0 c:/devkitPro/libctru/lib\libctru.a(rbtree_rotate.o)
 .bss           0x001807ac        0x0 c:/devkitPro/libctru/lib\libctru.a(decode_utf8.o)
 .bss           0x001807ac        0x0 c:/devkitPro/libctru/lib\libctru.a(utf16_to_utf8.o)
 .bss           0x001807ac        0x0 c:/devkitPro/libctru/lib\libctru.a(utf8_to_utf16.o)
 .bss           0x001807ac        0x0 c:/devkitPro/libctru/lib\libctru.a(allocateHeaps.o)
 .bss           0x001807ac        0x0 c:/devkitPro/libctru/lib\libctru.a(initArgv.o)
 .bss           0x001807ac        0x0 c:/devkitPro/libctru/lib\libctru.a(initSystem.o)
 .bss           0x001807ac        0x0 c:/devkitPro/libctru/lib\libctru.a(svc.o)
 .bss           0x001807ac        0x8 c:/devkitPro/libctru/lib\libctru.a(stack_adjust.o)
 .bss           0x001807b4       0x14 c:/devkitPro/libctru/lib\libctru.a(mappable.o)
 .bss           0x001807c8       0x14 c:/devkitPro/libctru/lib\libctru.a(vram.o)
 .bss           0x001807dc        0x0 c:/devkitPro/libctru/lib\libctru.a(rbtree_iterator.o)
 .bss           0x001807dc        0x0 c:/devkitPro/libctru/lib\libctru.a(decode_utf16.o)
 .bss           0x001807dc        0x0 c:/devkitPro/libctru/lib\libctru.a(encode_utf16.o)
 .bss           0x001807dc        0x0 c:/devkitPro/libctru/lib\libctru.a(encode_utf8.o)
 .bss           0x001807dc        0x0 c:/devkitPro/libctru/lib\libctru.a(appExit.o)
 .bss           0x001807dc        0x0 c:/devkitPro/libctru/lib\libctru.a(appInit.o)
 .bss           0x001807dc        0x0 c:/devkitPro/libctru/lib\libctru.a(ctru_exit.o)
 .bss           0x001807dc        0x0 c:/devkitPro/portlibs/armv6k/lib\libz.a(inflate.o)
 .bss           0x001807dc        0x0 c:/devkitPro/portlibs/armv6k/lib\libz.a(inftrees.o)
 .bss           0x001807dc        0x0 c:/devkitPro/portlibs/armv6k/lib\libz.a(zutil.o)
 .bss           0x001807dc        0x0 c:/devkitPro/portlibs/armv6k/lib\libz.a(adler32.o)
 .bss           0x001807dc        0x0 c:/devkitPro/portlibs/armv6k/lib\libz.a(crc32.o)
 .bss           0x001807dc        0x0 c:/devkitPro/portlibs/armv6k/lib\libz.a(inffast.o)
 .bss           0x001807dc        0x0 c:/devkitpro/devkitarm/bin/../lib/gcc/arm-none-eabi/4.9.2/../../../../arm-none-eabi/lib/armv6k/fpu\libstdc++.a(new_handler.o)
 .bss           0x001807dc        0x0 c:/devkitpro/devkitarm/bin/../lib/gcc/arm-none-eabi/4.9.2/../../../../arm-none-eabi/lib/armv6k/fpu\libstdc++.a(del_opv.o)
 .bss           0x001807dc        0x0 c:/devkitpro/devkitarm/bin/../lib/gcc/arm-none-eabi/4.9.2/../../../../arm-none-eabi/lib/armv6k/fpu\libstdc++.a(new_opv.o)
 .bss           0x001807dc        0x0 c:/devkitpro/devkitarm/bin/../lib/gcc/arm-none-eabi/4.9.2/../../../../arm-none-eabi/lib/armv6k/fpu\libstdc++.a(eh_arm.o)
 .bss           0x001807dc        0x0 c:/devkitpro/devkitarm/bin/../lib/gcc/arm-none-eabi/4.9.2/../../../../arm-none-eabi/lib/armv6k/fpu\libstdc++.a(eh_exception.o)
 .bss           0x001807dc        0x0 c:/devkitpro/devkitarm/bin/../lib/gcc/arm-none-eabi/4.9.2/../../../../arm-none-eabi/lib/armv6k/fpu\libstdc++.a(si_class_type_info.o)
 .bss           0x001807dc        0x0 c:/devkitpro/devkitarm/bin/../lib/gcc/arm-none-eabi/4.9.2/../../../../arm-none-eabi/lib/armv6k/fpu\libstdc++.a(eh_call.o)
 .bss           0x001807dc        0x0 c:/devkitpro/devkitarm/bin/../lib/gcc/arm-none-eabi/4.9.2/../../../../arm-none-eabi/lib/armv6k/fpu\libstdc++.a(eh_globals.o)
 .bss           0x001807dc        0x0 c:/devkitpro/devkitarm/bin/../lib/gcc/arm-none-eabi/4.9.2/../../../../arm-none-eabi/lib/armv6k/fpu\libstdc++.a(eh_catch.o)
 .bss           0x001807dc        0x0 c:/devkitpro/devkitarm/bin/../lib/gcc/arm-none-eabi/4.9.2/../../../../arm-none-eabi/lib/armv6k/fpu\libstdc++.a(tinfo.o)
 .bss           0x001807dc        0x0 c:/devkitpro/devkitarm/bin/../lib/gcc/arm-none-eabi/4.9.2/../../../../arm-none-eabi/lib/armv6k/fpu\libstdc++.a(pure.o)
 .bss           0x001807dc        0x0 c:/devkitpro/devkitarm/bin/../lib/gcc/arm-none-eabi/4.9.2/../../../../arm-none-eabi/lib/armv6k/fpu\libstdc++.a(eh_personality.o)
 .bss           0x001807dc        0x0 c:/devkitpro/devkitarm/bin/../lib/gcc/arm-none-eabi/4.9.2/../../../../arm-none-eabi/lib/armv6k/fpu\libstdc++.a(del_op.o)
 .bss           0x001807dc        0x0 c:/devkitpro/devkitarm/bin/../lib/gcc/arm-none-eabi/4.9.2/../../../../arm-none-eabi/lib/armv6k/fpu\libstdc++.a(new_op.o)
 .bss           0x001807dc        0x0 c:/devkitpro/devkitarm/bin/../lib/gcc/arm-none-eabi/4.9.2/../../../../arm-none-eabi/lib/armv6k/fpu\libstdc++.a(new_opvnt.o)
 .bss           0x001807dc        0x0 c:/devkitpro/devkitarm/bin/../lib/gcc/arm-none-eabi/4.9.2/../../../../arm-none-eabi/lib/armv6k/fpu\libstdc++.a(eh_alloc.o)
 .bss           0x001807dc        0x0 c:/devkitpro/devkitarm/bin/../lib/gcc/arm-none-eabi/4.9.2/../../../../arm-none-eabi/lib/armv6k/fpu\libstdc++.a(class_type_info.o)
 .bss           0x001807dc        0x0 c:/devkitpro/devkitarm/bin/../lib/gcc/arm-none-eabi/4.9.2/../../../../arm-none-eabi/lib/armv6k/fpu\libstdc++.a(eh_terminate.o)
 .bss           0x001807dc        0x0 c:/devkitpro/devkitarm/bin/../lib/gcc/arm-none-eabi/4.9.2/../../../../arm-none-eabi/lib/armv6k/fpu\libstdc++.a(eh_unex_handler.o)
 .bss           0x001807dc        0x0 c:/devkitpro/devkitarm/bin/../lib/gcc/arm-none-eabi/4.9.2/../../../../arm-none-eabi/lib/armv6k/fpu\libstdc++.a(bad_alloc.o)
 .bss           0x001807dc        0x0 c:/devkitpro/devkitarm/bin/../lib/gcc/arm-none-eabi/4.9.2/../../../../arm-none-eabi/lib/armv6k/fpu\libstdc++.a(eh_throw.o)
 .bss           0x001807dc        0x0 c:/devkitpro/devkitarm/bin/../lib/gcc/arm-none-eabi/4.9.2/../../../../arm-none-eabi/lib/armv6k/fpu\libstdc++.a(new_opnt.o)
 .bss           0x001807dc        0x0 c:/devkitpro/devkitarm/bin/../lib/gcc/arm-none-eabi/4.9.2/../../../../arm-none-eabi/lib/armv6k/fpu\libstdc++.a(eh_term_handler.o)
 .bss           0x001807dc        0x0 c:/devkitpro/devkitarm/bin/../lib/gcc/arm-none-eabi/4.9.2/../../../../arm-none-eabi/lib/armv6k/fpu\libstdc++.a(vterminate.o)
 .bss           0x001807dc        0x0 c:/devkitpro/devkitarm/bin/../lib/gcc/arm-none-eabi/4.9.2/../../../../arm-none-eabi/lib/armv6k/fpu\libstdc++.a(eh_type.o)
 .bss           0x001807dc        0x0 c:/devkitpro/devkitarm/bin/../lib/gcc/arm-none-eabi/4.9.2/../../../../arm-none-eabi/lib/armv6k/fpu\libstdc++.a(cp-demangle.o)
 .bss           0x001807dc        0x0 c:/devkitpro/devkitarm/bin/../lib/gcc/arm-none-eabi/4.9.2/armv6k/fpu\libgcc.a(_udivsi3.o)
 .bss           0x001807dc        0x0 c:/devkitpro/devkitarm/bin/../lib/gcc/arm-none-eabi/4.9.2/armv6k/fpu\libgcc.a(_dvmd_tls.o)
 .bss           0x001807dc        0x0 c:/devkitpro/devkitarm/bin/../lib/gcc/arm-none-eabi/4.9.2/armv6k/fpu\libgcc.a(_arm_addsubdf3.o)
 .bss           0x001807dc        0x0 c:/devkitpro/devkitarm/bin/../lib/gcc/arm-none-eabi/4.9.2/armv6k/fpu\libgcc.a(_arm_addsubsf3.o)
 .bss           0x001807dc        0x0 c:/devkitpro/devkitarm/bin/../lib/gcc/arm-none-eabi/4.9.2/armv6k/fpu\libgcc.a(_fixdfdi.o)
 .bss           0x001807dc        0x0 c:/devkitpro/devkitarm/bin/../lib/gcc/arm-none-eabi/4.9.2/armv6k/fpu\libgcc.a(_fixunsdfdi.o)
 .bss           0x001807dc        0x0 c:/devkitpro/devkitarm/bin/../lib/gcc/arm-none-eabi/4.9.2/armv6k/fpu\libgcc.a(unwind-arm.o)
 .bss           0x001807dc        0x0 c:/devkitpro/devkitarm/bin/../lib/gcc/arm-none-eabi/4.9.2/armv6k/fpu\libgcc.a(libunwind.o)
 .bss           0x001807dc        0x0 c:/devkitpro/devkitarm/bin/../lib/gcc/arm-none-eabi/4.9.2/armv6k/fpu\libgcc.a(pr-support.o)
 .bss           0x001807dc        0x0 c:/devkitpro/devkitarm/bin/../lib/gcc/arm-none-eabi/4.9.2/../../../../arm-none-eabi/lib/armv6k/fpu\libg.a(lib_a-abort.o)
 .bss           0x001807dc        0x0 c:/devkitpro/devkitarm/bin/../lib/gcc/arm-none-eabi/4.9.2/../../../../arm-none-eabi/lib/armv6k/fpu\libg.a(lib_a-atof.o)
 .bss           0x001807dc        0x0 c:/devkitpro/devkitarm/bin/../lib/gcc/arm-none-eabi/4.9.2/../../../../arm-none-eabi/lib/armv6k/fpu\libg.a(lib_a-atoi.o)
 .bss           0x001807dc        0x0 c:/devkitpro/devkitarm/bin/../lib/gcc/arm-none-eabi/4.9.2/../../../../arm-none-eabi/lib/armv6k/fpu\libg.a(lib_a-atoll.o)
 .bss           0x001807dc        0x0 c:/devkitpro/devkitarm/bin/../lib/gcc/arm-none-eabi/4.9.2/../../../../arm-none-eabi/lib/armv6k/fpu\libg.a(lib_a-bsearch.o)
 .bss           0x001807dc        0x0 c:/devkitpro/devkitarm/bin/../lib/gcc/arm-none-eabi/4.9.2/../../../../arm-none-eabi/lib/armv6k/fpu\libg.a(lib_a-calloc.o)
 .bss           0x001807dc        0x0 c:/devkitpro/devkitarm/bin/../lib/gcc/arm-none-eabi/4.9.2/../../../../arm-none-eabi/lib/armv6k/fpu\libg.a(lib_a-callocr.o)
 .bss           0x001807dc        0x0 c:/devkitpro/devkitarm/bin/../lib/gcc/arm-none-eabi/4.9.2/../../../../arm-none-eabi/lib/armv6k/fpu\libg.a(lib_a-ctype_.o)
 .bss           0x001807dc        0x0 c:/devkitpro/devkitarm/bin/../lib/gcc/arm-none-eabi/4.9.2/../../../../arm-none-eabi/lib/armv6k/fpu\libg.a(lib_a-errno.o)
 .bss           0x001807dc        0x0 c:/devkitpro/devkitarm/bin/../lib/gcc/arm-none-eabi/4.9.2/../../../../arm-none-eabi/lib/armv6k/fpu\libg.a(lib_a-exit.o)
 .bss           0x001807dc        0x0 c:/devkitpro/devkitarm/bin/../lib/gcc/arm-none-eabi/4.9.2/../../../../arm-none-eabi/lib/armv6k/fpu\libg.a(lib_a-fclose.o)
 .bss           0x001807dc        0x0 c:/devkitpro/devkitarm/bin/../lib/gcc/arm-none-eabi/4.9.2/../../../../arm-none-eabi/lib/armv6k/fpu\libg.a(lib_a-ferror.o)
 .bss           0x001807dc        0x0 c:/devkitpro/devkitarm/bin/../lib/gcc/arm-none-eabi/4.9.2/../../../../arm-none-eabi/lib/armv6k/fpu\libg.a(lib_a-fflush.o)
 .bss           0x001807dc        0x0 c:/devkitpro/devkitarm/bin/../lib/gcc/arm-none-eabi/4.9.2/../../../../arm-none-eabi/lib/armv6k/fpu\libg.a(lib_a-fgetc.o)
 .bss           0x001807dc        0x0 c:/devkitpro/devkitarm/bin/../lib/gcc/arm-none-eabi/4.9.2/../../../../arm-none-eabi/lib/armv6k/fpu\libg.a(lib_a-fileno.o)
 .bss           0x001807dc        0x0 c:/devkitpro/devkitarm/bin/../lib/gcc/arm-none-eabi/4.9.2/../../../../arm-none-eabi/lib/armv6k/fpu\libg.a(lib_a-findfp.o)
 .bss           0x001807dc        0x0 c:/devkitpro/devkitarm/bin/../lib/gcc/arm-none-eabi/4.9.2/../../../../arm-none-eabi/lib/armv6k/fpu\libg.a(lib_a-fini.o)
 .bss           0x001807dc        0x0 c:/devkitpro/devkitarm/bin/../lib/gcc/arm-none-eabi/4.9.2/../../../../arm-none-eabi/lib/armv6k/fpu\libg.a(lib_a-fopen.o)
 .bss           0x001807dc        0x0 c:/devkitpro/devkitarm/bin/../lib/gcc/arm-none-eabi/4.9.2/../../../../arm-none-eabi/lib/armv6k/fpu\libg.a(lib_a-fprintf.o)
 .bss           0x001807dc        0x0 c:/devkitpro/devkitarm/bin/../lib/gcc/arm-none-eabi/4.9.2/../../../../arm-none-eabi/lib/armv6k/fpu\libg.a(lib_a-fputc.o)
 .bss           0x001807dc        0x0 c:/devkitpro/devkitarm/bin/../lib/gcc/arm-none-eabi/4.9.2/../../../../arm-none-eabi/lib/armv6k/fpu\libg.a(lib_a-fputs.o)
 .bss           0x001807dc        0x0 c:/devkitpro/devkitarm/bin/../lib/gcc/arm-none-eabi/4.9.2/../../../../arm-none-eabi/lib/armv6k/fpu\libg.a(lib_a-fread.o)
 .bss           0x001807dc        0x0 c:/devkitpro/devkitarm/bin/../lib/gcc/arm-none-eabi/4.9.2/../../../../arm-none-eabi/lib/armv6k/fpu\libg.a(lib_a-freer.o)
 .bss           0x001807dc        0x0 c:/devkitpro/devkitarm/bin/../lib/gcc/arm-none-eabi/4.9.2/../../../../arm-none-eabi/lib/armv6k/fpu\libg.a(lib_a-fseek.o)
 .bss           0x001807dc        0x0 c:/devkitpro/devkitarm/bin/../lib/gcc/arm-none-eabi/4.9.2/../../../../arm-none-eabi/lib/armv6k/fpu\libg.a(lib_a-fseeko.o)
 .bss           0x001807dc        0x0 c:/devkitpro/devkitarm/bin/../lib/gcc/arm-none-eabi/4.9.2/../../../../arm-none-eabi/lib/armv6k/fpu\libg.a(lib_a-ftell.o)
 .bss           0x001807dc        0x0 c:/devkitpro/devkitarm/bin/../lib/gcc/arm-none-eabi/4.9.2/../../../../arm-none-eabi/lib/armv6k/fpu\libg.a(lib_a-ftello.o)
 .bss           0x001807dc        0x0 c:/devkitpro/devkitarm/bin/../lib/gcc/arm-none-eabi/4.9.2/../../../../arm-none-eabi/lib/armv6k/fpu\libg.a(lib_a-fvwrite.o)
 .bss           0x001807dc        0x0 c:/devkitpro/devkitarm/bin/../lib/gcc/arm-none-eabi/4.9.2/../../../../arm-none-eabi/lib/armv6k/fpu\libg.a(lib_a-fwalk.o)
 .bss           0x001807dc        0x0 c:/devkitpro/devkitarm/bin/../lib/gcc/arm-none-eabi/4.9.2/../../../../arm-none-eabi/lib/armv6k/fpu\libg.a(lib_a-fwrite.o)
 .bss           0x001807dc        0x0 c:/devkitpro/devkitarm/bin/../lib/gcc/arm-none-eabi/4.9.2/../../../../arm-none-eabi/lib/armv6k/fpu\libg.a(lib_a-impure.o)
 .bss           0x001807dc        0x0 c:/devkitpro/devkitarm/bin/../lib/gcc/arm-none-eabi/4.9.2/../../../../arm-none-eabi/lib/armv6k/fpu\libg.a(lib_a-init.o)
 .bss           0x001807dc        0x0 c:/devkitpro/devkitarm/bin/../lib/gcc/arm-none-eabi/4.9.2/../../../../arm-none-eabi/lib/armv6k/fpu\libg.a(lib_a-isalpha.o)
 .bss           0x001807dc        0x0 c:/devkitpro/devkitarm/bin/../lib/gcc/arm-none-eabi/4.9.2/../../../../arm-none-eabi/lib/armv6k/fpu\libg.a(lib_a-isspace.o)
 .bss           0x001807dc        0x0 c:/devkitpro/devkitarm/bin/../lib/gcc/arm-none-eabi/4.9.2/../../../../arm-none-eabi/lib/armv6k/fpu\libg.a(lib_a-makebuf.o)
 .bss           0x001807dc        0x0 c:/devkitpro/devkitarm/bin/../lib/gcc/arm-none-eabi/4.9.2/../../../../arm-none-eabi/lib/armv6k/fpu\libg.a(lib_a-malign.o)
 .bss           0x001807dc        0x0 c:/devkitpro/devkitarm/bin/../lib/gcc/arm-none-eabi/4.9.2/../../../../arm-none-eabi/lib/armv6k/fpu\libg.a(lib_a-malignr.o)
 .bss           0x001807dc        0x0 c:/devkitpro/devkitarm/bin/../lib/gcc/arm-none-eabi/4.9.2/../../../../arm-none-eabi/lib/armv6k/fpu\libg.a(lib_a-malloc.o)
 .bss           0x001807dc        0x0 c:/devkitpro/devkitarm/bin/../lib/gcc/arm-none-eabi/4.9.2/../../../../arm-none-eabi/lib/armv6k/fpu\libg.a(lib_a-mallocr.o)
 .bss           0x001807dc        0x0 c:/devkitpro/devkitarm/bin/../lib/gcc/arm-none-eabi/4.9.2/../../../../arm-none-eabi/lib/armv6k/fpu\libg.a(lib_a-memchr.o)
 .bss           0x001807dc        0x0 c:/devkitpro/devkitarm/bin/../lib/gcc/arm-none-eabi/4.9.2/../../../../arm-none-eabi/lib/armv6k/fpu\libg.a(lib_a-memcmp.o)
 .bss           0x001807dc        0x0 c:/devkitpro/devkitarm/bin/../lib/gcc/arm-none-eabi/4.9.2/../../../../arm-none-eabi/lib/armv6k/fpu\libg.a(lib_a-memcpy.o)
 .bss           0x001807dc        0x0 c:/devkitpro/devkitarm/bin/../lib/gcc/arm-none-eabi/4.9.2/../../../../arm-none-eabi/lib/armv6k/fpu\libg.a(lib_a-memmove.o)
 .bss           0x001807dc        0x0 c:/devkitpro/devkitarm/bin/../lib/gcc/arm-none-eabi/4.9.2/../../../../arm-none-eabi/lib/armv6k/fpu\libg.a(lib_a-memset.o)
 .bss           0x001807dc        0x0 c:/devkitpro/devkitarm/bin/../lib/gcc/arm-none-eabi/4.9.2/../../../../arm-none-eabi/lib/armv6k/fpu\libg.a(lib_a-mlock.o)
 .bss           0x001807dc        0x0 c:/devkitpro/devkitarm/bin/../lib/gcc/arm-none-eabi/4.9.2/../../../../arm-none-eabi/lib/armv6k/fpu\libg.a(lib_a-printf.o)
 .bss           0x001807dc        0x0 c:/devkitpro/devkitarm/bin/../lib/gcc/arm-none-eabi/4.9.2/../../../../arm-none-eabi/lib/armv6k/fpu\libg.a(lib_a-putchar.o)
 .bss           0x001807dc        0x0 c:/devkitpro/devkitarm/bin/../lib/gcc/arm-none-eabi/4.9.2/../../../../arm-none-eabi/lib/armv6k/fpu\libg.a(lib_a-putc.o)
 .bss           0x001807dc        0x0 c:/devkitpro/devkitarm/bin/../lib/gcc/arm-none-eabi/4.9.2/../../../../arm-none-eabi/lib/armv6k/fpu\libg.a(lib_a-puts.o)
 .bss           0x001807dc        0x0 c:/devkitpro/devkitarm/bin/../lib/gcc/arm-none-eabi/4.9.2/../../../../arm-none-eabi/lib/armv6k/fpu\libg.a(lib_a-qsort.o)
 .bss           0x001807dc        0x0 c:/devkitpro/devkitarm/bin/../lib/gcc/arm-none-eabi/4.9.2/../../../../arm-none-eabi/lib/armv6k/fpu\libg.a(lib_a-rand.o)
 .bss           0x001807dc        0x0 c:/devkitpro/devkitarm/bin/../lib/gcc/arm-none-eabi/4.9.2/../../../../arm-none-eabi/lib/armv6k/fpu\libg.a(lib_a-realloc.o)
 .bss           0x001807dc        0x0 c:/devkitpro/devkitarm/bin/../lib/gcc/arm-none-eabi/4.9.2/../../../../arm-none-eabi/lib/armv6k/fpu\libg.a(lib_a-reallocr.o)
 .bss           0x001807dc        0x0 c:/devkitpro/devkitarm/bin/../lib/gcc/arm-none-eabi/4.9.2/../../../../arm-none-eabi/lib/armv6k/fpu\libg.a(lib_a-refill.o)
 .bss           0x001807dc        0x0 c:/devkitpro/devkitarm/bin/../lib/gcc/arm-none-eabi/4.9.2/../../../../arm-none-eabi/lib/armv6k/fpu\libg.a(lib_a-rewind.o)
 .bss           0x001807dc        0x0 c:/devkitpro/devkitarm/bin/../lib/gcc/arm-none-eabi/4.9.2/../../../../arm-none-eabi/lib/armv6k/fpu\libg.a(lib_a-rget.o)
 .bss           0x001807dc        0x0 c:/devkitpro/devkitarm/bin/../lib/gcc/arm-none-eabi/4.9.2/../../../../arm-none-eabi/lib/armv6k/fpu\libg.a(lib_a-setvbuf.o)
 .bss           0x001807dc        0x0 c:/devkitpro/devkitarm/bin/../lib/gcc/arm-none-eabi/4.9.2/../../../../arm-none-eabi/lib/armv6k/fpu\libg.a(lib_a-signal.o)
 .bss           0x001807dc        0x0 c:/devkitpro/devkitarm/bin/../lib/gcc/arm-none-eabi/4.9.2/../../../../arm-none-eabi/lib/armv6k/fpu\libg.a(lib_a-siprintf.o)
 .bss           0x001807dc        0x0 c:/devkitpro/devkitarm/bin/../lib/gcc/arm-none-eabi/4.9.2/../../../../arm-none-eabi/lib/armv6k/fpu\libg.a(lib_a-snprintf.o)
 .bss           0x001807dc        0x0 c:/devkitpro/devkitarm/bin/../lib/gcc/arm-none-eabi/4.9.2/../../../../arm-none-eabi/lib/armv6k/fpu\libg.a(lib_a-sprintf.o)
 .bss           0x001807dc        0x0 c:/devkitpro/devkitarm/bin/../lib/gcc/arm-none-eabi/4.9.2/../../../../arm-none-eabi/lib/armv6k/fpu\libg.a(lib_a-sscanf.o)
 .bss           0x001807dc        0x0 c:/devkitpro/devkitarm/bin/../lib/gcc/arm-none-eabi/4.9.2/../../../../arm-none-eabi/lib/armv6k/fpu\libg.a(lib_a-stdio.o)
 .bss           0x001807dc        0x0 c:/devkitpro/devkitarm/bin/../lib/gcc/arm-none-eabi/4.9.2/../../../../arm-none-eabi/lib/armv6k/fpu\libg.a(lib_a-strcasecmp.o)
 .bss           0x001807dc        0x0 c:/devkitpro/devkitarm/bin/../lib/gcc/arm-none-eabi/4.9.2/../../../../arm-none-eabi/lib/armv6k/fpu\libg.a(lib_a-strcat.o)
 .bss           0x001807dc        0x0 c:/devkitpro/devkitarm/bin/../lib/gcc/arm-none-eabi/4.9.2/../../../../arm-none-eabi/lib/armv6k/fpu\libg.a(lib_a-strchr.o)
 .bss           0x001807dc        0x0 c:/devkitpro/devkitarm/bin/../lib/gcc/arm-none-eabi/4.9.2/../../../../arm-none-eabi/lib/armv6k/fpu\libg.a(lib_a-strcmp.o)
 .bss           0x001807dc        0x0 c:/devkitpro/devkitarm/bin/../lib/gcc/arm-none-eabi/4.9.2/../../../../arm-none-eabi/lib/armv6k/fpu\libg.a(lib_a-strcpy.o)
 .bss           0x001807dc        0x0 c:/devkitpro/devkitarm/bin/../lib/gcc/arm-none-eabi/4.9.2/../../../../arm-none-eabi/lib/armv6k/fpu\libg.a(lib_a-strdup.o)
 .bss           0x001807dc        0x0 c:/devkitpro/devkitarm/bin/../lib/gcc/arm-none-eabi/4.9.2/../../../../arm-none-eabi/lib/armv6k/fpu\libg.a(lib_a-strdup_r.o)
 .bss           0x001807dc        0x0 c:/devkitpro/devkitarm/bin/../lib/gcc/arm-none-eabi/4.9.2/../../../../arm-none-eabi/lib/armv6k/fpu\libg.a(lib_a-strlen.o)
 .bss           0x001807dc        0x0 c:/devkitpro/devkitarm/bin/../lib/gcc/arm-none-eabi/4.9.2/../../../../arm-none-eabi/lib/armv6k/fpu\libg.a(lib_a-strncat.o)
 .bss           0x001807dc        0x0 c:/devkitpro/devkitarm/bin/../lib/gcc/arm-none-eabi/4.9.2/../../../../arm-none-eabi/lib/armv6k/fpu\libg.a(lib_a-strncmp.o)
 .bss           0x001807dc        0x0 c:/devkitpro/devkitarm/bin/../lib/gcc/arm-none-eabi/4.9.2/../../../../arm-none-eabi/lib/armv6k/fpu\libg.a(lib_a-strncpy.o)
 .bss           0x001807dc        0x0 c:/devkitpro/devkitarm/bin/../lib/gcc/arm-none-eabi/4.9.2/../../../../arm-none-eabi/lib/armv6k/fpu\libg.a(lib_a-strrchr.o)
 .bss           0x001807dc        0x0 c:/devkitpro/devkitarm/bin/../lib/gcc/arm-none-eabi/4.9.2/../../../../arm-none-eabi/lib/armv6k/fpu\libg.a(lib_a-strtod.o)
 .bss           0x001807dc        0x0 c:/devkitpro/devkitarm/bin/../lib/gcc/arm-none-eabi/4.9.2/../../../../arm-none-eabi/lib/armv6k/fpu\libg.a(lib_a-strtoll.o)
 .bss           0x001807dc        0x0 c:/devkitpro/devkitarm/bin/../lib/gcc/arm-none-eabi/4.9.2/../../../../arm-none-eabi/lib/armv6k/fpu\libg.a(lib_a-strtoll_r.o)
 .bss           0x001807dc        0x0 c:/devkitpro/devkitarm/bin/../lib/gcc/arm-none-eabi/4.9.2/../../../../arm-none-eabi/lib/armv6k/fpu\libg.a(lib_a-strtol.o)
 .bss           0x001807dc        0x0 c:/devkitpro/devkitarm/bin/../lib/gcc/arm-none-eabi/4.9.2/../../../../arm-none-eabi/lib/armv6k/fpu\libg.a(lib_a-strtoull.o)
 .bss           0x001807dc        0x0 c:/devkitpro/devkitarm/bin/../lib/gcc/arm-none-eabi/4.9.2/../../../../arm-none-eabi/lib/armv6k/fpu\libg.a(lib_a-strtoull_r.o)
 .bss           0x001807dc        0x0 c:/devkitpro/devkitarm/bin/../lib/gcc/arm-none-eabi/4.9.2/../../../../arm-none-eabi/lib/armv6k/fpu\libg.a(lib_a-strtoul.o)
 .bss           0x001807dc        0x0 c:/devkitpro/devkitarm/bin/../lib/gcc/arm-none-eabi/4.9.2/../../../../arm-none-eabi/lib/armv6k/fpu\libg.a(lib_a-svfiprintf.o)
 .bss           0x001807dc        0x0 c:/devkitpro/devkitarm/bin/../lib/gcc/arm-none-eabi/4.9.2/../../../../arm-none-eabi/lib/armv6k/fpu\libg.a(lib_a-svfprintf.o)
 .bss           0x001807dc        0x0 c:/devkitpro/devkitarm/bin/../lib/gcc/arm-none-eabi/4.9.2/../../../../arm-none-eabi/lib/armv6k/fpu\libg.a(lib_a-svfscanf.o)
 .bss           0x001807dc        0x0 c:/devkitpro/devkitarm/bin/../lib/gcc/arm-none-eabi/4.9.2/../../../../arm-none-eabi/lib/armv6k/fpu\libg.a(lib_a-sysclose.o)
 .bss           0x001807dc        0x0 c:/devkitpro/devkitarm/bin/../lib/gcc/arm-none-eabi/4.9.2/../../../../arm-none-eabi/lib/armv6k/fpu\libg.a(lib_a-sysfstat.o)
 .bss           0x001807dc        0x0 c:/devkitpro/devkitarm/bin/../lib/gcc/arm-none-eabi/4.9.2/../../../../arm-none-eabi/lib/armv6k/fpu\libg.a(lib_a-sysopen.o)
 .bss           0x001807dc        0x0 c:/devkitpro/devkitarm/bin/../lib/gcc/arm-none-eabi/4.9.2/../../../../arm-none-eabi/lib/armv6k/fpu\libg.a(lib_a-sysstat.o)
 .bss           0x001807dc        0x0 c:/devkitpro/devkitarm/bin/../lib/gcc/arm-none-eabi/4.9.2/../../../../arm-none-eabi/lib/armv6k/fpu\libg.a(lib_a-syswrite.o)
 .bss           0x001807dc        0x0 c:/devkitpro/devkitarm/bin/../lib/gcc/arm-none-eabi/4.9.2/../../../../arm-none-eabi/lib/armv6k/fpu\libg.a(lib_a-time.o)
 .bss           0x001807dc        0x0 c:/devkitpro/devkitarm/bin/../lib/gcc/arm-none-eabi/4.9.2/../../../../arm-none-eabi/lib/armv6k/fpu\libg.a(lib_a-vfprintf.o)
 .bss           0x001807dc        0x0 c:/devkitpro/devkitarm/bin/../lib/gcc/arm-none-eabi/4.9.2/../../../../arm-none-eabi/lib/armv6k/fpu\libg.a(lib_a-vsprintf.o)
 .bss           0x001807dc        0x0 c:/devkitpro/devkitarm/bin/../lib/gcc/arm-none-eabi/4.9.2/../../../../arm-none-eabi/lib/armv6k/fpu\libg.a(lib_a-wbuf.o)
 .bss           0x001807dc        0x0 c:/devkitpro/devkitarm/bin/../lib/gcc/arm-none-eabi/4.9.2/../../../../arm-none-eabi/lib/armv6k/fpu\libg.a(lib_a-wcrtomb.o)
 .bss           0x001807dc        0x0 c:/devkitpro/devkitarm/bin/../lib/gcc/arm-none-eabi/4.9.2/../../../../arm-none-eabi/lib/armv6k/fpu\libg.a(lib_a-wcsrtombs.o)
 .bss           0x001807dc        0x0 c:/devkitpro/devkitarm/bin/../lib/gcc/arm-none-eabi/4.9.2/../../../../arm-none-eabi/lib/armv6k/fpu\libg.a(lib_a-wctomb_r.o)
 .bss           0x001807dc        0x0 c:/devkitpro/devkitarm/bin/../lib/gcc/arm-none-eabi/4.9.2/../../../../arm-none-eabi/lib/armv6k/fpu\libg.a(lib_a-wsetup.o)
 .bss           0x001807dc        0x0 c:/devkitpro/devkitarm/bin/../lib/gcc/arm-none-eabi/4.9.2/../../../../arm-none-eabi/lib/armv6k/fpu\libg.a(lib_a-__call_atexit.o)
 .bss           0x001807dc        0x0 c:/devkitpro/devkitarm/bin/../lib/gcc/arm-none-eabi/4.9.2/../../../../arm-none-eabi/lib/armv6k/fpu\libg.a(lib_a-dtoa.o)
 .bss           0x001807dc        0x0 c:/devkitpro/devkitarm/bin/../lib/gcc/arm-none-eabi/4.9.2/../../../../arm-none-eabi/lib/armv6k/fpu\libg.a(lib_a-flags.o)
 .bss           0x001807dc        0x0 c:/devkitpro/devkitarm/bin/../lib/gcc/arm-none-eabi/4.9.2/../../../../arm-none-eabi/lib/armv6k/fpu\libg.a(lib_a-gdtoa-gethex.o)
 .bss           0x001807dc        0x0 c:/devkitpro/devkitarm/bin/../lib/gcc/arm-none-eabi/4.9.2/../../../../arm-none-eabi/lib/armv6k/fpu\libg.a(lib_a-gdtoa-hexnan.o)
 .bss           0x001807dc        0x0 c:/devkitpro/devkitarm/bin/../lib/gcc/arm-none-eabi/4.9.2/../../../../arm-none-eabi/lib/armv6k/fpu\libg.a(lib_a-iswspace.o)
 .bss           0x001807dc        0x0 c:/devkitpro/devkitarm/bin/../lib/gcc/arm-none-eabi/4.9.2/../../../../arm-none-eabi/lib/armv6k/fpu\libg.a(lib_a-jp2uc.o)
 .bss           0x001807dc        0x0 c:/devkitpro/devkitarm/bin/../lib/gcc/arm-none-eabi/4.9.2/../../../../arm-none-eabi/lib/armv6k/fpu\libg.a(lib_a-locale.o)
 .bss           0x001807dc        0x0 c:/devkitpro/devkitarm/bin/../lib/gcc/arm-none-eabi/4.9.2/../../../../arm-none-eabi/lib/armv6k/fpu\libg.a(lib_a-mbrtowc.o)
 .bss           0x001807dc        0x0 c:/devkitpro/devkitarm/bin/../lib/gcc/arm-none-eabi/4.9.2/../../../../arm-none-eabi/lib/armv6k/fpu\libg.a(lib_a-mbtowc_r.o)
 .bss           0x001807dc        0x0 c:/devkitpro/devkitarm/bin/../lib/gcc/arm-none-eabi/4.9.2/../../../../arm-none-eabi/lib/armv6k/fpu\libg.a(lib_a-mprec.o)
 .bss           0x001807dc        0x0 c:/devkitpro/devkitarm/bin/../lib/gcc/arm-none-eabi/4.9.2/../../../../arm-none-eabi/lib/armv6k/fpu\libg.a(lib_a-sccl.o)
 .bss           0x001807dc        0x0 c:/devkitpro/devkitarm/bin/../lib/gcc/arm-none-eabi/4.9.2/../../../../arm-none-eabi/lib/armv6k/fpu\libg.a(lib_a-sf_nan.o)
 .bss           0x001807dc        0x0 c:/devkitpro/devkitarm/bin/../lib/gcc/arm-none-eabi/4.9.2/../../../../arm-none-eabi/lib/armv6k/fpu\libg.a(lib_a-s_fpclassify.o)
 .bss           0x001807dc        0x0 c:/devkitpro/devkitarm/bin/../lib/gcc/arm-none-eabi/4.9.2/../../../../arm-none-eabi/lib/armv6k/fpu\libg.a(lib_a-s_frexp.o)
 .bss           0x001807dc        0x0 c:/devkitpro/devkitarm/bin/../lib/gcc/arm-none-eabi/4.9.2/../../../../arm-none-eabi/lib/armv6k/fpu\libg.a(lib_a-stpncpy.o)
 .bss           0x001807dc        0x0 c:/devkitpro/devkitarm/bin/../lib/gcc/arm-none-eabi/4.9.2/../../../../arm-none-eabi/lib/armv6k/fpu\libg.a(lib_a-strlcpy.o)
 .bss           0x001807dc        0x0 c:/devkitpro/devkitarm/bin/../lib/gcc/arm-none-eabi/4.9.2/../../../../arm-none-eabi/lib/armv6k/fpu\libg.a(lib_a-strncasecmp.o)
 .bss           0x001807dc        0x0 c:/devkitpro/devkitarm/bin/../lib/gcc/arm-none-eabi/4.9.2/../../../../arm-none-eabi/lib/armv6k/fpu\libg.a(lib_a-svfiscanf.o)
 .bss           0x001807dc        0x0 c:/devkitpro/devkitarm/bin/../lib/gcc/arm-none-eabi/4.9.2/../../../../arm-none-eabi/lib/armv6k/fpu\libg.a(lib_a-ungetc.o)
 .bss           0x001807dc        0x0 c:/devkitpro/devkitarm/bin/../lib/gcc/arm-none-eabi/4.9.2/../../../../arm-none-eabi/lib/armv6k/fpu\libg.a(lib_a-vfiprintf.o)
 .bss           0x001807dc        0x0 c:/devkitpro/devkitarm/bin/../lib/gcc/arm-none-eabi/4.9.2/../../../../arm-none-eabi/lib/armv6k/fpu\libg.a(lib_a-wcsnrtombs.o)
 .bss           0x001807dc        0x0 c:/devkitpro/devkitarm/bin/../lib/gcc/arm-none-eabi/4.9.2/../../../../arm-none-eabi/lib/armv6k/fpu\libg.a(lib_a-fputwc.o)
 .bss           0x001807dc        0x0 c:/devkitpro/devkitarm/bin/../lib/gcc/arm-none-eabi/4.9.2/../../../../arm-none-eabi/lib/armv6k/fpu\libg.a(lib_a-getenv_r.o)
 .bss           0x001807dc        0x0 c:/devkitpro/devkitarm/bin/../lib/gcc/arm-none-eabi/4.9.2/../../../../arm-none-eabi/lib/armv6k/fpu\libg.a(lib_a-environ.o)
 .bss           0x001807dc        0x0 c:/devkitpro/devkitarm/bin/../lib/gcc/arm-none-eabi/4.9.2/../../../../arm-none-eabi/lib/armv6k/fpu\libg.a(lib_a-envlock.o)
 .bss           0x001807dc        0x0 c:/devkitpro/devkitarm/bin/../lib/gcc/arm-none-eabi/4.9.2/../../../../arm-none-eabi/lib/armv6k/fpu\libsysbase.a(iosupport.o)
 .bss           0x001807dc        0x0 c:/devkitpro/devkitarm/bin/../lib/gcc/arm-none-eabi/4.9.2/../../../../arm-none-eabi/lib/armv6k/fpu\libsysbase.a(close.o)
 .bss           0x001807dc        0x0 c:/devkitpro/devkitarm/bin/../lib/gcc/arm-none-eabi/4.9.2/../../../../arm-none-eabi/lib/armv6k/fpu\libsysbase.a(fstat.o)
 .bss           0x001807dc        0x0 c:/devkitpro/devkitarm/bin/../lib/gcc/arm-none-eabi/4.9.2/../../../../arm-none-eabi/lib/armv6k/fpu\libsysbase.a(getpid.o)
 .bss           0x001807dc        0x0 c:/devkitpro/devkitarm/bin/../lib/gcc/arm-none-eabi/4.9.2/../../../../arm-none-eabi/lib/armv6k/fpu\libsysbase.a(gettod.o)
 .bss           0x001807dc        0x0 c:/devkitpro/devkitarm/bin/../lib/gcc/arm-none-eabi/4.9.2/../../../../arm-none-eabi/lib/armv6k/fpu\libsysbase.a(isatty.o)
 .bss           0x001807dc        0x0 c:/devkitpro/devkitarm/bin/../lib/gcc/arm-none-eabi/4.9.2/../../../../arm-none-eabi/lib/armv6k/fpu\libsysbase.a(kill.o)
 .bss           0x001807dc        0x0 c:/devkitpro/devkitarm/bin/../lib/gcc/arm-none-eabi/4.9.2/../../../../arm-none-eabi/lib/armv6k/fpu\libsysbase.a(lseek.o)
 .bss           0x001807dc        0x0 c:/devkitpro/devkitarm/bin/../lib/gcc/arm-none-eabi/4.9.2/../../../../arm-none-eabi/lib/armv6k/fpu\libsysbase.a(open.o)
 .bss           0x001807dc        0x0 c:/devkitpro/devkitarm/bin/../lib/gcc/arm-none-eabi/4.9.2/../../../../arm-none-eabi/lib/armv6k/fpu\libsysbase.a(read.o)
 .bss           0x001807dc        0x4 c:/devkitpro/devkitarm/bin/../lib/gcc/arm-none-eabi/4.9.2/../../../../arm-none-eabi/lib/armv6k/fpu\libsysbase.a(sbrk.o)
 .bss           0x001807e0        0x0 c:/devkitpro/devkitarm/bin/../lib/gcc/arm-none-eabi/4.9.2/../../../../arm-none-eabi/lib/armv6k/fpu\libsysbase.a(stat.o)
 .bss           0x001807e0        0x0 c:/devkitpro/devkitarm/bin/../lib/gcc/arm-none-eabi/4.9.2/../../../../arm-none-eabi/lib/armv6k/fpu\libsysbase.a(write.o)
 .bss           0x001807e0        0x0 c:/devkitpro/devkitarm/bin/../lib/gcc/arm-none-eabi/4.9.2/../../../../arm-none-eabi/lib/armv6k/fpu\libsysbase.a(_exit.o)
 .bss           0x001807e0        0x8 c:/devkitpro/devkitarm/bin/../lib/gcc/arm-none-eabi/4.9.2/../../../../arm-none-eabi/lib/armv6k/fpu\libsysbase.a(malloc_vars.o)
                0x001807e0                fake_heap_start
                0x001807e4                fake_heap_end
 .bss           0x001807e8     0x1000 c:/devkitpro/devkitarm/bin/../lib/gcc/arm-none-eabi/4.9.2/../../../../arm-none-eabi/lib/armv6k/fpu\libsysbase.a(chdir.o)
 .bss           0x001817e8        0x0 c:/devkitpro/devkitarm/bin/../lib/gcc/arm-none-eabi/4.9.2/../../../../arm-none-eabi/lib/armv6k/fpu\libsysbase.a(flock.o)
 .bss           0x001817e8       0x40 c:/devkitpro/devkitarm/bin/../lib/gcc/arm-none-eabi/4.9.2/../../../../arm-none-eabi/lib/armv6k/fpu\libsysbase.a(syscall_support.o)
                0x001817e8                __syscalls
 .bss           0x00181828        0x0 c:/devkitpro/devkitarm/bin/../lib/gcc/arm-none-eabi/4.9.2/../../../../arm-none-eabi/lib/armv6k/fpu\libsysbase.a(handle_manager.o)
 .bss           0x00181828        0x0 c:/devkitpro/devkitarm/bin/../lib/gcc/arm-none-eabi/4.9.2/../../../../arm-none-eabi/lib/armv6k/fpu\libsysbase.a(ftruncate.o)
 .bss           0x00181828        0x0 c:/devkitpro/devkitarm/bin/../lib/gcc/arm-none-eabi/4.9.2/../../../../arm-none-eabi/lib/armv6k/fpu\libsysbase.a(dirent.o)
 .bss           0x00181828        0x0 c:/devkitpro/devkitarm/bin/../lib/gcc/arm-none-eabi/4.9.2/../../../../arm-none-eabi/lib/armv6k/fpu\libsysbase.a(getreent.o)
 .bss           0x00181828        0x0 c:/devkitpro/devkitarm/bin/../lib/gcc/arm-none-eabi/4.9.2/armv6k/fpu\libgcc.a(_divsi3.o)
 .bss           0x00181828        0x0 c:/devkitpro/devkitarm/bin/../lib/gcc/arm-none-eabi/4.9.2/armv6k/fpu\libgcc.a(_aeabi_uldivmod.o)
 .bss           0x00181828        0x0 c:/devkitpro/devkitarm/bin/../lib/gcc/arm-none-eabi/4.9.2/armv6k/fpu\libgcc.a(bpabi.o)
 .bss           0x00181828        0x0 c:/devkitpro/devkitarm/bin/../lib/gcc/arm-none-eabi/4.9.2/armv6k/fpu\libgcc.a(_divdi3.o)
 .bss           0x00181828        0x0 c:/devkitpro/devkitarm/bin/../lib/gcc/arm-none-eabi/4.9.2/armv6k/fpu\libgcc.a(_udivdi3.o)
 .bss           0x00181828        0x0 c:/devkitpro/devkitarm/bin/../lib/gcc/arm-none-eabi/4.9.2/../../../../arm-none-eabi/lib/armv6k/fpu\libg.a(lib_a-strnlen.o)
 .bss           0x00181828        0x0 c:/devkitpro/devkitarm/bin/../lib/gcc/arm-none-eabi/4.9.2/armv6k/fpu/crtend.o
 .bss           0x00181828        0x0 c:/devkitpro/devkitarm/bin/../lib/gcc/arm-none-eabi/4.9.2/armv6k/fpu/crtn.o
 *(.bss.*)
 .bss._ZN12_GLOBAL__N_113__new_handlerE
                0x00181828        0x4 c:/devkitpro/devkitarm/bin/../lib/gcc/arm-none-eabi/4.9.2/../../../../arm-none-eabi/lib/armv6k/fpu\libstdc++.a(new_handler.o)
 .bss._ZL10eh_globals
                0x0018182c        0xc c:/devkitpro/devkitarm/bin/../lib/gcc/arm-none-eabi/4.9.2/../../../../arm-none-eabi/lib/armv6k/fpu\libstdc++.a(eh_globals.o)
 .bss._ZL15dependents_used
                0x00181838        0x4 c:/devkitpro/devkitarm/bin/../lib/gcc/arm-none-eabi/4.9.2/../../../../arm-none-eabi/lib/armv6k/fpu\libstdc++.a(eh_alloc.o)
 *fill*         0x0018183c        0x4 
 .bss._ZL17dependents_buffer
                0x00181840      0x1e0 c:/devkitpro/devkitarm/bin/../lib/gcc/arm-none-eabi/4.9.2/../../../../arm-none-eabi/lib/armv6k/fpu\libstdc++.a(eh_alloc.o)
 .bss._ZL14emergency_used
                0x00181a20        0x4 c:/devkitpro/devkitarm/bin/../lib/gcc/arm-none-eabi/4.9.2/../../../../arm-none-eabi/lib/armv6k/fpu\libstdc++.a(eh_alloc.o)
 *fill*         0x00181a24        0x4 
 .bss._ZL16emergency_buffer
                0x00181a28      0x800 c:/devkitpro/devkitarm/bin/../lib/gcc/arm-none-eabi/4.9.2/../../../../arm-none-eabi/lib/armv6k/fpu\libstdc++.a(eh_alloc.o)
 .bss._ZZN9__gnu_cxx27__verbose_terminate_handlerEvE11terminating
                0x00182228        0x1 c:/devkitpro/devkitarm/bin/../lib/gcc/arm-none-eabi/4.9.2/../../../../arm-none-eabi/lib/armv6k/fpu\libstdc++.a(vterminate.o)
 *fill*         0x00182229        0x3 
 .bss.__malloc_max_total_mem
                0x0018222c        0x4 c:/devkitpro/devkitarm/bin/../lib/gcc/arm-none-eabi/4.9.2/../../../../arm-none-eabi/lib/armv6k/fpu\libg.a(lib_a-mallocr.o)
                0x0018222c                __malloc_max_total_mem
 .bss.__malloc_max_sbrked_mem
                0x00182230        0x4 c:/devkitpro/devkitarm/bin/../lib/gcc/arm-none-eabi/4.9.2/../../../../arm-none-eabi/lib/armv6k/fpu\libg.a(lib_a-mallocr.o)
                0x00182230                __malloc_max_sbrked_mem
 .bss.__malloc_top_pad
                0x00182234        0x4 c:/devkitpro/devkitarm/bin/../lib/gcc/arm-none-eabi/4.9.2/../../../../arm-none-eabi/lib/armv6k/fpu\libg.a(lib_a-mallocr.o)
                0x00182234                __malloc_top_pad
 .bss.__malloc_current_mallinfo
                0x00182238       0x28 c:/devkitpro/devkitarm/bin/../lib/gcc/arm-none-eabi/4.9.2/../../../../arm-none-eabi/lib/armv6k/fpu\libg.a(lib_a-mallocr.o)
                0x00182238                __malloc_current_mallinfo
 .bss._PathLocale
                0x00182260        0x4 c:/devkitpro/devkitarm/bin/../lib/gcc/arm-none-eabi/4.9.2/../../../../arm-none-eabi/lib/armv6k/fpu\libg.a(lib_a-locale.o)
                0x00182260                _PathLocale
 .bss.__nlocale_changed
                0x00182264        0x4 c:/devkitpro/devkitarm/bin/../lib/gcc/arm-none-eabi/4.9.2/../../../../arm-none-eabi/lib/armv6k/fpu\libg.a(lib_a-locale.o)
                0x00182264                __nlocale_changed
 .bss.__mlocale_changed
                0x00182268        0x4 c:/devkitpro/devkitarm/bin/../lib/gcc/arm-none-eabi/4.9.2/../../../../arm-none-eabi/lib/armv6k/fpu\libg.a(lib_a-locale.o)
                0x00182268                __mlocale_changed
 .bss.lc_ctype_cjk_lang
                0x0018226c        0x4 c:/devkitpro/devkitarm/bin/../lib/gcc/arm-none-eabi/4.9.2/../../../../arm-none-eabi/lib/armv6k/fpu\libg.a(lib_a-locale.o)
 .bss.new_categories
                0x00182270       0xe0 c:/devkitpro/devkitarm/bin/../lib/gcc/arm-none-eabi/4.9.2/../../../../arm-none-eabi/lib/armv6k/fpu\libg.a(lib_a-locale.o)
 .bss.current_locale_string
                0x00182350       0xe8 c:/devkitpro/devkitarm/bin/../lib/gcc/arm-none-eabi/4.9.2/../../../../arm-none-eabi/lib/armv6k/fpu\libg.a(lib_a-locale.o)
 .bss.saved_categories
                0x00182438       0xe0 c:/devkitpro/devkitarm/bin/../lib/gcc/arm-none-eabi/4.9.2/../../../../arm-none-eabi/lib/armv6k/fpu\libg.a(lib_a-locale.o)
 .bss.initial_env
                0x00182518        0x4 c:/devkitpro/devkitarm/bin/../lib/gcc/arm-none-eabi/4.9.2/../../../../arm-none-eabi/lib/armv6k/fpu\libg.a(lib_a-environ.o)
 *(.gnu.linkonce.b*)
 *(COMMON)
 *fill*         0x0018251c        0x4 
 COMMON         0x00182520       0x20 boot.o
                0x00182520                target_title
                0x00182538                callBootloader_1x
                0x0018253c                setArgs_1x
 COMMON         0x00182540       0x30 config.o
                0x00182540                cfg
                0x0018256c                config
 COMMON         0x00182570      0x201 loader.o
                0x00182570                boot_app
                0x00182770                boot_app_enabled
 *fill*         0x00182771        0x3 
 COMMON         0x00182774     0x8000 menu_netloader.o
                0x00182774                in
                0x00186774                out
 COMMON         0x0018a774        0x4 menu_picker.o
                0x0018a774                picker
 COMMON         0x0018a778       0x18 utility.o
                0x0018a778                sdmcArchive
 COMMON         0x0018a790       0x38 brahma.o
                0x0018a790                bottomFramebufferInfo
                0x0018a7ac                topFramebufferInfo
 COMMON         0x0018a7c8       0x28 c:/devkitPro/libctru/lib\libctru.a(gfx.o)
                0x0018a7c8                gfxBottomFramebuffers
                0x0018a7d0                gspSharedMemHandle
                0x0018a7d4                gspEvent
                0x0018a7d8                gfxTopLeftFramebuffers
                0x0018a7e0                gfxTopRightFramebuffers
                0x0018a7e8                gfxThreadID
                0x0018a7ec                gfxSharedMemory
 COMMON         0x0018a7f0     0x2022 c:/devkitPro/libctru/lib\libctru.a(apt.o)
                0x0018a7f0                aptEventHandlerThread
                0x0018a7f4                aptParameters
                0x0018b7f8                aptEventHandlerStack
                0x0018c7f8                aptuHandle
                0x0018c7fc                aptEvents
                0x0018c808                aptStatusMutex
                0x0018c80c                aptLockHandle
                0x0018c810                currentAppId
 *fill*         0x0018c812        0x6 
 COMMON         0x0018c818     0x103d c:/devkitPro/libctru/lib\libctru.a(gsp.o)
                0x0018c818                gspEventStack
                0x0018d818                gspEventThread
                0x0018d81c                gspEventCounts
                0x0018d838                gspEvents
                0x0018d854                gspRunEvents
 *fill*         0x0018d855        0x3 
 COMMON         0x0018d858        0x4 c:/devkitPro/libctru/lib\libctru.a(gx.o)
                0x0018d858                gxCmdBuf
 COMMON         0x0018d85c       0x20 c:/devkitPro/libctru/lib\libctru.a(hid.o)
                0x0018d85c                hidMemHandle
                0x0018d860                hidHandle
                0x0018d864                hidSharedMem
                0x0018d868                hidEvents
 COMMON         0x0018d87c       0x10 c:/devkitPro/libctru/lib\libctru.a(irrst.o)
                0x0018d87c                irrstHandle
                0x0018d880                irrstEvent
                0x0018d884                irrstMemHandle
                0x0018d888                irrstSharedMem
 COMMON         0x0018d88c        0x8 c:/devkitPro/libctru/lib\libctru.a(allocateHeaps.o)
                0x0018d88c                __heapBase
                0x0018d890                __linear_heap
 COMMON         0x0018d894        0x8 c:/devkitPro/libctru/lib\libctru.a(initArgv.o)
                0x0018d894                __system_argv
                0x0018d898                __system_argc
 COMMON         0x0018d89c        0x4 c:/devkitPro/libctru/lib\libctru.a(initSystem.o)
                0x0018d89c                __system_retAddr
                0x0018d8a0                . = ALIGN (0x4)
                0x0018d8a0                __bss_end__ = .
                0x0018d8a0                __end__ = ABSOLUTE (.)

/DISCARD/
 *(.group .comment .note)

.stab
 *(.stab)

.stabstr
 *(.stabstr)

.stab.excl
 *(.stab.excl)

.stab.exclstr
 *(.stab.exclstr)

.stab.index
 *(.stab.index)

.stab.indexstr
 *(.stab.indexstr)

.debug
 *(.debug)

.line
 *(.line)

.debug_srcinfo
 *(.debug_srcinfo)

.debug_sfnames
 *(.debug_sfnames)

.debug_aranges  0x00000000      0x680
 *(.debug_aranges)
 .debug_aranges
                0x00000000       0x20 c:/devkitPro/libctru/lib\libctru.a(linear.o)
 .debug_aranges
                0x00000020       0x20 c:/devkitPro/libctru/lib\libctru.a(mem_pool.o)
 .debug_aranges
                0x00000040       0x20 c:/devkitPro/libctru/lib\libctru.a(gfx.o)
 .debug_aranges
                0x00000060       0x20 c:/devkitPro/libctru/lib\libctru.a(os.o)
 .debug_aranges
                0x00000080       0x20 c:/devkitPro/libctru/lib\libctru.a(sdmc_dev.o)
 .debug_aranges
                0x000000a0       0x20 c:/devkitPro/libctru/lib\libctru.a(srv.o)
 .debug_aranges
                0x000000c0       0x20 c:/devkitPro/libctru/lib\libctru.a(ac.o)
 .debug_aranges
                0x000000e0       0x20 c:/devkitPro/libctru/lib\libctru.a(am.o)
 .debug_aranges
                0x00000100       0x20 c:/devkitPro/libctru/lib\libctru.a(apt.o)
 .debug_aranges
                0x00000120       0x20 c:/devkitPro/libctru/lib\libctru.a(fs.o)
 .debug_aranges
                0x00000140       0x20 c:/devkitPro/libctru/lib\libctru.a(gsp.o)
 .debug_aranges
                0x00000160       0x20 c:/devkitPro/libctru/lib\libctru.a(gx.o)
 .debug_aranges
                0x00000180       0x20 c:/devkitPro/libctru/lib\libctru.a(hb.o)
 .debug_aranges
                0x000001a0       0x20 c:/devkitPro/libctru/lib\libctru.a(hid.o)
 .debug_aranges
                0x000001c0       0x20 c:/devkitPro/libctru/lib\libctru.a(irrst.o)
 .debug_aranges
                0x000001e0       0x20 c:/devkitPro/libctru/lib\libctru.a(ptm.o)
 .debug_aranges
                0x00000200       0x20 c:/devkitPro/libctru/lib\libctru.a(soc_accept.o)
 .debug_aranges
                0x00000220       0x20 c:/devkitPro/libctru/lib\libctru.a(soc_bind.o)
 .debug_aranges
                0x00000240       0x20 c:/devkitPro/libctru/lib\libctru.a(soc_closesocket.o)
 .debug_aranges
                0x00000260       0x20 c:/devkitPro/libctru/lib\libctru.a(soc_common.o)
 .debug_aranges
                0x00000280       0x20 c:/devkitPro/libctru/lib\libctru.a(soc_fcntl.o)
 .debug_aranges
                0x000002a0       0x20 c:/devkitPro/libctru/lib\libctru.a(soc_gethostid.o)
 .debug_aranges
                0x000002c0       0x20 c:/devkitPro/libctru/lib\libctru.a(soc_inet_ntoa.o)
 .debug_aranges
                0x000002e0       0x20 c:/devkitPro/libctru/lib\libctru.a(soc_init.o)
 .debug_aranges
                0x00000300       0x20 c:/devkitPro/libctru/lib\libctru.a(soc_listen.o)
 .debug_aranges
                0x00000320       0x20 c:/devkitPro/libctru/lib\libctru.a(soc_recv.o)
 .debug_aranges
                0x00000340       0x20 c:/devkitPro/libctru/lib\libctru.a(soc_recvfrom.o)
 .debug_aranges
                0x00000360       0x20 c:/devkitPro/libctru/lib\libctru.a(soc_send.o)
 .debug_aranges
                0x00000380       0x20 c:/devkitPro/libctru/lib\libctru.a(soc_sendto.o)
 .debug_aranges
                0x000003a0       0x20 c:/devkitPro/libctru/lib\libctru.a(soc_socket.o)
 .debug_aranges
                0x000003c0       0x20 c:/devkitPro/libctru/lib\libctru.a(rbtree_find.o)
 .debug_aranges
                0x000003e0       0x20 c:/devkitPro/libctru/lib\libctru.a(rbtree_init.o)
 .debug_aranges
                0x00000400       0x20 c:/devkitPro/libctru/lib\libctru.a(rbtree_insert.o)
 .debug_aranges
                0x00000420       0x20 c:/devkitPro/libctru/lib\libctru.a(rbtree_remove.o)
 .debug_aranges
                0x00000440       0x20 c:/devkitPro/libctru/lib\libctru.a(rbtree_rotate.o)
 .debug_aranges
                0x00000460       0x20 c:/devkitPro/libctru/lib\libctru.a(decode_utf8.o)
 .debug_aranges
                0x00000480       0x20 c:/devkitPro/libctru/lib\libctru.a(utf16_to_utf8.o)
 .debug_aranges
                0x000004a0       0x20 c:/devkitPro/libctru/lib\libctru.a(utf8_to_utf16.o)
 .debug_aranges
                0x000004c0       0x20 c:/devkitPro/libctru/lib\libctru.a(allocateHeaps.o)
 .debug_aranges
                0x000004e0       0x20 c:/devkitPro/libctru/lib\libctru.a(initArgv.o)
 .debug_aranges
                0x00000500       0x20 c:/devkitPro/libctru/lib\libctru.a(initSystem.o)
 .debug_aranges
                0x00000520       0x20 c:/devkitPro/libctru/lib\libctru.a(svc.o)
 .debug_aranges
                0x00000540       0x20 c:/devkitPro/libctru/lib\libctru.a(stack_adjust.o)
 .debug_aranges
                0x00000560       0x20 c:/devkitPro/libctru/lib\libctru.a(mappable.o)
 .debug_aranges
                0x00000580       0x20 c:/devkitPro/libctru/lib\libctru.a(vram.o)
 .debug_aranges
                0x000005a0       0x20 c:/devkitPro/libctru/lib\libctru.a(rbtree_iterator.o)
 .debug_aranges
                0x000005c0       0x20 c:/devkitPro/libctru/lib\libctru.a(decode_utf16.o)
 .debug_aranges
                0x000005e0       0x20 c:/devkitPro/libctru/lib\libctru.a(encode_utf16.o)
 .debug_aranges
                0x00000600       0x20 c:/devkitPro/libctru/lib\libctru.a(encode_utf8.o)
 .debug_aranges
                0x00000620       0x20 c:/devkitPro/libctru/lib\libctru.a(appExit.o)
 .debug_aranges
                0x00000640       0x20 c:/devkitPro/libctru/lib\libctru.a(appInit.o)
 .debug_aranges
                0x00000660       0x20 c:/devkitPro/libctru/lib\libctru.a(ctru_exit.o)

.debug_pubnames
 *(.debug_pubnames)

.debug_info     0x00000000    0x22ebc
 *(.debug_info)
 .debug_info    0x00000000      0x975 c:/devkitPro/libctru/lib\libctru.a(linear.o)
 .debug_info    0x00000975      0x8ed c:/devkitPro/libctru/lib\libctru.a(mem_pool.o)
 .debug_info    0x00001262      0xdbe c:/devkitPro/libctru/lib\libctru.a(gfx.o)
 .debug_info    0x00002020      0xd00 c:/devkitPro/libctru/lib\libctru.a(os.o)
 .debug_info    0x00002d20     0x29f7 c:/devkitPro/libctru/lib\libctru.a(sdmc_dev.o)
 .debug_info    0x00005717      0x828 c:/devkitPro/libctru/lib\libctru.a(srv.o)
 .debug_info    0x00005f3f      0x482 c:/devkitPro/libctru/lib\libctru.a(ac.o)
 .debug_info    0x000063c1      0xa9d c:/devkitPro/libctru/lib\libctru.a(am.o)
 .debug_info    0x00006e5e     0x3840 c:/devkitPro/libctru/lib\libctru.a(apt.o)
 .debug_info    0x0000a69e     0x179c c:/devkitPro/libctru/lib\libctru.a(fs.o)
 .debug_info    0x0000be3a     0x1313 c:/devkitPro/libctru/lib\libctru.a(gsp.o)
 .debug_info    0x0000d14d      0x4e7 c:/devkitPro/libctru/lib\libctru.a(gx.o)
 .debug_info    0x0000d634      0x38d c:/devkitPro/libctru/lib\libctru.a(hb.o)
 .debug_info    0x0000d9c1      0xe5d c:/devkitPro/libctru/lib\libctru.a(hid.o)
 .debug_info    0x0000e81e      0x7bb c:/devkitPro/libctru/lib\libctru.a(irrst.o)
 .debug_info    0x0000efd9      0x59c c:/devkitPro/libctru/lib\libctru.a(ptm.o)
 .debug_info    0x0000f575     0x12be c:/devkitPro/libctru/lib\libctru.a(soc_accept.o)
 .debug_info    0x00010833     0x11d0 c:/devkitPro/libctru/lib\libctru.a(soc_bind.o)
 .debug_info    0x00011a03      0xfdc c:/devkitPro/libctru/lib\libctru.a(soc_closesocket.o)
 .debug_info    0x000129df      0xf42 c:/devkitPro/libctru/lib\libctru.a(soc_common.o)
 .debug_info    0x00013921     0x11e3 c:/devkitPro/libctru/lib\libctru.a(soc_fcntl.o)
 .debug_info    0x00014b04      0xfa6 c:/devkitPro/libctru/lib\libctru.a(soc_gethostid.o)
 .debug_info    0x00015aaa      0xf0b c:/devkitPro/libctru/lib\libctru.a(soc_inet_ntoa.o)
 .debug_info    0x000169b5     0x15a2 c:/devkitPro/libctru/lib\libctru.a(soc_init.o)
 .debug_info    0x00017f57     0x10dd c:/devkitPro/libctru/lib\libctru.a(soc_listen.o)
 .debug_info    0x00019034      0xf8b c:/devkitPro/libctru/lib\libctru.a(soc_recv.o)
 .debug_info    0x00019fbf     0x1480 c:/devkitPro/libctru/lib\libctru.a(soc_recvfrom.o)
 .debug_info    0x0001b43f      0xf91 c:/devkitPro/libctru/lib\libctru.a(soc_send.o)
 .debug_info    0x0001c3d0     0x1463 c:/devkitPro/libctru/lib\libctru.a(soc_sendto.o)
 .debug_info    0x0001d833     0x1133 c:/devkitPro/libctru/lib\libctru.a(soc_socket.o)
 .debug_info    0x0001e966      0x1c9 c:/devkitPro/libctru/lib\libctru.a(rbtree_find.o)
 .debug_info    0x0001eb2f      0x178 c:/devkitPro/libctru/lib\libctru.a(rbtree_init.o)
 .debug_info    0x0001eca7      0x60c c:/devkitPro/libctru/lib\libctru.a(rbtree_insert.o)
 .debug_info    0x0001f2b3      0x838 c:/devkitPro/libctru/lib\libctru.a(rbtree_remove.o)
 .debug_info    0x0001faeb      0x2ec c:/devkitPro/libctru/lib\libctru.a(rbtree_rotate.o)
 .debug_info    0x0001fdd7      0x13c c:/devkitPro/libctru/lib\libctru.a(decode_utf8.o)
 .debug_info    0x0001ff13      0x1d9 c:/devkitPro/libctru/lib\libctru.a(utf16_to_utf8.o)
 .debug_info    0x000200ec      0x1d9 c:/devkitPro/libctru/lib\libctru.a(utf8_to_utf16.o)
 .debug_info    0x000202c5      0x269 c:/devkitPro/libctru/lib\libctru.a(allocateHeaps.o)
 .debug_info    0x0002052e      0x165 c:/devkitPro/libctru/lib\libctru.a(initArgv.o)
 .debug_info    0x00020693      0xacb c:/devkitPro/libctru/lib\libctru.a(initSystem.o)
 .debug_info    0x0002115e       0x63 c:/devkitPro/libctru/lib\libctru.a(svc.o)
 .debug_info    0x000211c1       0x73 c:/devkitPro/libctru/lib\libctru.a(stack_adjust.o)
 .debug_info    0x00021234      0x8d0 c:/devkitPro/libctru/lib\libctru.a(mappable.o)
 .debug_info    0x00021b04      0x95f c:/devkitPro/libctru/lib\libctru.a(vram.o)
 .debug_info    0x00022463      0x2a3 c:/devkitPro/libctru/lib\libctru.a(rbtree_iterator.o)
 .debug_info    0x00022706      0x11c c:/devkitPro/libctru/lib\libctru.a(decode_utf16.o)
 .debug_info    0x00022822       0xf5 c:/devkitPro/libctru/lib\libctru.a(encode_utf16.o)
 .debug_info    0x00022917       0xf5 c:/devkitPro/libctru/lib\libctru.a(encode_utf8.o)
 .debug_info    0x00022a0c      0x11b c:/devkitPro/libctru/lib\libctru.a(appExit.o)
 .debug_info    0x00022b27      0x127 c:/devkitPro/libctru/lib\libctru.a(appInit.o)
 .debug_info    0x00022c4e      0x26e c:/devkitPro/libctru/lib\libctru.a(ctru_exit.o)

.debug_abbrev   0x00000000     0x6a3a
 *(.debug_abbrev)
 .debug_abbrev  0x00000000      0x30f c:/devkitPro/libctru/lib\libctru.a(linear.o)
 .debug_abbrev  0x0000030f      0x286 c:/devkitPro/libctru/lib\libctru.a(mem_pool.o)
 .debug_abbrev  0x00000595      0x320 c:/devkitPro/libctru/lib\libctru.a(gfx.o)
 .debug_abbrev  0x000008b5      0x353 c:/devkitPro/libctru/lib\libctru.a(os.o)
 .debug_abbrev  0x00000c08      0x3fa c:/devkitPro/libctru/lib\libctru.a(sdmc_dev.o)
 .debug_abbrev  0x00001002      0x26d c:/devkitPro/libctru/lib\libctru.a(srv.o)
 .debug_abbrev  0x0000126f      0x1bf c:/devkitPro/libctru/lib\libctru.a(ac.o)
 .debug_abbrev  0x0000142e      0x217 c:/devkitPro/libctru/lib\libctru.a(am.o)
 .debug_abbrev  0x00001645      0x4bb c:/devkitPro/libctru/lib\libctru.a(apt.o)
 .debug_abbrev  0x00001b00      0x2d3 c:/devkitPro/libctru/lib\libctru.a(fs.o)
 .debug_abbrev  0x00001dd3      0x3c5 c:/devkitPro/libctru/lib\libctru.a(gsp.o)
 .debug_abbrev  0x00002198       0xf9 c:/devkitPro/libctru/lib\libctru.a(gx.o)
 .debug_abbrev  0x00002291      0x1bb c:/devkitPro/libctru/lib\libctru.a(hb.o)
 .debug_abbrev  0x0000244c      0x38a c:/devkitPro/libctru/lib\libctru.a(hid.o)
 .debug_abbrev  0x000027d6      0x2e2 c:/devkitPro/libctru/lib\libctru.a(irrst.o)
 .debug_abbrev  0x00002ab8      0x1b2 c:/devkitPro/libctru/lib\libctru.a(ptm.o)
 .debug_abbrev  0x00002c6a      0x331 c:/devkitPro/libctru/lib\libctru.a(soc_accept.o)
 .debug_abbrev  0x00002f9b      0x30f c:/devkitPro/libctru/lib\libctru.a(soc_bind.o)
 .debug_abbrev  0x000032aa      0x27b c:/devkitPro/libctru/lib\libctru.a(soc_closesocket.o)
 .debug_abbrev  0x00003525      0x1d0 c:/devkitPro/libctru/lib\libctru.a(soc_common.o)
 .debug_abbrev  0x000036f5      0x311 c:/devkitPro/libctru/lib\libctru.a(soc_fcntl.o)
 .debug_abbrev  0x00003a06      0x253 c:/devkitPro/libctru/lib\libctru.a(soc_gethostid.o)
 .debug_abbrev  0x00003c59      0x1c1 c:/devkitPro/libctru/lib\libctru.a(soc_inet_ntoa.o)
 .debug_abbrev  0x00003e1a      0x364 c:/devkitPro/libctru/lib\libctru.a(soc_init.o)
 .debug_abbrev  0x0000417e      0x2c9 c:/devkitPro/libctru/lib\libctru.a(soc_listen.o)
 .debug_abbrev  0x00004447      0x1e5 c:/devkitPro/libctru/lib\libctru.a(soc_recv.o)
 .debug_abbrev  0x0000462c      0x35e c:/devkitPro/libctru/lib\libctru.a(soc_recvfrom.o)
 .debug_abbrev  0x0000498a      0x1ea c:/devkitPro/libctru/lib\libctru.a(soc_send.o)
 .debug_abbrev  0x00004b74      0x35e c:/devkitPro/libctru/lib\libctru.a(soc_sendto.o)
 .debug_abbrev  0x00004ed2      0x2c5 c:/devkitPro/libctru/lib\libctru.a(soc_socket.o)
 .debug_abbrev  0x00005197       0xec c:/devkitPro/libctru/lib\libctru.a(rbtree_find.o)
 .debug_abbrev  0x00005283       0xb0 c:/devkitPro/libctru/lib\libctru.a(rbtree_init.o)
 .debug_abbrev  0x00005333      0x21d c:/devkitPro/libctru/lib\libctru.a(rbtree_insert.o)
 .debug_abbrev  0x00005550      0x205 c:/devkitPro/libctru/lib\libctru.a(rbtree_remove.o)
 .debug_abbrev  0x00005755      0x170 c:/devkitPro/libctru/lib\libctru.a(rbtree_rotate.o)
 .debug_abbrev  0x000058c5       0x7f c:/devkitPro/libctru/lib\libctru.a(decode_utf8.o)
 .debug_abbrev  0x00005944      0x102 c:/devkitPro/libctru/lib\libctru.a(utf16_to_utf8.o)
 .debug_abbrev  0x00005a46      0x102 c:/devkitPro/libctru/lib\libctru.a(utf8_to_utf16.o)
 .debug_abbrev  0x00005b48       0xea c:/devkitPro/libctru/lib\libctru.a(allocateHeaps.o)
 .debug_abbrev  0x00005c32       0xdb c:/devkitPro/libctru/lib\libctru.a(initArgv.o)
 .debug_abbrev  0x00005d0d      0x1f4 c:/devkitPro/libctru/lib\libctru.a(initSystem.o)
 .debug_abbrev  0x00005f01       0x14 c:/devkitPro/libctru/lib\libctru.a(svc.o)
 .debug_abbrev  0x00005f15       0x14 c:/devkitPro/libctru/lib\libctru.a(stack_adjust.o)
 .debug_abbrev  0x00005f29      0x2ef c:/devkitPro/libctru/lib\libctru.a(mappable.o)
 .debug_abbrev  0x00006218      0x2fe c:/devkitPro/libctru/lib\libctru.a(vram.o)
 .debug_abbrev  0x00006516      0x163 c:/devkitPro/libctru/lib\libctru.a(rbtree_iterator.o)
 .debug_abbrev  0x00006679       0x8e c:/devkitPro/libctru/lib\libctru.a(decode_utf16.o)
 .debug_abbrev  0x00006707       0x69 c:/devkitPro/libctru/lib\libctru.a(encode_utf16.o)
 .debug_abbrev  0x00006770       0x69 c:/devkitPro/libctru/lib\libctru.a(encode_utf8.o)
 .debug_abbrev  0x000067d9       0xad c:/devkitPro/libctru/lib\libctru.a(appExit.o)
 .debug_abbrev  0x00006886       0x9e c:/devkitPro/libctru/lib\libctru.a(appInit.o)
 .debug_abbrev  0x00006924      0x116 c:/devkitPro/libctru/lib\libctru.a(ctru_exit.o)

.debug_line     0x00000000     0x75bf
 *(.debug_line)
 .debug_line    0x00000000      0x233 c:/devkitPro/libctru/lib\libctru.a(linear.o)
 .debug_line    0x00000233      0x2d4 c:/devkitPro/libctru/lib\libctru.a(mem_pool.o)
 .debug_line    0x00000507      0x2ba c:/devkitPro/libctru/lib\libctru.a(gfx.o)
 .debug_line    0x000007c1      0x26f c:/devkitPro/libctru/lib\libctru.a(os.o)
 .debug_line    0x00000a30      0x587 c:/devkitPro/libctru/lib\libctru.a(sdmc_dev.o)
 .debug_line    0x00000fb7      0x24e c:/devkitPro/libctru/lib\libctru.a(srv.o)
 .debug_line    0x00001205      0x185 c:/devkitPro/libctru/lib\libctru.a(ac.o)
 .debug_line    0x0000138a      0x2e6 c:/devkitPro/libctru/lib\libctru.a(am.o)
 .debug_line    0x00001670      0x838 c:/devkitPro/libctru/lib\libctru.a(apt.o)
 .debug_line    0x00001ea8      0x5dd c:/devkitPro/libctru/lib\libctru.a(fs.o)
 .debug_line    0x00002485      0x39e c:/devkitPro/libctru/lib\libctru.a(gsp.o)
 .debug_line    0x00002823      0x1dd c:/devkitPro/libctru/lib\libctru.a(gx.o)
 .debug_line    0x00002a00      0x16b c:/devkitPro/libctru/lib\libctru.a(hb.o)
 .debug_line    0x00002b6b      0x318 c:/devkitPro/libctru/lib\libctru.a(hid.o)
 .debug_line    0x00002e83      0x270 c:/devkitPro/libctru/lib\libctru.a(irrst.o)
 .debug_line    0x000030f3      0x1ac c:/devkitPro/libctru/lib\libctru.a(ptm.o)
 .debug_line    0x0000329f      0x2b8 c:/devkitPro/libctru/lib\libctru.a(soc_accept.o)
 .debug_line    0x00003557      0x298 c:/devkitPro/libctru/lib\libctru.a(soc_bind.o)
 .debug_line    0x000037ef      0x234 c:/devkitPro/libctru/lib\libctru.a(soc_closesocket.o)
 .debug_line    0x00003a23      0x1e4 c:/devkitPro/libctru/lib\libctru.a(soc_common.o)
 .debug_line    0x00003c07      0x2a3 c:/devkitPro/libctru/lib\libctru.a(soc_fcntl.o)
 .debug_line    0x00003eaa      0x21d c:/devkitPro/libctru/lib\libctru.a(soc_gethostid.o)
 .debug_line    0x000040c7      0x21b c:/devkitPro/libctru/lib\libctru.a(soc_inet_ntoa.o)
 .debug_line    0x000042e2      0x2e4 c:/devkitPro/libctru/lib\libctru.a(soc_init.o)
 .debug_line    0x000045c6      0x252 c:/devkitPro/libctru/lib\libctru.a(soc_listen.o)
 .debug_line    0x00004818      0x1de c:/devkitPro/libctru/lib\libctru.a(soc_recv.o)
 .debug_line    0x000049f6      0x32c c:/devkitPro/libctru/lib\libctru.a(soc_recvfrom.o)
 .debug_line    0x00004d22      0x1de c:/devkitPro/libctru/lib\libctru.a(soc_send.o)
 .debug_line    0x00004f00      0x306 c:/devkitPro/libctru/lib\libctru.a(soc_sendto.o)
 .debug_line    0x00005206      0x244 c:/devkitPro/libctru/lib\libctru.a(soc_socket.o)
 .debug_line    0x0000544a      0x174 c:/devkitPro/libctru/lib\libctru.a(rbtree_find.o)
 .debug_line    0x000055be      0x162 c:/devkitPro/libctru/lib\libctru.a(rbtree_init.o)
 .debug_line    0x00005720      0x22c c:/devkitPro/libctru/lib\libctru.a(rbtree_insert.o)
 .debug_line    0x0000594c      0x2cd c:/devkitPro/libctru/lib\libctru.a(rbtree_remove.o)
 .debug_line    0x00005c19      0x1bd c:/devkitPro/libctru/lib\libctru.a(rbtree_rotate.o)
 .debug_line    0x00005dd6      0x163 c:/devkitPro/libctru/lib\libctru.a(decode_utf8.o)
 .debug_line    0x00005f39      0x1cf c:/devkitPro/libctru/lib\libctru.a(utf16_to_utf8.o)
 .debug_line    0x00006108      0x1c5 c:/devkitPro/libctru/lib\libctru.a(utf8_to_utf16.o)
 .debug_line    0x000062cd      0x12c c:/devkitPro/libctru/lib\libctru.a(allocateHeaps.o)
 .debug_line    0x000063f9      0x159 c:/devkitPro/libctru/lib\libctru.a(initArgv.o)
 .debug_line    0x00006552      0x126 c:/devkitPro/libctru/lib\libctru.a(initSystem.o)
 .debug_line    0x00006678      0x164 c:/devkitPro/libctru/lib\libctru.a(svc.o)
 .debug_line    0x000067dc       0x79 c:/devkitPro/libctru/lib\libctru.a(stack_adjust.o)
 .debug_line    0x00006855      0x218 c:/devkitPro/libctru/lib\libctru.a(mappable.o)
 .debug_line    0x00006a6d      0x230 c:/devkitPro/libctru/lib\libctru.a(vram.o)
 .debug_line    0x00006c9d      0x159 c:/devkitPro/libctru/lib\libctru.a(rbtree_iterator.o)
 .debug_line    0x00006df6      0x136 c:/devkitPro/libctru/lib\libctru.a(decode_utf16.o)
 .debug_line    0x00006f2c      0x140 c:/devkitPro/libctru/lib\libctru.a(encode_utf16.o)
 .debug_line    0x0000706c      0x167 c:/devkitPro/libctru/lib\libctru.a(encode_utf8.o)
 .debug_line    0x000071d3      0x165 c:/devkitPro/libctru/lib\libctru.a(appExit.o)
 .debug_line    0x00007338      0x165 c:/devkitPro/libctru/lib\libctru.a(appInit.o)
 .debug_line    0x0000749d      0x122 c:/devkitPro/libctru/lib\libctru.a(ctru_exit.o)

.debug_frame    0x00000000     0x2840
 *(.debug_frame)
 .debug_frame   0x00000000       0xc0 c:/devkitPro/libctru/lib\libctru.a(linear.o)
 .debug_frame   0x000000c0       0xa8 c:/devkitPro/libctru/lib\libctru.a(mem_pool.o)
 .debug_frame   0x00000168      0x16c c:/devkitPro/libctru/lib\libctru.a(gfx.o)
 .debug_frame   0x000002d4      0x100 c:/devkitPro/libctru/lib\libctru.a(os.o)
 .debug_frame   0x000003d4      0x3c4 c:/devkitPro/libctru/lib\libctru.a(sdmc_dev.o)
 .debug_frame   0x00000798      0x158 c:/devkitPro/libctru/lib\libctru.a(srv.o)
 .debug_frame   0x000008f0       0xb0 c:/devkitPro/libctru/lib\libctru.a(ac.o)
 .debug_frame   0x000009a0      0x19c c:/devkitPro/libctru/lib\libctru.a(am.o)
 .debug_frame   0x00000b3c      0x6f0 c:/devkitPro/libctru/lib\libctru.a(apt.o)
 .debug_frame   0x0000122c      0x4a0 c:/devkitPro/libctru/lib\libctru.a(fs.o)
 .debug_frame   0x000016cc      0x2c4 c:/devkitPro/libctru/lib\libctru.a(gsp.o)
 .debug_frame   0x00001990       0xf0 c:/devkitPro/libctru/lib\libctru.a(gx.o)
 .debug_frame   0x00001a80       0x80 c:/devkitPro/libctru/lib\libctru.a(hb.o)
 .debug_frame   0x00001b00      0x200 c:/devkitPro/libctru/lib\libctru.a(hid.o)
 .debug_frame   0x00001d00      0x11c c:/devkitPro/libctru/lib\libctru.a(irrst.o)
 .debug_frame   0x00001e1c       0xf4 c:/devkitPro/libctru/lib\libctru.a(ptm.o)
 .debug_frame   0x00001f10       0x48 c:/devkitPro/libctru/lib\libctru.a(soc_accept.o)
 .debug_frame   0x00001f58       0x44 c:/devkitPro/libctru/lib\libctru.a(soc_bind.o)
 .debug_frame   0x00001f9c       0x38 c:/devkitPro/libctru/lib\libctru.a(soc_closesocket.o)
 .debug_frame   0x00001fd4       0x20 c:/devkitPro/libctru/lib\libctru.a(soc_common.o)
 .debug_frame   0x00001ff4       0x4c c:/devkitPro/libctru/lib\libctru.a(soc_fcntl.o)
 .debug_frame   0x00002040       0x28 c:/devkitPro/libctru/lib\libctru.a(soc_gethostid.o)
 .debug_frame   0x00002068       0x34 c:/devkitPro/libctru/lib\libctru.a(soc_inet_ntoa.o)
 .debug_frame   0x0000209c       0xc4 c:/devkitPro/libctru/lib\libctru.a(soc_init.o)
 .debug_frame   0x00002160       0x30 c:/devkitPro/libctru/lib\libctru.a(soc_listen.o)
 .debug_frame   0x00002190       0x2c c:/devkitPro/libctru/lib\libctru.a(soc_recv.o)
 .debug_frame   0x000021bc       0xcc c:/devkitPro/libctru/lib\libctru.a(soc_recvfrom.o)
 .debug_frame   0x00002288       0x2c c:/devkitPro/libctru/lib\libctru.a(soc_send.o)
 .debug_frame   0x000022b4       0xcc c:/devkitPro/libctru/lib\libctru.a(soc_sendto.o)
 .debug_frame   0x00002380       0x30 c:/devkitPro/libctru/lib\libctru.a(soc_socket.o)
 .debug_frame   0x000023b0       0x30 c:/devkitPro/libctru/lib\libctru.a(rbtree_find.o)
 .debug_frame   0x000023e0       0x20 c:/devkitPro/libctru/lib\libctru.a(rbtree_init.o)
 .debug_frame   0x00002400       0x54 c:/devkitPro/libctru/lib\libctru.a(rbtree_insert.o)
 .debug_frame   0x00002454       0x38 c:/devkitPro/libctru/lib\libctru.a(rbtree_remove.o)
 .debug_frame   0x0000248c       0x2c c:/devkitPro/libctru/lib\libctru.a(rbtree_rotate.o)
 .debug_frame   0x000024b8       0x30 c:/devkitPro/libctru/lib\libctru.a(decode_utf8.o)
 .debug_frame   0x000024e8       0x3c c:/devkitPro/libctru/lib\libctru.a(utf16_to_utf8.o)
 .debug_frame   0x00002524       0x3c c:/devkitPro/libctru/lib\libctru.a(utf8_to_utf16.o)
 .debug_frame   0x00002560       0x34 c:/devkitPro/libctru/lib\libctru.a(allocateHeaps.o)
 .debug_frame   0x00002594       0x2c c:/devkitPro/libctru/lib\libctru.a(initArgv.o)
 .debug_frame   0x000025c0       0x2c c:/devkitPro/libctru/lib\libctru.a(initSystem.o)
 .debug_frame   0x000025ec       0x88 c:/devkitPro/libctru/lib\libctru.a(mappable.o)
 .debug_frame   0x00002674       0xb4 c:/devkitPro/libctru/lib\libctru.a(vram.o)
 .debug_frame   0x00002728       0x30 c:/devkitPro/libctru/lib\libctru.a(rbtree_iterator.o)
 .debug_frame   0x00002758       0x28 c:/devkitPro/libctru/lib\libctru.a(decode_utf16.o)
 .debug_frame   0x00002780       0x20 c:/devkitPro/libctru/lib\libctru.a(encode_utf16.o)
 .debug_frame   0x000027a0       0x20 c:/devkitPro/libctru/lib\libctru.a(encode_utf8.o)
 .debug_frame   0x000027c0       0x2c c:/devkitPro/libctru/lib\libctru.a(appExit.o)
 .debug_frame   0x000027ec       0x2c c:/devkitPro/libctru/lib\libctru.a(appInit.o)
 .debug_frame   0x00002818       0x28 c:/devkitPro/libctru/lib\libctru.a(ctru_exit.o)

.debug_str      0x00000000     0x4612
 *(.debug_str)
 .debug_str     0x00000000      0x503 c:/devkitPro/libctru/lib\libctru.a(linear.o)
                                0x59f (size before relaxing)
 .debug_str     0x00000503       0x82 c:/devkitPro/libctru/lib\libctru.a(mem_pool.o)
                                0x433 (size before relaxing)
 .debug_str     0x00000585      0x672 c:/devkitPro/libctru/lib\libctru.a(gfx.o)
                                0x759 (size before relaxing)
 .debug_str     0x00000bf7      0x54b c:/devkitPro/libctru/lib\libctru.a(os.o)
                                0x730 (size before relaxing)
 .debug_str     0x00001142      0x8ed c:/devkitPro/libctru/lib\libctru.a(sdmc_dev.o)
                                0xed3 (size before relaxing)
 .debug_str     0x00001a2f      0x1d2 c:/devkitPro/libctru/lib\libctru.a(srv.o)
                                0x35b (size before relaxing)
 .debug_str     0x00001c01       0xac c:/devkitPro/libctru/lib\libctru.a(ac.o)
                                0x277 (size before relaxing)
 .debug_str     0x00001cad      0x1d3 c:/devkitPro/libctru/lib\libctru.a(am.o)
                                0x403 (size before relaxing)
 .debug_str     0x00001e80      0xcd1 c:/devkitPro/libctru/lib\libctru.a(apt.o)
                                0xff8 (size before relaxing)
 .debug_str     0x00002b51      0x1e1 c:/devkitPro/libctru/lib\libctru.a(fs.o)
                                0x6c8 (size before relaxing)
 .debug_str     0x00002d32      0x2e3 c:/devkitPro/libctru/lib\libctru.a(gsp.o)
                                0x7eb (size before relaxing)
 .debug_str     0x00003015      0x115 c:/devkitPro/libctru/lib\libctru.a(gx.o)
                                0x2bf (size before relaxing)
 .debug_str     0x0000312a       0xae c:/devkitPro/libctru/lib\libctru.a(hb.o)
                                0x283 (size before relaxing)
 .debug_str     0x000031d8      0x44b c:/devkitPro/libctru/lib\libctru.a(hid.o)
                                0x740 (size before relaxing)
 .debug_str     0x00003623       0xfa c:/devkitPro/libctru/lib\libctru.a(irrst.o)
                                0x45d (size before relaxing)
 .debug_str     0x0000371d       0xca c:/devkitPro/libctru/lib\libctru.a(ptm.o)
                                0x2d9 (size before relaxing)
 .debug_str     0x000037e7      0x123 c:/devkitPro/libctru/lib\libctru.a(soc_accept.o)
                                0x949 (size before relaxing)
 .debug_str     0x0000390a       0x39 c:/devkitPro/libctru/lib\libctru.a(soc_bind.o)
                                0x906 (size before relaxing)
 .debug_str     0x00003943       0x47 c:/devkitPro/libctru/lib\libctru.a(soc_closesocket.o)
                                0x81c (size before relaxing)
 .debug_str     0x0000398a       0x63 c:/devkitPro/libctru/lib\libctru.a(soc_common.o)
                                0x82b (size before relaxing)
 .debug_str     0x000039ed       0x72 c:/devkitPro/libctru/lib\libctru.a(soc_fcntl.o)
                                0x900 (size before relaxing)
 .debug_str     0x00003a5f       0x43 c:/devkitPro/libctru/lib\libctru.a(soc_gethostid.o)
                                0x846 (size before relaxing)
 .debug_str     0x00003aa2       0x64 c:/devkitPro/libctru/lib\libctru.a(soc_inet_ntoa.o)
                                0x7e1 (size before relaxing)
 .debug_str     0x00003b06       0xe6 c:/devkitPro/libctru/lib\libctru.a(soc_init.o)
                                0x9f9 (size before relaxing)
 .debug_str     0x00003bec       0x4d c:/devkitPro/libctru/lib\libctru.a(soc_listen.o)
                                0x8ad (size before relaxing)
 .debug_str     0x00003c39       0x39 c:/devkitPro/libctru/lib\libctru.a(soc_recv.o)
                                0x80a (size before relaxing)
 .debug_str     0x00003c72       0x5b c:/devkitPro/libctru/lib\libctru.a(soc_recvfrom.o)
                                0x953 (size before relaxing)
 .debug_str     0x00003ccd       0x39 c:/devkitPro/libctru/lib\libctru.a(soc_send.o)
                                0x808 (size before relaxing)
 .debug_str     0x00003d06       0x5a c:/devkitPro/libctru/lib\libctru.a(soc_sendto.o)
                                0x93a (size before relaxing)
 .debug_str     0x00003d60       0x46 c:/devkitPro/libctru/lib\libctru.a(soc_socket.o)
                                0x8c4 (size before relaxing)
 .debug_str     0x00003da6       0x3b c:/devkitPro/libctru/lib\libctru.a(rbtree_find.o)
                                0x1ef (size before relaxing)
 .debug_str     0x00003de1       0x36 c:/devkitPro/libctru/lib\libctru.a(rbtree_init.o)
                                0x1e5 (size before relaxing)
 .debug_str     0x00003e17       0xdf c:/devkitPro/libctru/lib\libctru.a(rbtree_insert.o)
                                0x2a7 (size before relaxing)
 .debug_str     0x00003ef6       0x6d c:/devkitPro/libctru/lib\libctru.a(rbtree_remove.o)
                                0x2c5 (size before relaxing)
 .debug_str     0x00003f63       0x38 c:/devkitPro/libctru/lib\libctru.a(rbtree_rotate.o)
                                0x23c (size before relaxing)
 .debug_str     0x00003f9b       0x4b c:/devkitPro/libctru/lib\libctru.a(decode_utf8.o)
                                0x1a9 (size before relaxing)
 .debug_str     0x00003fe6       0x56 c:/devkitPro/libctru/lib\libctru.a(utf16_to_utf8.o)
                                0x1dc (size before relaxing)
 .debug_str     0x0000403c       0x42 c:/devkitPro/libctru/lib\libctru.a(utf8_to_utf16.o)
                                0x1dc (size before relaxing)
 .debug_str     0x0000407e      0x158 c:/devkitPro/libctru/lib\libctru.a(allocateHeaps.o)
                                0x305 (size before relaxing)
 .debug_str     0x000041d6       0x66 c:/devkitPro/libctru/lib\libctru.a(initArgv.o)
                                0x1c8 (size before relaxing)
 .debug_str     0x0000423c      0x14e c:/devkitPro/libctru/lib\libctru.a(initSystem.o)
                                0x6c1 (size before relaxing)
 .debug_str     0x0000438a       0x60 c:/devkitPro/libctru/lib\libctru.a(mappable.o)
                                0x55d (size before relaxing)
 .debug_str     0x000043ea       0x7c c:/devkitPro/libctru/lib\libctru.a(vram.o)
                                0x56e (size before relaxing)
 .debug_str     0x00004466       0x56 c:/devkitPro/libctru/lib\libctru.a(rbtree_iterator.o)
                                0x1ef (size before relaxing)
 .debug_str     0x000044bc       0x34 c:/devkitPro/libctru/lib\libctru.a(decode_utf16.o)
                                0x1a1 (size before relaxing)
 .debug_str     0x000044f0       0x34 c:/devkitPro/libctru/lib\libctru.a(encode_utf16.o)
                                0x195 (size before relaxing)
 .debug_str     0x00004524       0x33 c:/devkitPro/libctru/lib\libctru.a(encode_utf8.o)
                                0x191 (size before relaxing)
 .debug_str     0x00004557       0x37 c:/devkitPro/libctru/lib\libctru.a(appExit.o)
                                0x18e (size before relaxing)
 .debug_str     0x0000458e       0x37 c:/devkitPro/libctru/lib\libctru.a(appInit.o)
                                0x18e (size before relaxing)
 .debug_str     0x000045c5       0x4d c:/devkitPro/libctru/lib\libctru.a(ctru_exit.o)
                                0x30c (size before relaxing)

.debug_loc      0x00000000     0xb0c5
 *(.debug_loc)
 .debug_loc     0x00000000      0x309 c:/devkitPro/libctru/lib\libctru.a(linear.o)
 .debug_loc     0x00000309      0x95b c:/devkitPro/libctru/lib\libctru.a(mem_pool.o)
 .debug_loc     0x00000c64      0x464 c:/devkitPro/libctru/lib\libctru.a(gfx.o)
 .debug_loc     0x000010c8      0x25e c:/devkitPro/libctru/lib\libctru.a(os.o)
 .debug_loc     0x00001326     0x125d c:/devkitPro/libctru/lib\libctru.a(sdmc_dev.o)
 .debug_loc     0x00002583      0x41e c:/devkitPro/libctru/lib\libctru.a(srv.o)
 .debug_loc     0x000029a1      0x1e2 c:/devkitPro/libctru/lib\libctru.a(ac.o)
 .debug_loc     0x00002b83      0x4d2 c:/devkitPro/libctru/lib\libctru.a(am.o)
 .debug_loc     0x00003055     0x1a3a c:/devkitPro/libctru/lib\libctru.a(apt.o)
 .debug_loc     0x00004a8f     0x1187 c:/devkitPro/libctru/lib\libctru.a(fs.o)
 .debug_loc     0x00005c16      0xd96 c:/devkitPro/libctru/lib\libctru.a(gsp.o)
 .debug_loc     0x000069ac      0x38a c:/devkitPro/libctru/lib\libctru.a(gx.o)
 .debug_loc     0x00006d36      0x127 c:/devkitPro/libctru/lib\libctru.a(hb.o)
 .debug_loc     0x00006e5d      0x7d2 c:/devkitPro/libctru/lib\libctru.a(hid.o)
 .debug_loc     0x0000762f      0x35a c:/devkitPro/libctru/lib\libctru.a(irrst.o)
 .debug_loc     0x00007989      0x28c c:/devkitPro/libctru/lib\libctru.a(ptm.o)
 .debug_loc     0x00007c15      0x237 c:/devkitPro/libctru/lib\libctru.a(soc_accept.o)
 .debug_loc     0x00007e4c      0x1a3 c:/devkitPro/libctru/lib\libctru.a(soc_bind.o)
 .debug_loc     0x00007fef       0xb8 c:/devkitPro/libctru/lib\libctru.a(soc_closesocket.o)
 .debug_loc     0x000080a7       0x4a c:/devkitPro/libctru/lib\libctru.a(soc_common.o)
 .debug_loc     0x000080f1      0x1bb c:/devkitPro/libctru/lib\libctru.a(soc_fcntl.o)
 .debug_loc     0x000082ac       0x2a c:/devkitPro/libctru/lib\libctru.a(soc_gethostid.o)
 .debug_loc     0x000082d6       0xa8 c:/devkitPro/libctru/lib\libctru.a(soc_inet_ntoa.o)
 .debug_loc     0x0000837e      0x448 c:/devkitPro/libctru/lib\libctru.a(soc_init.o)
 .debug_loc     0x000087c6      0x16b c:/devkitPro/libctru/lib\libctru.a(soc_listen.o)
 .debug_loc     0x00008931       0x84 c:/devkitPro/libctru/lib\libctru.a(soc_recv.o)
 .debug_loc     0x000089b5      0x559 c:/devkitPro/libctru/lib\libctru.a(soc_recvfrom.o)
 .debug_loc     0x00008f0e       0x84 c:/devkitPro/libctru/lib\libctru.a(soc_send.o)
 .debug_loc     0x00008f92      0x54a c:/devkitPro/libctru/lib\libctru.a(soc_sendto.o)
 .debug_loc     0x000094dc      0x16e c:/devkitPro/libctru/lib\libctru.a(soc_socket.o)
 .debug_loc     0x0000964a      0x10d c:/devkitPro/libctru/lib\libctru.a(rbtree_find.o)
 .debug_loc     0x00009757      0x382 c:/devkitPro/libctru/lib\libctru.a(rbtree_insert.o)
 .debug_loc     0x00009ad9      0x506 c:/devkitPro/libctru/lib\libctru.a(rbtree_remove.o)
 .debug_loc     0x00009fdf       0x8e c:/devkitPro/libctru/lib\libctru.a(rbtree_rotate.o)
 .debug_loc     0x0000a06d      0x232 c:/devkitPro/libctru/lib\libctru.a(decode_utf8.o)
 .debug_loc     0x0000a29f      0x125 c:/devkitPro/libctru/lib\libctru.a(utf16_to_utf8.o)
 .debug_loc     0x0000a3c4       0xf3 c:/devkitPro/libctru/lib\libctru.a(utf8_to_utf16.o)
 .debug_loc     0x0000a4b7       0xfb c:/devkitPro/libctru/lib\libctru.a(initArgv.o)
 .debug_loc     0x0000a5b2       0x21 c:/devkitPro/libctru/lib\libctru.a(initSystem.o)
 .debug_loc     0x0000a5d3      0x1d1 c:/devkitPro/libctru/lib\libctru.a(mappable.o)
 .debug_loc     0x0000a7a4      0x304 c:/devkitPro/libctru/lib\libctru.a(vram.o)
 .debug_loc     0x0000aaa8      0x2b2 c:/devkitPro/libctru/lib\libctru.a(rbtree_iterator.o)
 .debug_loc     0x0000ad5a       0xc4 c:/devkitPro/libctru/lib\libctru.a(decode_utf16.o)
 .debug_loc     0x0000ae1e       0xdc c:/devkitPro/libctru/lib\libctru.a(encode_utf16.o)
 .debug_loc     0x0000aefa      0x1aa c:/devkitPro/libctru/lib\libctru.a(encode_utf8.o)
 .debug_loc     0x0000b0a4       0x21 c:/devkitPro/libctru/lib\libctru.a(ctru_exit.o)

.debug_macinfo
 *(.debug_macinfo)
LOAD c:/devkitpro/devkitarm/bin/../lib/gcc/arm-none-eabi/4.9.2/../../../../arm-none-eabi/lib/armv6k/fpu/3dsx_crt0.o
LOAD c:/devkitpro/devkitarm/bin/../lib/gcc/arm-none-eabi/4.9.2/armv6k/fpu/crti.o
LOAD c:/devkitpro/devkitarm/bin/../lib/gcc/arm-none-eabi/4.9.2/armv6k/fpu/crtbegin.o
LOAD font.bin.o
LOAD descriptor.o
LOAD tinyxml2.o
LOAD khaxinit.o
LOAD boot.o
LOAD config.o
LOAD font.o
LOAD font1.o
LOAD font2.o
LOAD gfx.o
LOAD loader.o
LOAD main.o
LOAD menu_boot.o
LOAD menu_config.o
LOAD menu_more.o
LOAD menu_netloader.o
LOAD menu_picker.o
LOAD scanner.o
LOAD text.o
LOAD utility.o
LOAD brahma.o
LOAD arm11.o
LOAD utils.o
LOAD c:/devkitPro/portlibs/armv6k/lib\libconfig.a
LOAD c:/devkitPro/libctru/lib\libctru.a
LOAD c:/devkitPro/portlibs/armv6k/lib\libz.a
LOAD c:/devkitpro/devkitarm/bin/../lib/gcc/arm-none-eabi/4.9.2/../../../../arm-none-eabi/lib/armv6k/fpu\libstdc++.a
LOAD c:/devkitpro/devkitarm/bin/../lib/gcc/arm-none-eabi/4.9.2/../../../../arm-none-eabi/lib/armv6k/fpu\libm.a
START GROUP
LOAD c:/devkitpro/devkitarm/bin/../lib/gcc/arm-none-eabi/4.9.2/armv6k/fpu\libgcc.a
LOAD c:/devkitpro/devkitarm/bin/../lib/gcc/arm-none-eabi/4.9.2/../../../../arm-none-eabi/lib/armv6k/fpu\libg.a
LOAD c:/devkitpro/devkitarm/bin/../lib/gcc/arm-none-eabi/4.9.2/../../../../arm-none-eabi/lib/armv6k/fpu\libc.a
LOAD c:/devkitpro/devkitarm/bin/../lib/gcc/arm-none-eabi/4.9.2/../../../../arm-none-eabi/lib/armv6k/fpu\libsysbase.a
END GROUP
LOAD c:/devkitpro/devkitarm/bin/../lib/gcc/arm-none-eabi/4.9.2/armv6k/fpu/crtend.o
LOAD c:/devkitpro/devkitarm/bin/../lib/gcc/arm-none-eabi/4.9.2/armv6k/fpu/crtn.o
OUTPUT(c:/Users/Rei/Desktop/CtrBootManager-master/boot.elf elf32-littlearm)

.ARM.attributes
                0x00000000       0x32
 .ARM.attributes
                0x00000000       0x1e c:/devkitpro/devkitarm/bin/../lib/gcc/arm-none-eabi/4.9.2/../../../../arm-none-eabi/lib/armv6k/fpu/3dsx_crt0.o
 .ARM.attributes
                0x0000001e       0x1c c:/devkitpro/devkitarm/bin/../lib/gcc/arm-none-eabi/4.9.2/armv6k/fpu/crti.o
 .ARM.attributes
                0x0000003a       0x32 c:/devkitpro/devkitarm/bin/../lib/gcc/arm-none-eabi/4.9.2/armv6k/fpu/crtbegin.o
 .ARM.attributes
                0x0000006c       0x14 font.bin.o
 .ARM.attributes
                0x00000080       0x2e descriptor.o
 .ARM.attributes
                0x000000ae       0x2e tinyxml2.o
 .ARM.attributes
                0x000000dc       0x2e khaxinit.o
 .ARM.attributes
                0x0000010a       0x2e boot.o
 .ARM.attributes
                0x00000138       0x2e config.o
 .ARM.attributes
                0x00000166       0x2e font.o
 .ARM.attributes
                0x00000194       0x2e font1.o
 .ARM.attributes
                0x000001c2       0x2e font2.o
 .ARM.attributes
                0x000001f0       0x2e gfx.o
 .ARM.attributes
                0x0000021e       0x2e loader.o
 .ARM.attributes
                0x0000024c       0x2e main.o
 .ARM.attributes
                0x0000027a       0x2e menu_boot.o
 .ARM.attributes
                0x000002a8       0x2e menu_config.o
 .ARM.attributes
                0x000002d6       0x2e menu_more.o
 .ARM.attributes
                0x00000304       0x2e menu_netloader.o
 .ARM.attributes
                0x00000332       0x2e menu_picker.o
 .ARM.attributes
                0x00000360       0x2e scanner.o
 .ARM.attributes
                0x0000038e       0x2e text.o
 .ARM.attributes
                0x000003bc       0x2e utility.o
 .ARM.attributes
                0x000003ea       0x2e brahma.o
 .ARM.attributes
                0x00000418       0x1a arm11.o
 .ARM.attributes
                0x00000432       0x1a utils.o
 .ARM.attributes
                0x0000044c       0x2e c:/devkitPro/portlibs/armv6k/lib\libconfig.a(libconfig_la-libconfig.o)
 .ARM.attributes
                0x0000047a       0x2e c:/devkitPro/portlibs/armv6k/lib\libconfig.a(libconfig_la-scanner.o)
 .ARM.attributes
                0x000004a8       0x2e c:/devkitPro/portlibs/armv6k/lib\libconfig.a(libconfig_la-grammar.o)
 .ARM.attributes
                0x000004d6       0x2e c:/devkitPro/portlibs/armv6k/lib\libconfig.a(libconfig_la-scanctx.o)
 .ARM.attributes
                0x00000504       0x2e c:/devkitPro/portlibs/armv6k/lib\libconfig.a(libconfig_la-strbuf.o)
 .ARM.attributes
                0x00000532       0x2e c:/devkitPro/libctru/lib\libctru.a(linear.o)
 .ARM.attributes
                0x00000560       0x2e c:/devkitPro/libctru/lib\libctru.a(mem_pool.o)
 .ARM.attributes
                0x0000058e       0x2e c:/devkitPro/libctru/lib\libctru.a(gfx.o)
 .ARM.attributes
                0x000005bc       0x2e c:/devkitPro/libctru/lib\libctru.a(os.o)
 .ARM.attributes
                0x000005ea       0x2e c:/devkitPro/libctru/lib\libctru.a(sdmc_dev.o)
 .ARM.attributes
                0x00000618       0x2e c:/devkitPro/libctru/lib\libctru.a(srv.o)
 .ARM.attributes
                0x00000646       0x2e c:/devkitPro/libctru/lib\libctru.a(ac.o)
 .ARM.attributes
                0x00000674       0x2e c:/devkitPro/libctru/lib\libctru.a(am.o)
 .ARM.attributes
                0x000006a2       0x2e c:/devkitPro/libctru/lib\libctru.a(apt.o)
 .ARM.attributes
                0x000006d0       0x2e c:/devkitPro/libctru/lib\libctru.a(fs.o)
 .ARM.attributes
                0x000006fe       0x2e c:/devkitPro/libctru/lib\libctru.a(gsp.o)
 .ARM.attributes
                0x0000072c       0x2e c:/devkitPro/libctru/lib\libctru.a(gx.o)
 .ARM.attributes
                0x0000075a       0x2e c:/devkitPro/libctru/lib\libctru.a(hb.o)
 .ARM.attributes
                0x00000788       0x2e c:/devkitPro/libctru/lib\libctru.a(hid.o)
 .ARM.attributes
                0x000007b6       0x2e c:/devkitPro/libctru/lib\libctru.a(irrst.o)
 .ARM.attributes
                0x000007e4       0x2e c:/devkitPro/libctru/lib\libctru.a(ptm.o)
 .ARM.attributes
                0x00000812       0x2e c:/devkitPro/libctru/lib\libctru.a(soc_accept.o)
 .ARM.attributes
                0x00000840       0x2e c:/devkitPro/libctru/lib\libctru.a(soc_bind.o)
 .ARM.attributes
                0x0000086e       0x2e c:/devkitPro/libctru/lib\libctru.a(soc_closesocket.o)
 .ARM.attributes
                0x0000089c       0x2e c:/devkitPro/libctru/lib\libctru.a(soc_common.o)
 .ARM.attributes
                0x000008ca       0x2e c:/devkitPro/libctru/lib\libctru.a(soc_fcntl.o)
 .ARM.attributes
                0x000008f8       0x2e c:/devkitPro/libctru/lib\libctru.a(soc_gethostid.o)
 .ARM.attributes
                0x00000926       0x2e c:/devkitPro/libctru/lib\libctru.a(soc_inet_ntoa.o)
 .ARM.attributes
                0x00000954       0x2e c:/devkitPro/libctru/lib\libctru.a(soc_init.o)
 .ARM.attributes
                0x00000982       0x2e c:/devkitPro/libctru/lib\libctru.a(soc_listen.o)
 .ARM.attributes
                0x000009b0       0x2e c:/devkitPro/libctru/lib\libctru.a(soc_recv.o)
 .ARM.attributes
                0x000009de       0x2e c:/devkitPro/libctru/lib\libctru.a(soc_recvfrom.o)
 .ARM.attributes
                0x00000a0c       0x2e c:/devkitPro/libctru/lib\libctru.a(soc_send.o)
 .ARM.attributes
                0x00000a3a       0x2e c:/devkitPro/libctru/lib\libctru.a(soc_sendto.o)
 .ARM.attributes
                0x00000a68       0x2e c:/devkitPro/libctru/lib\libctru.a(soc_socket.o)
 .ARM.attributes
                0x00000a96       0x2e c:/devkitPro/libctru/lib\libctru.a(rbtree_find.o)
 .ARM.attributes
                0x00000ac4       0x2e c:/devkitPro/libctru/lib\libctru.a(rbtree_init.o)
 .ARM.attributes
                0x00000af2       0x2e c:/devkitPro/libctru/lib\libctru.a(rbtree_insert.o)
 .ARM.attributes
                0x00000b20       0x2e c:/devkitPro/libctru/lib\libctru.a(rbtree_remove.o)
 .ARM.attributes
                0x00000b4e       0x2e c:/devkitPro/libctru/lib\libctru.a(rbtree_rotate.o)
 .ARM.attributes
                0x00000b7c       0x2e c:/devkitPro/libctru/lib\libctru.a(decode_utf8.o)
 .ARM.attributes
                0x00000baa       0x2e c:/devkitPro/libctru/lib\libctru.a(utf16_to_utf8.o)
 .ARM.attributes
                0x00000bd8       0x2e c:/devkitPro/libctru/lib\libctru.a(utf8_to_utf16.o)
 .ARM.attributes
                0x00000c06       0x2e c:/devkitPro/libctru/lib\libctru.a(allocateHeaps.o)
 .ARM.attributes
                0x00000c34       0x2e c:/devkitPro/libctru/lib\libctru.a(initArgv.o)
 .ARM.attributes
                0x00000c62       0x2e c:/devkitPro/libctru/lib\libctru.a(initSystem.o)
 .ARM.attributes
                0x00000c90       0x1a c:/devkitPro/libctru/lib\libctru.a(svc.o)
 .ARM.attributes
                0x00000caa       0x1a c:/devkitPro/libctru/lib\libctru.a(stack_adjust.o)
 .ARM.attributes
                0x00000cc4       0x2e c:/devkitPro/libctru/lib\libctru.a(mappable.o)
 .ARM.attributes
                0x00000cf2       0x2e c:/devkitPro/libctru/lib\libctru.a(vram.o)
 .ARM.attributes
                0x00000d20       0x2e c:/devkitPro/libctru/lib\libctru.a(rbtree_iterator.o)
 .ARM.attributes
                0x00000d4e       0x2e c:/devkitPro/libctru/lib\libctru.a(decode_utf16.o)
 .ARM.attributes
                0x00000d7c       0x2e c:/devkitPro/libctru/lib\libctru.a(encode_utf16.o)
 .ARM.attributes
                0x00000daa       0x2e c:/devkitPro/libctru/lib\libctru.a(encode_utf8.o)
 .ARM.attributes
                0x00000dd8       0x2e c:/devkitPro/libctru/lib\libctru.a(appExit.o)
 .ARM.attributes
                0x00000e06       0x2e c:/devkitPro/libctru/lib\libctru.a(appInit.o)
 .ARM.attributes
                0x00000e34       0x2e c:/devkitPro/libctru/lib\libctru.a(ctru_exit.o)
 .ARM.attributes
                0x00000e62       0x2e c:/devkitPro/portlibs/armv6k/lib\libz.a(inflate.o)
 .ARM.attributes
                0x00000e90       0x2e c:/devkitPro/portlibs/armv6k/lib\libz.a(inftrees.o)
 .ARM.attributes
                0x00000ebe       0x2e c:/devkitPro/portlibs/armv6k/lib\libz.a(zutil.o)
 .ARM.attributes
                0x00000eec       0x2e c:/devkitPro/portlibs/armv6k/lib\libz.a(adler32.o)
 .ARM.attributes
                0x00000f1a       0x2e c:/devkitPro/portlibs/armv6k/lib\libz.a(crc32.o)
 .ARM.attributes
                0x00000f48       0x2e c:/devkitPro/portlibs/armv6k/lib\libz.a(inffast.o)
 .ARM.attributes
                0x00000f76       0x32 c:/devkitpro/devkitarm/bin/../lib/gcc/arm-none-eabi/4.9.2/../../../../arm-none-eabi/lib/armv6k/fpu\libstdc++.a(new_handler.o)
 .ARM.attributes
                0x00000fa8       0x32 c:/devkitpro/devkitarm/bin/../lib/gcc/arm-none-eabi/4.9.2/../../../../arm-none-eabi/lib/armv6k/fpu\libstdc++.a(del_opv.o)
 .ARM.attributes
                0x00000fda       0x32 c:/devkitpro/devkitarm/bin/../lib/gcc/arm-none-eabi/4.9.2/../../../../arm-none-eabi/lib/armv6k/fpu\libstdc++.a(new_opv.o)
 .ARM.attributes
                0x0000100c       0x32 c:/devkitpro/devkitarm/bin/../lib/gcc/arm-none-eabi/4.9.2/../../../../arm-none-eabi/lib/armv6k/fpu\libstdc++.a(eh_arm.o)
 .ARM.attributes
                0x0000103e       0x32 c:/devkitpro/devkitarm/bin/../lib/gcc/arm-none-eabi/4.9.2/../../../../arm-none-eabi/lib/armv6k/fpu\libstdc++.a(eh_exception.o)
 .ARM.attributes
                0x00001070       0x32 c:/devkitpro/devkitarm/bin/../lib/gcc/arm-none-eabi/4.9.2/../../../../arm-none-eabi/lib/armv6k/fpu\libstdc++.a(si_class_type_info.o)
 .ARM.attributes
                0x000010a2       0x32 c:/devkitpro/devkitarm/bin/../lib/gcc/arm-none-eabi/4.9.2/../../../../arm-none-eabi/lib/armv6k/fpu\libstdc++.a(eh_call.o)
 .ARM.attributes
                0x000010d4       0x32 c:/devkitpro/devkitarm/bin/../lib/gcc/arm-none-eabi/4.9.2/../../../../arm-none-eabi/lib/armv6k/fpu\libstdc++.a(eh_globals.o)
 .ARM.attributes
                0x00001106       0x32 c:/devkitpro/devkitarm/bin/../lib/gcc/arm-none-eabi/4.9.2/../../../../arm-none-eabi/lib/armv6k/fpu\libstdc++.a(eh_catch.o)
 .ARM.attributes
                0x00001138       0x32 c:/devkitpro/devkitarm/bin/../lib/gcc/arm-none-eabi/4.9.2/../../../../arm-none-eabi/lib/armv6k/fpu\libstdc++.a(tinfo.o)
 .ARM.attributes
                0x0000116a       0x32 c:/devkitpro/devkitarm/bin/../lib/gcc/arm-none-eabi/4.9.2/../../../../arm-none-eabi/lib/armv6k/fpu\libstdc++.a(pure.o)
 .ARM.attributes
                0x0000119c       0x32 c:/devkitpro/devkitarm/bin/../lib/gcc/arm-none-eabi/4.9.2/../../../../arm-none-eabi/lib/armv6k/fpu\libstdc++.a(eh_personality.o)
 .ARM.attributes
                0x000011ce       0x32 c:/devkitpro/devkitarm/bin/../lib/gcc/arm-none-eabi/4.9.2/../../../../arm-none-eabi/lib/armv6k/fpu\libstdc++.a(del_op.o)
 .ARM.attributes
                0x00001200       0x32 c:/devkitpro/devkitarm/bin/../lib/gcc/arm-none-eabi/4.9.2/../../../../arm-none-eabi/lib/armv6k/fpu\libstdc++.a(new_op.o)
 .ARM.attributes
                0x00001232       0x32 c:/devkitpro/devkitarm/bin/../lib/gcc/arm-none-eabi/4.9.2/../../../../arm-none-eabi/lib/armv6k/fpu\libstdc++.a(new_opvnt.o)
 .ARM.attributes
                0x00001264       0x32 c:/devkitpro/devkitarm/bin/../lib/gcc/arm-none-eabi/4.9.2/../../../../arm-none-eabi/lib/armv6k/fpu\libstdc++.a(eh_alloc.o)
 .ARM.attributes
                0x00001296       0x32 c:/devkitpro/devkitarm/bin/../lib/gcc/arm-none-eabi/4.9.2/../../../../arm-none-eabi/lib/armv6k/fpu\libstdc++.a(class_type_info.o)
 .ARM.attributes
                0x000012c8       0x32 c:/devkitpro/devkitarm/bin/../lib/gcc/arm-none-eabi/4.9.2/../../../../arm-none-eabi/lib/armv6k/fpu\libstdc++.a(eh_terminate.o)
 .ARM.attributes
                0x000012fa       0x32 c:/devkitpro/devkitarm/bin/../lib/gcc/arm-none-eabi/4.9.2/../../../../arm-none-eabi/lib/armv6k/fpu\libstdc++.a(eh_unex_handler.o)
 .ARM.attributes
                0x0000132c       0x32 c:/devkitpro/devkitarm/bin/../lib/gcc/arm-none-eabi/4.9.2/../../../../arm-none-eabi/lib/armv6k/fpu\libstdc++.a(bad_alloc.o)
 .ARM.attributes
                0x0000135e       0x32 c:/devkitpro/devkitarm/bin/../lib/gcc/arm-none-eabi/4.9.2/../../../../arm-none-eabi/lib/armv6k/fpu\libstdc++.a(eh_throw.o)
 .ARM.attributes
                0x00001390       0x32 c:/devkitpro/devkitarm/bin/../lib/gcc/arm-none-eabi/4.9.2/../../../../arm-none-eabi/lib/armv6k/fpu\libstdc++.a(new_opnt.o)
 .ARM.attributes
                0x000013c2       0x32 c:/devkitpro/devkitarm/bin/../lib/gcc/arm-none-eabi/4.9.2/../../../../arm-none-eabi/lib/armv6k/fpu\libstdc++.a(eh_term_handler.o)
 .ARM.attributes
                0x000013f4       0x32 c:/devkitpro/devkitarm/bin/../lib/gcc/arm-none-eabi/4.9.2/../../../../arm-none-eabi/lib/armv6k/fpu\libstdc++.a(vterminate.o)
 .ARM.attributes
                0x00001426       0x32 c:/devkitpro/devkitarm/bin/../lib/gcc/arm-none-eabi/4.9.2/../../../../arm-none-eabi/lib/armv6k/fpu\libstdc++.a(eh_type.o)
 .ARM.attributes
                0x00001458       0x32 c:/devkitpro/devkitarm/bin/../lib/gcc/arm-none-eabi/4.9.2/../../../../arm-none-eabi/lib/armv6k/fpu\libstdc++.a(cp-demangle.o)
 .ARM.attributes
                0x0000148a       0x1c c:/devkitpro/devkitarm/bin/../lib/gcc/arm-none-eabi/4.9.2/armv6k/fpu\libgcc.a(_udivsi3.o)
 .ARM.attributes
                0x000014a6       0x1c c:/devkitpro/devkitarm/bin/../lib/gcc/arm-none-eabi/4.9.2/armv6k/fpu\libgcc.a(_dvmd_tls.o)
 .ARM.attributes
                0x000014c2       0x1c c:/devkitpro/devkitarm/bin/../lib/gcc/arm-none-eabi/4.9.2/armv6k/fpu\libgcc.a(_arm_addsubdf3.o)
 .ARM.attributes
                0x000014de       0x1c c:/devkitpro/devkitarm/bin/../lib/gcc/arm-none-eabi/4.9.2/armv6k/fpu\libgcc.a(_arm_addsubsf3.o)
 .ARM.attributes
                0x000014fa       0x32 c:/devkitpro/devkitarm/bin/../lib/gcc/arm-none-eabi/4.9.2/armv6k/fpu\libgcc.a(_fixdfdi.o)
 .ARM.attributes
                0x0000152c       0x32 c:/devkitpro/devkitarm/bin/../lib/gcc/arm-none-eabi/4.9.2/armv6k/fpu\libgcc.a(_fixunsdfdi.o)
 .ARM.attributes
                0x0000155e       0x32 c:/devkitpro/devkitarm/bin/../lib/gcc/arm-none-eabi/4.9.2/armv6k/fpu\libgcc.a(unwind-arm.o)
 .ARM.attributes
                0x00001590       0x1c c:/devkitpro/devkitarm/bin/../lib/gcc/arm-none-eabi/4.9.2/armv6k/fpu\libgcc.a(libunwind.o)
 .ARM.attributes
                0x000015ac       0x32 c:/devkitpro/devkitarm/bin/../lib/gcc/arm-none-eabi/4.9.2/armv6k/fpu\libgcc.a(pr-support.o)
 .ARM.attributes
                0x000015de       0x32 c:/devkitpro/devkitarm/bin/../lib/gcc/arm-none-eabi/4.9.2/../../../../arm-none-eabi/lib/armv6k/fpu\libg.a(lib_a-abort.o)
 .ARM.attributes
                0x00001610       0x32 c:/devkitpro/devkitarm/bin/../lib/gcc/arm-none-eabi/4.9.2/../../../../arm-none-eabi/lib/armv6k/fpu\libg.a(lib_a-atof.o)
 .ARM.attributes
                0x00001642       0x32 c:/devkitpro/devkitarm/bin/../lib/gcc/arm-none-eabi/4.9.2/../../../../arm-none-eabi/lib/armv6k/fpu\libg.a(lib_a-atoi.o)
 .ARM.attributes
                0x00001674       0x32 c:/devkitpro/devkitarm/bin/../lib/gcc/arm-none-eabi/4.9.2/../../../../arm-none-eabi/lib/armv6k/fpu\libg.a(lib_a-atoll.o)
 .ARM.attributes
                0x000016a6       0x32 c:/devkitpro/devkitarm/bin/../lib/gcc/arm-none-eabi/4.9.2/../../../../arm-none-eabi/lib/armv6k/fpu\libg.a(lib_a-bsearch.o)
 .ARM.attributes
                0x000016d8       0x32 c:/devkitpro/devkitarm/bin/../lib/gcc/arm-none-eabi/4.9.2/../../../../arm-none-eabi/lib/armv6k/fpu\libg.a(lib_a-calloc.o)
 .ARM.attributes
                0x0000170a       0x32 c:/devkitpro/devkitarm/bin/../lib/gcc/arm-none-eabi/4.9.2/../../../../arm-none-eabi/lib/armv6k/fpu\libg.a(lib_a-callocr.o)
 .ARM.attributes
                0x0000173c       0x32 c:/devkitpro/devkitarm/bin/../lib/gcc/arm-none-eabi/4.9.2/../../../../arm-none-eabi/lib/armv6k/fpu\libg.a(lib_a-ctype_.o)
 .ARM.attributes
                0x0000176e       0x32 c:/devkitpro/devkitarm/bin/../lib/gcc/arm-none-eabi/4.9.2/../../../../arm-none-eabi/lib/armv6k/fpu\libg.a(lib_a-errno.o)
 .ARM.attributes
                0x000017a0       0x32 c:/devkitpro/devkitarm/bin/../lib/gcc/arm-none-eabi/4.9.2/../../../../arm-none-eabi/lib/armv6k/fpu\libg.a(lib_a-exit.o)
 .ARM.attributes
                0x000017d2       0x32 c:/devkitpro/devkitarm/bin/../lib/gcc/arm-none-eabi/4.9.2/../../../../arm-none-eabi/lib/armv6k/fpu\libg.a(lib_a-fclose.o)
 .ARM.attributes
                0x00001804       0x32 c:/devkitpro/devkitarm/bin/../lib/gcc/arm-none-eabi/4.9.2/../../../../arm-none-eabi/lib/armv6k/fpu\libg.a(lib_a-ferror.o)
 .ARM.attributes
                0x00001836       0x32 c:/devkitpro/devkitarm/bin/../lib/gcc/arm-none-eabi/4.9.2/../../../../arm-none-eabi/lib/armv6k/fpu\libg.a(lib_a-fflush.o)
 .ARM.attributes
                0x00001868       0x32 c:/devkitpro/devkitarm/bin/../lib/gcc/arm-none-eabi/4.9.2/../../../../arm-none-eabi/lib/armv6k/fpu\libg.a(lib_a-fgetc.o)
 .ARM.attributes
                0x0000189a       0x32 c:/devkitpro/devkitarm/bin/../lib/gcc/arm-none-eabi/4.9.2/../../../../arm-none-eabi/lib/armv6k/fpu\libg.a(lib_a-fileno.o)
 .ARM.attributes
                0x000018cc       0x32 c:/devkitpro/devkitarm/bin/../lib/gcc/arm-none-eabi/4.9.2/../../../../arm-none-eabi/lib/armv6k/fpu\libg.a(lib_a-findfp.o)
 .ARM.attributes
                0x000018fe       0x32 c:/devkitpro/devkitarm/bin/../lib/gcc/arm-none-eabi/4.9.2/../../../../arm-none-eabi/lib/armv6k/fpu\libg.a(lib_a-fini.o)
 .ARM.attributes
                0x00001930       0x32 c:/devkitpro/devkitarm/bin/../lib/gcc/arm-none-eabi/4.9.2/../../../../arm-none-eabi/lib/armv6k/fpu\libg.a(lib_a-fopen.o)
 .ARM.attributes
                0x00001962       0x32 c:/devkitpro/devkitarm/bin/../lib/gcc/arm-none-eabi/4.9.2/../../../../arm-none-eabi/lib/armv6k/fpu\libg.a(lib_a-fprintf.o)
 .ARM.attributes
                0x00001994       0x32 c:/devkitpro/devkitarm/bin/../lib/gcc/arm-none-eabi/4.9.2/../../../../arm-none-eabi/lib/armv6k/fpu\libg.a(lib_a-fputc.o)
 .ARM.attributes
                0x000019c6       0x32 c:/devkitpro/devkitarm/bin/../lib/gcc/arm-none-eabi/4.9.2/../../../../arm-none-eabi/lib/armv6k/fpu\libg.a(lib_a-fputs.o)
 .ARM.attributes
                0x000019f8       0x32 c:/devkitpro/devkitarm/bin/../lib/gcc/arm-none-eabi/4.9.2/../../../../arm-none-eabi/lib/armv6k/fpu\libg.a(lib_a-fread.o)
 .ARM.attributes
                0x00001a2a       0x32 c:/devkitpro/devkitarm/bin/../lib/gcc/arm-none-eabi/4.9.2/../../../../arm-none-eabi/lib/armv6k/fpu\libg.a(lib_a-freer.o)
 .ARM.attributes
                0x00001a5c       0x32 c:/devkitpro/devkitarm/bin/../lib/gcc/arm-none-eabi/4.9.2/../../../../arm-none-eabi/lib/armv6k/fpu\libg.a(lib_a-fseek.o)
 .ARM.attributes
                0x00001a8e       0x32 c:/devkitpro/devkitarm/bin/../lib/gcc/arm-none-eabi/4.9.2/../../../../arm-none-eabi/lib/armv6k/fpu\libg.a(lib_a-fseeko.o)
 .ARM.attributes
                0x00001ac0       0x32 c:/devkitpro/devkitarm/bin/../lib/gcc/arm-none-eabi/4.9.2/../../../../arm-none-eabi/lib/armv6k/fpu\libg.a(lib_a-ftell.o)
 .ARM.attributes
                0x00001af2       0x32 c:/devkitpro/devkitarm/bin/../lib/gcc/arm-none-eabi/4.9.2/../../../../arm-none-eabi/lib/armv6k/fpu\libg.a(lib_a-ftello.o)
 .ARM.attributes
                0x00001b24       0x32 c:/devkitpro/devkitarm/bin/../lib/gcc/arm-none-eabi/4.9.2/../../../../arm-none-eabi/lib/armv6k/fpu\libg.a(lib_a-fvwrite.o)
 .ARM.attributes
                0x00001b56       0x32 c:/devkitpro/devkitarm/bin/../lib/gcc/arm-none-eabi/4.9.2/../../../../arm-none-eabi/lib/armv6k/fpu\libg.a(lib_a-fwalk.o)
 .ARM.attributes
                0x00001b88       0x32 c:/devkitpro/devkitarm/bin/../lib/gcc/arm-none-eabi/4.9.2/../../../../arm-none-eabi/lib/armv6k/fpu\libg.a(lib_a-fwrite.o)
 .ARM.attributes
                0x00001bba       0x32 c:/devkitpro/devkitarm/bin/../lib/gcc/arm-none-eabi/4.9.2/../../../../arm-none-eabi/lib/armv6k/fpu\libg.a(lib_a-impure.o)
 .ARM.attributes
                0x00001bec       0x32 c:/devkitpro/devkitarm/bin/../lib/gcc/arm-none-eabi/4.9.2/../../../../arm-none-eabi/lib/armv6k/fpu\libg.a(lib_a-init.o)
 .ARM.attributes
                0x00001c1e       0x32 c:/devkitpro/devkitarm/bin/../lib/gcc/arm-none-eabi/4.9.2/../../../../arm-none-eabi/lib/armv6k/fpu\libg.a(lib_a-isalpha.o)
 .ARM.attributes
                0x00001c50       0x32 c:/devkitpro/devkitarm/bin/../lib/gcc/arm-none-eabi/4.9.2/../../../../arm-none-eabi/lib/armv6k/fpu\libg.a(lib_a-isspace.o)
 .ARM.attributes
                0x00001c82       0x32 c:/devkitpro/devkitarm/bin/../lib/gcc/arm-none-eabi/4.9.2/../../../../arm-none-eabi/lib/armv6k/fpu\libg.a(lib_a-makebuf.o)
 .ARM.attributes
                0x00001cb4       0x32 c:/devkitpro/devkitarm/bin/../lib/gcc/arm-none-eabi/4.9.2/../../../../arm-none-eabi/lib/armv6k/fpu\libg.a(lib_a-malign.o)
 .ARM.attributes
                0x00001ce6       0x32 c:/devkitpro/devkitarm/bin/../lib/gcc/arm-none-eabi/4.9.2/../../../../arm-none-eabi/lib/armv6k/fpu\libg.a(lib_a-malignr.o)
 .ARM.attributes
                0x00001d18       0x32 c:/devkitpro/devkitarm/bin/../lib/gcc/arm-none-eabi/4.9.2/../../../../arm-none-eabi/lib/armv6k/fpu\libg.a(lib_a-malloc.o)
 .ARM.attributes
                0x00001d4a       0x32 c:/devkitpro/devkitarm/bin/../lib/gcc/arm-none-eabi/4.9.2/../../../../arm-none-eabi/lib/armv6k/fpu\libg.a(lib_a-mallocr.o)
 .ARM.attributes
                0x00001d7c       0x32 c:/devkitpro/devkitarm/bin/../lib/gcc/arm-none-eabi/4.9.2/../../../../arm-none-eabi/lib/armv6k/fpu\libg.a(lib_a-memchr.o)
 .ARM.attributes
                0x00001dae       0x32 c:/devkitpro/devkitarm/bin/../lib/gcc/arm-none-eabi/4.9.2/../../../../arm-none-eabi/lib/armv6k/fpu\libg.a(lib_a-memcmp.o)
 .ARM.attributes
                0x00001de0       0x32 c:/devkitpro/devkitarm/bin/../lib/gcc/arm-none-eabi/4.9.2/../../../../arm-none-eabi/lib/armv6k/fpu\libg.a(lib_a-memcpy.o)
 .ARM.attributes
                0x00001e12       0x32 c:/devkitpro/devkitarm/bin/../lib/gcc/arm-none-eabi/4.9.2/../../../../arm-none-eabi/lib/armv6k/fpu\libg.a(lib_a-memmove.o)
 .ARM.attributes
                0x00001e44       0x32 c:/devkitpro/devkitarm/bin/../lib/gcc/arm-none-eabi/4.9.2/../../../../arm-none-eabi/lib/armv6k/fpu\libg.a(lib_a-memset.o)
 .ARM.attributes
                0x00001e76       0x32 c:/devkitpro/devkitarm/bin/../lib/gcc/arm-none-eabi/4.9.2/../../../../arm-none-eabi/lib/armv6k/fpu\libg.a(lib_a-mlock.o)
 .ARM.attributes
                0x00001ea8       0x32 c:/devkitpro/devkitarm/bin/../lib/gcc/arm-none-eabi/4.9.2/../../../../arm-none-eabi/lib/armv6k/fpu\libg.a(lib_a-printf.o)
 .ARM.attributes
                0x00001eda       0x32 c:/devkitpro/devkitarm/bin/../lib/gcc/arm-none-eabi/4.9.2/../../../../arm-none-eabi/lib/armv6k/fpu\libg.a(lib_a-putchar.o)
 .ARM.attributes
                0x00001f0c       0x32 c:/devkitpro/devkitarm/bin/../lib/gcc/arm-none-eabi/4.9.2/../../../../arm-none-eabi/lib/armv6k/fpu\libg.a(lib_a-putc.o)
 .ARM.attributes
                0x00001f3e       0x32 c:/devkitpro/devkitarm/bin/../lib/gcc/arm-none-eabi/4.9.2/../../../../arm-none-eabi/lib/armv6k/fpu\libg.a(lib_a-puts.o)
 .ARM.attributes
                0x00001f70       0x32 c:/devkitpro/devkitarm/bin/../lib/gcc/arm-none-eabi/4.9.2/../../../../arm-none-eabi/lib/armv6k/fpu\libg.a(lib_a-qsort.o)
 .ARM.attributes
                0x00001fa2       0x32 c:/devkitpro/devkitarm/bin/../lib/gcc/arm-none-eabi/4.9.2/../../../../arm-none-eabi/lib/armv6k/fpu\libg.a(lib_a-rand.o)
 .ARM.attributes
                0x00001fd4       0x32 c:/devkitpro/devkitarm/bin/../lib/gcc/arm-none-eabi/4.9.2/../../../../arm-none-eabi/lib/armv6k/fpu\libg.a(lib_a-realloc.o)
 .ARM.attributes
                0x00002006       0x32 c:/devkitpro/devkitarm/bin/../lib/gcc/arm-none-eabi/4.9.2/../../../../arm-none-eabi/lib/armv6k/fpu\libg.a(lib_a-reallocr.o)
 .ARM.attributes
                0x00002038       0x32 c:/devkitpro/devkitarm/bin/../lib/gcc/arm-none-eabi/4.9.2/../../../../arm-none-eabi/lib/armv6k/fpu\libg.a(lib_a-refill.o)
 .ARM.attributes
                0x0000206a       0x32 c:/devkitpro/devkitarm/bin/../lib/gcc/arm-none-eabi/4.9.2/../../../../arm-none-eabi/lib/armv6k/fpu\libg.a(lib_a-rewind.o)
 .ARM.attributes
                0x0000209c       0x32 c:/devkitpro/devkitarm/bin/../lib/gcc/arm-none-eabi/4.9.2/../../../../arm-none-eabi/lib/armv6k/fpu\libg.a(lib_a-rget.o)
 .ARM.attributes
                0x000020ce       0x32 c:/devkitpro/devkitarm/bin/../lib/gcc/arm-none-eabi/4.9.2/../../../../arm-none-eabi/lib/armv6k/fpu\libg.a(lib_a-setvbuf.o)
 .ARM.attributes
                0x00002100       0x32 c:/devkitpro/devkitarm/bin/../lib/gcc/arm-none-eabi/4.9.2/../../../../arm-none-eabi/lib/armv6k/fpu\libg.a(lib_a-signal.o)
 .ARM.attributes
                0x00002132       0x32 c:/devkitpro/devkitarm/bin/../lib/gcc/arm-none-eabi/4.9.2/../../../../arm-none-eabi/lib/armv6k/fpu\libg.a(lib_a-siprintf.o)
 .ARM.attributes
                0x00002164       0x32 c:/devkitpro/devkitarm/bin/../lib/gcc/arm-none-eabi/4.9.2/../../../../arm-none-eabi/lib/armv6k/fpu\libg.a(lib_a-snprintf.o)
 .ARM.attributes
                0x00002196       0x32 c:/devkitpro/devkitarm/bin/../lib/gcc/arm-none-eabi/4.9.2/../../../../arm-none-eabi/lib/armv6k/fpu\libg.a(lib_a-sprintf.o)
 .ARM.attributes
                0x000021c8       0x32 c:/devkitpro/devkitarm/bin/../lib/gcc/arm-none-eabi/4.9.2/../../../../arm-none-eabi/lib/armv6k/fpu\libg.a(lib_a-sscanf.o)
 .ARM.attributes
                0x000021fa       0x32 c:/devkitpro/devkitarm/bin/../lib/gcc/arm-none-eabi/4.9.2/../../../../arm-none-eabi/lib/armv6k/fpu\libg.a(lib_a-stdio.o)
 .ARM.attributes
                0x0000222c       0x32 c:/devkitpro/devkitarm/bin/../lib/gcc/arm-none-eabi/4.9.2/../../../../arm-none-eabi/lib/armv6k/fpu\libg.a(lib_a-strcasecmp.o)
 .ARM.attributes
                0x0000225e       0x32 c:/devkitpro/devkitarm/bin/../lib/gcc/arm-none-eabi/4.9.2/../../../../arm-none-eabi/lib/armv6k/fpu\libg.a(lib_a-strcat.o)
 .ARM.attributes
                0x00002290       0x32 c:/devkitpro/devkitarm/bin/../lib/gcc/arm-none-eabi/4.9.2/../../../../arm-none-eabi/lib/armv6k/fpu\libg.a(lib_a-strchr.o)
 .ARM.attributes
                0x000022c2       0x1a c:/devkitpro/devkitarm/bin/../lib/gcc/arm-none-eabi/4.9.2/../../../../arm-none-eabi/lib/armv6k/fpu\libg.a(lib_a-strcmp.o)
 .ARM.attributes
                0x000022dc       0x32 c:/devkitpro/devkitarm/bin/../lib/gcc/arm-none-eabi/4.9.2/../../../../arm-none-eabi/lib/armv6k/fpu\libg.a(lib_a-strcpy.o)
 .ARM.attributes
                0x0000230e       0x32 c:/devkitpro/devkitarm/bin/../lib/gcc/arm-none-eabi/4.9.2/../../../../arm-none-eabi/lib/armv6k/fpu\libg.a(lib_a-strdup.o)
 .ARM.attributes
                0x00002340       0x32 c:/devkitpro/devkitarm/bin/../lib/gcc/arm-none-eabi/4.9.2/../../../../arm-none-eabi/lib/armv6k/fpu\libg.a(lib_a-strdup_r.o)
 .ARM.attributes
                0x00002372       0x32 c:/devkitpro/devkitarm/bin/../lib/gcc/arm-none-eabi/4.9.2/../../../../arm-none-eabi/lib/armv6k/fpu\libg.a(lib_a-strlen.o)
 .ARM.attributes
                0x000023a4       0x32 c:/devkitpro/devkitarm/bin/../lib/gcc/arm-none-eabi/4.9.2/../../../../arm-none-eabi/lib/armv6k/fpu\libg.a(lib_a-strncat.o)
 .ARM.attributes
                0x000023d6       0x32 c:/devkitpro/devkitarm/bin/../lib/gcc/arm-none-eabi/4.9.2/../../../../arm-none-eabi/lib/armv6k/fpu\libg.a(lib_a-strncmp.o)
 .ARM.attributes
                0x00002408       0x32 c:/devkitpro/devkitarm/bin/../lib/gcc/arm-none-eabi/4.9.2/../../../../arm-none-eabi/lib/armv6k/fpu\libg.a(lib_a-strncpy.o)
 .ARM.attributes
                0x0000243a       0x32 c:/devkitpro/devkitarm/bin/../lib/gcc/arm-none-eabi/4.9.2/../../../../arm-none-eabi/lib/armv6k/fpu\libg.a(lib_a-strrchr.o)
 .ARM.attributes
                0x0000246c       0x32 c:/devkitpro/devkitarm/bin/../lib/gcc/arm-none-eabi/4.9.2/../../../../arm-none-eabi/lib/armv6k/fpu\libg.a(lib_a-strtod.o)
 .ARM.attributes
                0x0000249e       0x32 c:/devkitpro/devkitarm/bin/../lib/gcc/arm-none-eabi/4.9.2/../../../../arm-none-eabi/lib/armv6k/fpu\libg.a(lib_a-strtoll.o)
 .ARM.attributes
                0x000024d0       0x32 c:/devkitpro/devkitarm/bin/../lib/gcc/arm-none-eabi/4.9.2/../../../../arm-none-eabi/lib/armv6k/fpu\libg.a(lib_a-strtoll_r.o)
 .ARM.attributes
                0x00002502       0x32 c:/devkitpro/devkitarm/bin/../lib/gcc/arm-none-eabi/4.9.2/../../../../arm-none-eabi/lib/armv6k/fpu\libg.a(lib_a-strtol.o)
 .ARM.attributes
                0x00002534       0x32 c:/devkitpro/devkitarm/bin/../lib/gcc/arm-none-eabi/4.9.2/../../../../arm-none-eabi/lib/armv6k/fpu\libg.a(lib_a-strtoull.o)
 .ARM.attributes
                0x00002566       0x32 c:/devkitpro/devkitarm/bin/../lib/gcc/arm-none-eabi/4.9.2/../../../../arm-none-eabi/lib/armv6k/fpu\libg.a(lib_a-strtoull_r.o)
 .ARM.attributes
                0x00002598       0x32 c:/devkitpro/devkitarm/bin/../lib/gcc/arm-none-eabi/4.9.2/../../../../arm-none-eabi/lib/armv6k/fpu\libg.a(lib_a-strtoul.o)
 .ARM.attributes
                0x000025ca       0x32 c:/devkitpro/devkitarm/bin/../lib/gcc/arm-none-eabi/4.9.2/../../../../arm-none-eabi/lib/armv6k/fpu\libg.a(lib_a-svfiprintf.o)
 .ARM.attributes
                0x000025fc       0x32 c:/devkitpro/devkitarm/bin/../lib/gcc/arm-none-eabi/4.9.2/../../../../arm-none-eabi/lib/armv6k/fpu\libg.a(lib_a-svfprintf.o)
 .ARM.attributes
                0x0000262e       0x32 c:/devkitpro/devkitarm/bin/../lib/gcc/arm-none-eabi/4.9.2/../../../../arm-none-eabi/lib/armv6k/fpu\libg.a(lib_a-svfscanf.o)
 .ARM.attributes
                0x00002660       0x32 c:/devkitpro/devkitarm/bin/../lib/gcc/arm-none-eabi/4.9.2/../../../../arm-none-eabi/lib/armv6k/fpu\libg.a(lib_a-sysclose.o)
 .ARM.attributes
                0x00002692       0x32 c:/devkitpro/devkitarm/bin/../lib/gcc/arm-none-eabi/4.9.2/../../../../arm-none-eabi/lib/armv6k/fpu\libg.a(lib_a-sysfstat.o)
 .ARM.attributes
                0x000026c4       0x32 c:/devkitpro/devkitarm/bin/../lib/gcc/arm-none-eabi/4.9.2/../../../../arm-none-eabi/lib/armv6k/fpu\libg.a(lib_a-sysopen.o)
 .ARM.attributes
                0x000026f6       0x32 c:/devkitpro/devkitarm/bin/../lib/gcc/arm-none-eabi/4.9.2/../../../../arm-none-eabi/lib/armv6k/fpu\libg.a(lib_a-sysstat.o)
 .ARM.attributes
                0x00002728       0x32 c:/devkitpro/devkitarm/bin/../lib/gcc/arm-none-eabi/4.9.2/../../../../arm-none-eabi/lib/armv6k/fpu\libg.a(lib_a-syswrite.o)
 .ARM.attributes
                0x0000275a       0x32 c:/devkitpro/devkitarm/bin/../lib/gcc/arm-none-eabi/4.9.2/../../../../arm-none-eabi/lib/armv6k/fpu\libg.a(lib_a-time.o)
 .ARM.attributes
                0x0000278c       0x32 c:/devkitpro/devkitarm/bin/../lib/gcc/arm-none-eabi/4.9.2/../../../../arm-none-eabi/lib/armv6k/fpu\libg.a(lib_a-vfprintf.o)
 .ARM.attributes
                0x000027be       0x32 c:/devkitpro/devkitarm/bin/../lib/gcc/arm-none-eabi/4.9.2/../../../../arm-none-eabi/lib/armv6k/fpu\libg.a(lib_a-vsprintf.o)
 .ARM.attributes
                0x000027f0       0x32 c:/devkitpro/devkitarm/bin/../lib/gcc/arm-none-eabi/4.9.2/../../../../arm-none-eabi/lib/armv6k/fpu\libg.a(lib_a-wbuf.o)
 .ARM.attributes
                0x00002822       0x32 c:/devkitpro/devkitarm/bin/../lib/gcc/arm-none-eabi/4.9.2/../../../../arm-none-eabi/lib/armv6k/fpu\libg.a(lib_a-wcrtomb.o)
 .ARM.attributes
                0x00002854       0x32 c:/devkitpro/devkitarm/bin/../lib/gcc/arm-none-eabi/4.9.2/../../../../arm-none-eabi/lib/armv6k/fpu\libg.a(lib_a-wcsrtombs.o)
 .ARM.attributes
                0x00002886       0x32 c:/devkitpro/devkitarm/bin/../lib/gcc/arm-none-eabi/4.9.2/../../../../arm-none-eabi/lib/armv6k/fpu\libg.a(lib_a-wctomb_r.o)
 .ARM.attributes
                0x000028b8       0x32 c:/devkitpro/devkitarm/bin/../lib/gcc/arm-none-eabi/4.9.2/../../../../arm-none-eabi/lib/armv6k/fpu\libg.a(lib_a-wsetup.o)
 .ARM.attributes
                0x000028ea       0x32 c:/devkitpro/devkitarm/bin/../lib/gcc/arm-none-eabi/4.9.2/../../../../arm-none-eabi/lib/armv6k/fpu\libg.a(lib_a-__call_atexit.o)
 .ARM.attributes
                0x0000291c       0x32 c:/devkitpro/devkitarm/bin/../lib/gcc/arm-none-eabi/4.9.2/../../../../arm-none-eabi/lib/armv6k/fpu\libg.a(lib_a-dtoa.o)
 .ARM.attributes
                0x0000294e       0x32 c:/devkitpro/devkitarm/bin/../lib/gcc/arm-none-eabi/4.9.2/../../../../arm-none-eabi/lib/armv6k/fpu\libg.a(lib_a-flags.o)
 .ARM.attributes
                0x00002980       0x32 c:/devkitpro/devkitarm/bin/../lib/gcc/arm-none-eabi/4.9.2/../../../../arm-none-eabi/lib/armv6k/fpu\libg.a(lib_a-gdtoa-gethex.o)
 .ARM.attributes
                0x000029b2       0x32 c:/devkitpro/devkitarm/bin/../lib/gcc/arm-none-eabi/4.9.2/../../../../arm-none-eabi/lib/armv6k/fpu\libg.a(lib_a-gdtoa-hexnan.o)
 .ARM.attributes
                0x000029e4       0x32 c:/devkitpro/devkitarm/bin/../lib/gcc/arm-none-eabi/4.9.2/../../../../arm-none-eabi/lib/armv6k/fpu\libg.a(lib_a-iswspace.o)
 .ARM.attributes
                0x00002a16       0x32 c:/devkitpro/devkitarm/bin/../lib/gcc/arm-none-eabi/4.9.2/../../../../arm-none-eabi/lib/armv6k/fpu\libg.a(lib_a-jp2uc.o)
 .ARM.attributes
                0x00002a48       0x32 c:/devkitpro/devkitarm/bin/../lib/gcc/arm-none-eabi/4.9.2/../../../../arm-none-eabi/lib/armv6k/fpu\libg.a(lib_a-locale.o)
 .ARM.attributes
                0x00002a7a       0x32 c:/devkitpro/devkitarm/bin/../lib/gcc/arm-none-eabi/4.9.2/../../../../arm-none-eabi/lib/armv6k/fpu\libg.a(lib_a-mbrtowc.o)
 .ARM.attributes
                0x00002aac       0x32 c:/devkitpro/devkitarm/bin/../lib/gcc/arm-none-eabi/4.9.2/../../../../arm-none-eabi/lib/armv6k/fpu\libg.a(lib_a-mbtowc_r.o)
 .ARM.attributes
                0x00002ade       0x32 c:/devkitpro/devkitarm/bin/../lib/gcc/arm-none-eabi/4.9.2/../../../../arm-none-eabi/lib/armv6k/fpu\libg.a(lib_a-mprec.o)
 .ARM.attributes
                0x00002b10       0x32 c:/devkitpro/devkitarm/bin/../lib/gcc/arm-none-eabi/4.9.2/../../../../arm-none-eabi/lib/armv6k/fpu\libg.a(lib_a-sccl.o)
 .ARM.attributes
                0x00002b42       0x32 c:/devkitpro/devkitarm/bin/../lib/gcc/arm-none-eabi/4.9.2/../../../../arm-none-eabi/lib/armv6k/fpu\libg.a(lib_a-sf_nan.o)
 .ARM.attributes
                0x00002b74       0x32 c:/devkitpro/devkitarm/bin/../lib/gcc/arm-none-eabi/4.9.2/../../../../arm-none-eabi/lib/armv6k/fpu\libg.a(lib_a-s_fpclassify.o)
 .ARM.attributes
                0x00002ba6       0x32 c:/devkitpro/devkitarm/bin/../lib/gcc/arm-none-eabi/4.9.2/../../../../arm-none-eabi/lib/armv6k/fpu\libg.a(lib_a-s_frexp.o)
 .ARM.attributes
                0x00002bd8       0x32 c:/devkitpro/devkitarm/bin/../lib/gcc/arm-none-eabi/4.9.2/../../../../arm-none-eabi/lib/armv6k/fpu\libg.a(lib_a-stpncpy.o)
 .ARM.attributes
                0x00002c0a       0x32 c:/devkitpro/devkitarm/bin/../lib/gcc/arm-none-eabi/4.9.2/../../../../arm-none-eabi/lib/armv6k/fpu\libg.a(lib_a-strlcpy.o)
 .ARM.attributes
                0x00002c3c       0x32 c:/devkitpro/devkitarm/bin/../lib/gcc/arm-none-eabi/4.9.2/../../../../arm-none-eabi/lib/armv6k/fpu\libg.a(lib_a-strncasecmp.o)
 .ARM.attributes
                0x00002c6e       0x32 c:/devkitpro/devkitarm/bin/../lib/gcc/arm-none-eabi/4.9.2/../../../../arm-none-eabi/lib/armv6k/fpu\libg.a(lib_a-svfiscanf.o)
 .ARM.attributes
                0x00002ca0       0x32 c:/devkitpro/devkitarm/bin/../lib/gcc/arm-none-eabi/4.9.2/../../../../arm-none-eabi/lib/armv6k/fpu\libg.a(lib_a-ungetc.o)
 .ARM.attributes
                0x00002cd2       0x32 c:/devkitpro/devkitarm/bin/../lib/gcc/arm-none-eabi/4.9.2/../../../../arm-none-eabi/lib/armv6k/fpu\libg.a(lib_a-vfiprintf.o)
 .ARM.attributes
                0x00002d04       0x32 c:/devkitpro/devkitarm/bin/../lib/gcc/arm-none-eabi/4.9.2/../../../../arm-none-eabi/lib/armv6k/fpu\libg.a(lib_a-wcsnrtombs.o)
 .ARM.attributes
                0x00002d36       0x32 c:/devkitpro/devkitarm/bin/../lib/gcc/arm-none-eabi/4.9.2/../../../../arm-none-eabi/lib/armv6k/fpu\libg.a(lib_a-fputwc.o)
 .ARM.attributes
                0x00002d68       0x32 c:/devkitpro/devkitarm/bin/../lib/gcc/arm-none-eabi/4.9.2/../../../../arm-none-eabi/lib/armv6k/fpu\libg.a(lib_a-getenv_r.o)
 .ARM.attributes
                0x00002d9a       0x32 c:/devkitpro/devkitarm/bin/../lib/gcc/arm-none-eabi/4.9.2/../../../../arm-none-eabi/lib/armv6k/fpu\libg.a(lib_a-environ.o)
 .ARM.attributes
                0x00002dcc       0x32 c:/devkitpro/devkitarm/bin/../lib/gcc/arm-none-eabi/4.9.2/../../../../arm-none-eabi/lib/armv6k/fpu\libg.a(lib_a-envlock.o)
 .ARM.attributes
                0x00002dfe       0x32 c:/devkitpro/devkitarm/bin/../lib/gcc/arm-none-eabi/4.9.2/../../../../arm-none-eabi/lib/armv6k/fpu\libsysbase.a(iosupport.o)
 .ARM.attributes
                0x00002e30       0x32 c:/devkitpro/devkitarm/bin/../lib/gcc/arm-none-eabi/4.9.2/../../../../arm-none-eabi/lib/armv6k/fpu\libsysbase.a(close.o)
 .ARM.attributes
                0x00002e62       0x32 c:/devkitpro/devkitarm/bin/../lib/gcc/arm-none-eabi/4.9.2/../../../../arm-none-eabi/lib/armv6k/fpu\libsysbase.a(fstat.o)
 .ARM.attributes
                0x00002e94       0x32 c:/devkitpro/devkitarm/bin/../lib/gcc/arm-none-eabi/4.9.2/../../../../arm-none-eabi/lib/armv6k/fpu\libsysbase.a(getpid.o)
 .ARM.attributes
                0x00002ec6       0x32 c:/devkitpro/devkitarm/bin/../lib/gcc/arm-none-eabi/4.9.2/../../../../arm-none-eabi/lib/armv6k/fpu\libsysbase.a(gettod.o)
 .ARM.attributes
                0x00002ef8       0x32 c:/devkitpro/devkitarm/bin/../lib/gcc/arm-none-eabi/4.9.2/../../../../arm-none-eabi/lib/armv6k/fpu\libsysbase.a(isatty.o)
 .ARM.attributes
                0x00002f2a       0x32 c:/devkitpro/devkitarm/bin/../lib/gcc/arm-none-eabi/4.9.2/../../../../arm-none-eabi/lib/armv6k/fpu\libsysbase.a(kill.o)
 .ARM.attributes
                0x00002f5c       0x32 c:/devkitpro/devkitarm/bin/../lib/gcc/arm-none-eabi/4.9.2/../../../../arm-none-eabi/lib/armv6k/fpu\libsysbase.a(lseek.o)
 .ARM.attributes
                0x00002f8e       0x32 c:/devkitpro/devkitarm/bin/../lib/gcc/arm-none-eabi/4.9.2/../../../../arm-none-eabi/lib/armv6k/fpu\libsysbase.a(open.o)
 .ARM.attributes
                0x00002fc0       0x32 c:/devkitpro/devkitarm/bin/../lib/gcc/arm-none-eabi/4.9.2/../../../../arm-none-eabi/lib/armv6k/fpu\libsysbase.a(read.o)
 .ARM.attributes
                0x00002ff2       0x32 c:/devkitpro/devkitarm/bin/../lib/gcc/arm-none-eabi/4.9.2/../../../../arm-none-eabi/lib/armv6k/fpu\libsysbase.a(sbrk.o)
 .ARM.attributes
                0x00003024       0x32 c:/devkitpro/devkitarm/bin/../lib/gcc/arm-none-eabi/4.9.2/../../../../arm-none-eabi/lib/armv6k/fpu\libsysbase.a(stat.o)
 .ARM.attributes
                0x00003056       0x32 c:/devkitpro/devkitarm/bin/../lib/gcc/arm-none-eabi/4.9.2/../../../../arm-none-eabi/lib/armv6k/fpu\libsysbase.a(write.o)
 .ARM.attributes
                0x00003088       0x32 c:/devkitpro/devkitarm/bin/../lib/gcc/arm-none-eabi/4.9.2/../../../../arm-none-eabi/lib/armv6k/fpu\libsysbase.a(_exit.o)
 .ARM.attributes
                0x000030ba       0x32 c:/devkitpro/devkitarm/bin/../lib/gcc/arm-none-eabi/4.9.2/../../../../arm-none-eabi/lib/armv6k/fpu\libsysbase.a(malloc_vars.o)
 .ARM.attributes
                0x000030ec       0x32 c:/devkitpro/devkitarm/bin/../lib/gcc/arm-none-eabi/4.9.2/../../../../arm-none-eabi/lib/armv6k/fpu\libsysbase.a(chdir.o)
 .ARM.attributes
                0x0000311e       0x32 c:/devkitpro/devkitarm/bin/../lib/gcc/arm-none-eabi/4.9.2/../../../../arm-none-eabi/lib/armv6k/fpu\libsysbase.a(flock.o)
 .ARM.attributes
                0x00003150       0x32 c:/devkitpro/devkitarm/bin/../lib/gcc/arm-none-eabi/4.9.2/../../../../arm-none-eabi/lib/armv6k/fpu\libsysbase.a(syscall_support.o)
 .ARM.attributes
                0x00003182       0x32 c:/devkitpro/devkitarm/bin/../lib/gcc/arm-none-eabi/4.9.2/../../../../arm-none-eabi/lib/armv6k/fpu\libsysbase.a(handle_manager.o)
 .ARM.attributes
                0x000031b4       0x32 c:/devkitpro/devkitarm/bin/../lib/gcc/arm-none-eabi/4.9.2/../../../../arm-none-eabi/lib/armv6k/fpu\libsysbase.a(ftruncate.o)
 .ARM.attributes
                0x000031e6       0x32 c:/devkitpro/devkitarm/bin/../lib/gcc/arm-none-eabi/4.9.2/../../../../arm-none-eabi/lib/armv6k/fpu\libsysbase.a(dirent.o)
 .ARM.attributes
                0x00003218       0x32 c:/devkitpro/devkitarm/bin/../lib/gcc/arm-none-eabi/4.9.2/../../../../arm-none-eabi/lib/armv6k/fpu\libsysbase.a(getreent.o)
 .ARM.attributes
                0x0000324a       0x1c c:/devkitpro/devkitarm/bin/../lib/gcc/arm-none-eabi/4.9.2/armv6k/fpu\libgcc.a(_divsi3.o)
 .ARM.attributes
                0x00003266       0x1c c:/devkitpro/devkitarm/bin/../lib/gcc/arm-none-eabi/4.9.2/armv6k/fpu\libgcc.a(_aeabi_uldivmod.o)
 .ARM.attributes
                0x00003282       0x32 c:/devkitpro/devkitarm/bin/../lib/gcc/arm-none-eabi/4.9.2/armv6k/fpu\libgcc.a(bpabi.o)
 .ARM.attributes
                0x000032b4       0x32 c:/devkitpro/devkitarm/bin/../lib/gcc/arm-none-eabi/4.9.2/armv6k/fpu\libgcc.a(_divdi3.o)
 .ARM.attributes
                0x000032e6       0x32 c:/devkitpro/devkitarm/bin/../lib/gcc/arm-none-eabi/4.9.2/armv6k/fpu\libgcc.a(_udivdi3.o)
 .ARM.attributes
                0x00003318       0x32 c:/devkitpro/devkitarm/bin/../lib/gcc/arm-none-eabi/4.9.2/../../../../arm-none-eabi/lib/armv6k/fpu\libg.a(lib_a-strnlen.o)
 .ARM.attributes
                0x0000334a       0x32 c:/devkitpro/devkitarm/bin/../lib/gcc/arm-none-eabi/4.9.2/armv6k/fpu/crtend.o
 .ARM.attributes
                0x0000337c       0x1c c:/devkitpro/devkitarm/bin/../lib/gcc/arm-none-eabi/4.9.2/armv6k/fpu/crtn.o

.debug_ranges   0x00000000      0x968
 .debug_ranges  0x00000000       0x70 c:/devkitPro/libctru/lib\libctru.a(linear.o)
 .debug_ranges  0x00000070      0x1d8 c:/devkitPro/libctru/lib\libctru.a(mem_pool.o)
 .debug_ranges  0x00000248       0x90 c:/devkitPro/libctru/lib\libctru.a(gfx.o)
 .debug_ranges  0x000002d8       0x48 c:/devkitPro/libctru/lib\libctru.a(os.o)
 .debug_ranges  0x00000320       0x48 c:/devkitPro/libctru/lib\libctru.a(sdmc_dev.o)
 .debug_ranges  0x00000368       0xf8 c:/devkitPro/libctru/lib\libctru.a(apt.o)
 .debug_ranges  0x00000460       0x60 c:/devkitPro/libctru/lib\libctru.a(gsp.o)
 .debug_ranges  0x000004c0       0x18 c:/devkitPro/libctru/lib\libctru.a(irrst.o)
 .debug_ranges  0x000004d8       0x20 c:/devkitPro/libctru/lib\libctru.a(soc_accept.o)
 .debug_ranges  0x000004f8       0x20 c:/devkitPro/libctru/lib\libctru.a(soc_bind.o)
 .debug_ranges  0x00000518       0x20 c:/devkitPro/libctru/lib\libctru.a(soc_closesocket.o)
 .debug_ranges  0x00000538       0x20 c:/devkitPro/libctru/lib\libctru.a(soc_fcntl.o)
 .debug_ranges  0x00000558       0x20 c:/devkitPro/libctru/lib\libctru.a(soc_init.o)
 .debug_ranges  0x00000578       0x20 c:/devkitPro/libctru/lib\libctru.a(soc_listen.o)
 .debug_ranges  0x00000598       0x20 c:/devkitPro/libctru/lib\libctru.a(soc_recvfrom.o)
 .debug_ranges  0x000005b8       0x20 c:/devkitPro/libctru/lib\libctru.a(soc_sendto.o)
 .debug_ranges  0x000005d8       0x20 c:/devkitPro/libctru/lib\libctru.a(rbtree_find.o)
 .debug_ranges  0x000005f8      0x110 c:/devkitPro/libctru/lib\libctru.a(rbtree_insert.o)
 .debug_ranges  0x00000708       0xf8 c:/devkitPro/libctru/lib\libctru.a(rbtree_remove.o)
 .debug_ranges  0x00000800       0x30 c:/devkitPro/libctru/lib\libctru.a(rbtree_rotate.o)
 .debug_ranges  0x00000830       0x10 c:/devkitPro/libctru/lib\libctru.a(decode_utf8.o)
 .debug_ranges  0x00000840       0x70 c:/devkitPro/libctru/lib\libctru.a(mappable.o)
 .debug_ranges  0x000008b0       0x78 c:/devkitPro/libctru/lib\libctru.a(vram.o)
 .debug_ranges  0x00000928       0x30 c:/devkitPro/libctru/lib\libctru.a(rbtree_iterator.o)
 .debug_ranges  0x00000958       0x10 c:/devkitPro/libctru/lib\libctru.a(decode_utf16.o)
